 HanReportForClientD

 Timestamp is 48bb4f9a (Mon Sep 01 11:12:42 2008)

 Preferred load address is 10000000

 Start         Length     Name                   Class
 0001:00000000 0006afdcH .text                   CODE
 0001:0006afe0 000018f3H .text$x                 CODE
 0001:0006c8e0 0000038cH .text$yc                CODE
 0001:0006cc70 000002afH .text$yd                CODE
 0002:00000000 0000020cH .idata$5                DATA
 0002:0000020c 00000004H .CRT$XCA                DATA
 0002:00000210 00000004H .CRT$XCC                DATA
 0002:00000214 0000002cH .CRT$XCU                DATA
 0002:00000240 00000004H .CRT$XCZ                DATA
 0002:00000244 00000004H .CRT$XIA                DATA
 0002:00000248 00000014H .CRT$XIC                DATA
 0002:0000025c 00000004H .CRT$XIZ                DATA
 0002:00000260 00000004H .CRT$XPA                DATA
 0002:00000264 00000008H .CRT$XPX                DATA
 0002:0000026c 00000004H .CRT$XPXA               DATA
 0002:00000270 00000004H .CRT$XPZ                DATA
 0002:00000274 00000004H .CRT$XTA                DATA
 0002:00000278 00000004H .CRT$XTZ                DATA
 0002:00000280 0001365eH .rdata                  DATA
 0002:000138e0 0000006dH .rdata$debug            DATA
 0002:00013950 000006c0H .rdata$r                DATA
 0002:00014010 00000004H .rtc$IAA                DATA
 0002:00014014 00000028H .rtc$IMZ                DATA
 0002:0001403c 00000004H .rtc$IZZ                DATA
 0002:00014040 00000004H .rtc$TAA                DATA
 0002:00014044 00000028H .rtc$TMZ                DATA
 0002:0001406c 00000004H .rtc$TZZ                DATA
 0002:00014070 000022fcH .xdata$x                DATA
 0002:0001636c 00000064H .idata$2                DATA
 0002:000163d0 00000014H .idata$3                DATA
 0002:000163e4 0000020cH .idata$4                DATA
 0002:000165f0 00000984H .idata$6                DATA
 0002:00016f80 000001a0H .edata                  DATA
 0003:00000000 00001750H .data                   DATA
 0003:00001760 00007f3cH .bss                    DATA
 0004:00000000 00000130H .rsrc$01                DATA
 0004:00000130 000008c8H .rsrc$02                DATA

  Address         Publics by Value              Rva+Base       Lib:Object

 0000:00000000       ___safe_se_handler_count   00000000     <absolute>
 0000:00000000       ___safe_se_handler_table   00000000     <absolute>
 0000:00000000       __except_list              00000000     <absolute>
 0000:00000000       ___ImageBase               10000000     <linker-defined>
 0001:00000000       _DllMain@12                10001000 f   HanReportForClient.obj
 0001:00000040       ?Weblog_Handler_Func@@YA_NXZ 10001040 f   HanReportForClientImpl.obj
 0001:00000100       ?HanReportInitWithDump@@YGHPADH@Z 10001100 f   HanReportForClientImpl.obj
 0001:00000150       ?HanReportInitGameStringWithDump@@YGHPAD@Z 10001150 f   HanReportForClientImpl.obj
 0001:00000190       ?HanReportInitGameString@@YGHPAD_N@Z 10001190 f   HanReportForClientImpl.obj
 0001:00000350       ?HanReportInit@@YGHPADH_N@Z 10001350 f   HanReportForClientImpl.obj
 0001:00000ce0       ?HanReportSendSync@@YAHPAD0@Z 10001ce0 f   HanReportForClientImpl.obj
 0001:00001020       ?strstr@@YAPADPADPBD@Z     10002020 f i HanReportForClientImpl.obj
 0001:00001070       ?setSync@LogBuilder@@QAEX_N@Z 10002070 f i HanReportForClientImpl.obj
 0001:000010b0       ??1LogBuilder@@QAE@XZ      100020b0 f i HanReportForClientImpl.obj
 0001:00001100       ?HanReportSendPosLogSync@@YGHPAD@Z 10002100 f   HanReportForClientImpl.obj
 0001:00001450       ?HanReportSendPosLog@@YGHPAD@Z 10002450 f   HanReportForClientImpl.obj
 0001:000018a0       ?HanReportSend@@YGHPAD0@Z  100028a0 f   HanReportForClientImpl.obj
 0001:00001be0       ?HanReportGetNationCode@@YGHPADPAH@Z 10002be0 f   HanReportForClientImpl.obj
 0001:00001d70       ?HanReportGetServiceTypeCode@@YGHPADPAH@Z 10002d70 f   HanReportForClientImpl.obj
 0001:00001f00       ?HanReportGetSiteCode@@YGHPADPAH@Z 10002f00 f   HanReportForClientImpl.obj
 0001:00002090       ?HanReportConvertMD5@@YGHPAD0@Z 10003090 f   HanReportForClientImpl.obj
 0001:000021e0       ?ConvertHexToString@@YAXPADPAEH@Z 100031e0 f   HanReportForClientImpl.obj
 0001:000022c0       ??0?$basic_string@DU?$char_traits@D@std@@V?$allocator@D@2@@std@@QAE@XZ 100032c0 f i HanReportForClientImpl.obj
 0001:00002360       ??0?$basic_string@DU?$char_traits@D@std@@V?$allocator@D@2@@std@@QAE@PBD@Z 10003360 f i HanReportForClientImpl.obj
 0001:00002410       ??1?$basic_string@DU?$char_traits@D@std@@V?$allocator@D@2@@std@@QAE@XZ 10003410 f i HanReportForClientImpl.obj
 0001:000024a0       ?replace@?$basic_string@DU?$char_traits@D@std@@V?$allocator@D@2@@std@@QAEAAV12@IIABV12@@Z 100034a0 f i HanReportForClientImpl.obj
 0001:00002500       ??A?$basic_string@DU?$char_traits@D@std@@V?$allocator@D@2@@std@@QAEAADI@Z 10003500 f i HanReportForClientImpl.obj
 0001:000025c0       ?size@?$basic_string@DU?$char_traits@D@std@@V?$allocator@D@2@@std@@QBEIXZ 100035c0 f i HanReportForClientImpl.obj
 0001:000025f0       ?find@?$basic_string@DU?$char_traits@D@std@@V?$allocator@D@2@@std@@QBEIPBDI@Z 100035f0 f i HanReportForClientImpl.obj
 0001:00002650       ?length@?$char_traits@D@std@@SAIPBD@Z 10003650 f i HanReportForClientImpl.obj
 0001:00002690       ?allocate@?$_DebugHeapAllocator@D@std@@QAAPADIPBX@Z 10003690 f i HanReportForClientImpl.obj
 0001:00002730       ??0bad_alloc@std@@QAE@PBD@Z 10003730 f i HanReportForClientImpl.obj
 0001:00002790       ??1bad_alloc@std@@UAE@XZ   10003790 f i HanReportForClientImpl.obj
 0001:000027e0       ??_Gbad_alloc@std@@UAEPAXI@Z 100037e0 f i HanReportForClientImpl.obj
 0001:000027e0       ??_Ebad_alloc@std@@UAEPAXI@Z 100037e0 f i HanReportForClientImpl.obj
 0001:00002840       ?allocate@?$_DebugHeapAllocator@D@std@@QAEPADI@Z 10003840 f i HanReportForClientImpl.obj
 0001:000028e0       ?deallocate@?$_DebugHeapAllocator@D@std@@QAEXPADI@Z 100038e0 f i HanReportForClientImpl.obj
 0001:00002930       ??1?$_String_val@DV?$allocator@D@std@@@std@@QAE@XZ 10003930 f i HanReportForClientImpl.obj
 0001:00002970       ??0bad_alloc@std@@QAE@ABV01@@Z 10003970 f i HanReportForClientImpl.obj
 0001:000029d0       ??0?$_DebugHeapAllocator@D@std@@QAE@XZ 100039d0 f i HanReportForClientImpl.obj
 0001:00002a20       ??1_String_base@std@@QAE@XZ 10003a20 f i HanReportForClientImpl.obj
 0001:00002a60       ??1_Container_base@std@@QAE@XZ 10003a60 f i HanReportForClientImpl.obj
 0001:00002aa0       ?_Orphan_all@_Container_base@std@@QBEXXZ 10003aa0 f i HanReportForClientImpl.obj
 0001:00002b60       ?assign@?$basic_string@DU?$char_traits@D@std@@V?$allocator@D@2@@std@@QAEAAV12@PBD@Z 10003b60 f i HanReportForClientImpl.obj
 0001:00002bc0       ?replace@?$basic_string@DU?$char_traits@D@std@@V?$allocator@D@2@@std@@QAEAAV12@IIABV12@II@Z 10003bc0 f i HanReportForClientImpl.obj
 0001:00002f20       ?find@?$basic_string@DU?$char_traits@D@std@@V?$allocator@D@2@@std@@QBEIPBDII@Z 10003f20 f i HanReportForClientImpl.obj
 0001:00003040       ?compare@?$char_traits@D@std@@SAHPBD0I@Z 10004040 f i HanReportForClientImpl.obj
 0001:00003090       ?find@?$char_traits@D@std@@SAPBDPBDIABD@Z 10004090 f i HanReportForClientImpl.obj
 0001:000030e0       ?_Tidy@?$basic_string@DU?$char_traits@D@std@@V?$allocator@D@2@@std@@IAEX_NI@Z 100040e0 f i HanReportForClientImpl.obj
 0001:00003190       ?_Myptr@?$basic_string@DU?$char_traits@D@std@@V?$allocator@D@2@@std@@IAEPADXZ 10004190 f i HanReportForClientImpl.obj
 0001:000031f0       ?_Myptr@?$basic_string@DU?$char_traits@D@std@@V?$allocator@D@2@@std@@IBEPBDXZ 100041f0 f i HanReportForClientImpl.obj
 0001:00003250       ??0?$_String_val@DV?$allocator@D@std@@@std@@IAE@V?$allocator@D@1@@Z 10004250 f i HanReportForClientImpl.obj
 0001:000032b0       ??0?$allocator@D@std@@QAE@XZ 100042b0 f i HanReportForClientImpl.obj
 0001:000032e0       ??0_String_base@std@@QAE@XZ 100042e0 f i HanReportForClientImpl.obj
 0001:00003330       ??0_Container_base@std@@QAE@XZ 10004330 f i HanReportForClientImpl.obj
 0001:00003370       ??0?$_DebugHeapAllocator@D@std@@QAE@ABV01@@Z 10004370 f i HanReportForClientImpl.obj
 0001:000033c0       ?assign@?$basic_string@DU?$char_traits@D@std@@V?$allocator@D@2@@std@@QAEAAV12@PBDI@Z 100043c0 f i HanReportForClientImpl.obj
 0001:00003470       ?assign@?$basic_string@DU?$char_traits@D@std@@V?$allocator@D@2@@std@@QAEAAV12@ABV12@II@Z 10004470 f i HanReportForClientImpl.obj
 0001:00003550       ?erase@?$basic_string@DU?$char_traits@D@std@@V?$allocator@D@2@@std@@QAEAAV12@II@Z 10004550 f i HanReportForClientImpl.obj
 0001:00003610       ?_Eos@?$basic_string@DU?$char_traits@D@std@@V?$allocator@D@2@@std@@IAEXI@Z 10004610 f i HanReportForClientImpl.obj
 0001:00003680       ?assign@?$char_traits@D@std@@SAXAADABD@Z 10004680 f i HanReportForClientImpl.obj
 0001:000036b0       ?_Grow@?$basic_string@DU?$char_traits@D@std@@V?$allocator@D@2@@std@@IAE_NI_N@Z 100046b0 f i HanReportForClientImpl.obj
 0001:00003780       ??0?$allocator@D@std@@QAE@ABV01@@Z 10004780 f i HanReportForClientImpl.obj
 0001:000037b0       ?deallocate@?$allocator@D@std@@QAEXPADI@Z 100047b0 f i HanReportForClientImpl.obj
 0001:00003800       ?max_size@?$basic_string@DU?$char_traits@D@std@@V?$allocator@D@2@@std@@QBEIXZ 10004800 f i HanReportForClientImpl.obj
 0001:00003870       ?_Copy@?$basic_string@DU?$char_traits@D@std@@V?$allocator@D@2@@std@@IAEXII@Z 10004870 f i HanReportForClientImpl.obj
 0001:00003a30       ?_Inside@?$basic_string@DU?$char_traits@D@std@@V?$allocator@D@2@@std@@IAE_NPBD@Z 10004a30 f i HanReportForClientImpl.obj
 0001:00003ab0       ?allocate@?$allocator@D@std@@QAEPADI@Z 10004ab0 f i HanReportForClientImpl.obj
 0001:00003b00       ?max_size@?$allocator@D@std@@QBEIXZ 10004b00 f i HanReportForClientImpl.obj
 0001:00003b60       ??$_Debug_pointer@D@std@@YAXPBDPB_WI@Z 10004b60 f i HanReportForClientImpl.obj
 0001:00003bb0       ??$_DebugHeapDelete@X@std@@YAXPAX@Z 10004bb0 f i HanReportForClientImpl.obj
 0001:00003c00       ??$copy_s@U?$char_traits@D@std@@@_Traits_helper@std@@YAPADPADIPBDI@Z 10004c00 f i HanReportForClientImpl.obj
 0001:00003c60       ??$move_s@U?$char_traits@D@std@@@_Traits_helper@std@@YAPADPADIPBDI@Z 10004c60 f i HanReportForClientImpl.obj
 0001:00003cc0       ??$_Allocate@D@std@@YAPADIPAD@Z 10004cc0 f i HanReportForClientImpl.obj
 0001:00003d40       ??$_Char_traits_cat@U?$char_traits@D@std@@@std@@YA?AU_Secure_char_traits_tag@0@XZ 10004d40 f i HanReportForClientImpl.obj
 0001:00003da0       ??$copy_s@U?$char_traits@D@std@@@_Traits_helper@std@@YAPADPADIPBDIU_Secure_char_traits_tag@1@@Z 10004da0 f i HanReportForClientImpl.obj
 0001:00003df0       ?_Copy_s@?$char_traits@D@std@@SAPADPADIPBDI@Z 10004df0 f i HanReportForClientImpl.obj
 0001:00003e40       ??$move_s@U?$char_traits@D@std@@@_Traits_helper@std@@YAPADPADIPBDIU_Secure_char_traits_tag@1@@Z 10004e40 f i HanReportForClientImpl.obj
 0001:00003e90       ?_Move_s@?$char_traits@D@std@@SAPADPADIPBDI@Z 10004e90 f i HanReportForClientImpl.obj
 0001:00003ee0       ??0CMD5@@QAE@XZ            10004ee0 f   MD5.obj
 0001:00003f20       ??_GCMD5@@UAEPAXI@Z        10004f20 f i MD5.obj
 0001:00003f20       ??_ECMD5@@UAEPAXI@Z        10004f20 f i MD5.obj
 0001:00003f80       ??1CMD5@@UAE@XZ            10004f80 f   MD5.obj
 0001:00003fc0       ?Init@CMD5@@QAEXXZ         10004fc0 f   MD5.obj
 0001:00004030       ?Append@CMD5@@QAEXPBEH@Z   10005030 f   MD5.obj
 0001:000041a0       ?Finish@CMD5@@QAEXQAE@Z    100051a0 f   MD5.obj
 0001:000042c0       ?Process@CMD5@@IAEXPBE@Z   100052c0 f   MD5.obj
 0001:00005220       ??0CMetpParser@hgx@@QAE@XZ 10006220 f   MetpParserD:MetpParser.obj
 0001:000052c0       ??_GCMetpParser@hgx@@UAEPAXI@Z 100062c0 f i MetpParserD:MetpParser.obj
 0001:000052c0       ??_ECMetpParser@hgx@@UAEPAXI@Z 100062c0 f i MetpParserD:MetpParser.obj
 0001:00005320       ??1?$map@V?$basic_string@DU?$char_traits@D@std@@V?$allocator@D@2@@std@@PAVCItemData@CMetpParser@hgx@@U?$less@V?$basic_string@DU?$char_traits@D@std@@V?$allocator@D@2@@std@@@2@V?$allocator@U?$pair@$$CBV?$basic_string@DU?$char_traits@D@std@@V?$allocator@D@2@@std@@PAVCItemData@CMetpParser@hgx@@@std@@@2@@std@@QAE@XZ 10006320 f i MetpParserD:MetpParser.obj
 0001:00005360       ??0CMetpParser@hgx@@QAE@PBDH0@Z 10006360 f   MetpParserD:MetpParser.obj
 0001:00005460       ??0CMetpParser@hgx@@QAE@PBD00H0G@Z 10006460 f   MetpParserD:MetpParser.obj
 0001:00005520       ??0CMetpParser@hgx@@QAE@AAV01@@Z 10006520 f   MetpParserD:MetpParser.obj
 0001:000055c0       ??4CMetpParser@hgx@@QAEAAV01@AAV01@@Z 100065c0 f   MetpParserD:MetpParser.obj
 0001:00005920       ??1iterator@?$_Tree@V?$_Tmap_traits@V?$basic_string@DU?$char_traits@D@std@@V?$allocator@D@2@@std@@PAVCItemData@CMetpParser@hgx@@U?$less@V?$basic_string@DU?$char_traits@D@std@@V?$allocator@D@2@@std@@@2@V?$allocator@U?$pair@$$CBV?$basic_string@DU?$char_traits@D@std@@V?$allocator@D@2@@std@@PAVCItemData@CMetpParser@hgx@@@std@@@2@$0A@@std@@@std@@QAE@XZ 10006920 f i MetpParserD:MetpParser.obj
 0001:00005960       ??1const_iterator@?$_Tree@V?$_Tmap_traits@V?$basic_string@DU?$char_traits@D@std@@V?$allocator@D@2@@std@@PAVCItemData@CMetpParser@hgx@@U?$less@V?$basic_string@DU?$char_traits@D@std@@V?$allocator@D@2@@std@@@2@V?$allocator@U?$pair@$$CBV?$basic_string@DU?$char_traits@D@std@@V?$allocator@D@2@@std@@PAVCItemData@CMetpParser@hgx@@@std@@@2@$0A@@std@@@std@@QAE@XZ 10006960 f i MetpParserD:MetpParser.obj
 0001:000059a0       ??1?$_Bidit@U?$pair@$$CBV?$basic_string@DU?$char_traits@D@std@@V?$allocator@D@2@@std@@PAVCItemData@CMetpParser@hgx@@@std@@HPBU12@ABU12@@std@@QAE@XZ 100069a0 f i MetpParserD:MetpParser.obj
 0001:000059e0       ??1_Iterator_base@std@@QAE@XZ 100069e0 f i MetpParserD:MetpParser.obj
 0001:00005aa0       ?_Orphan_me@_Iterator_base@std@@QAEXXZ 10006aa0 f i MetpParserD:MetpParser.obj
 0001:00005b50       ??1CMetpParser@hgx@@UAE@XZ 10006b50 f   MetpParserD:MetpParser.obj
 0001:00005be0       ?SetParser@CMetpParser@hgx@@QAEXPBDH0@Z 10006be0 f   MetpParserD:MetpParser.obj
 0001:00005c90       ?Init@CMetpParser@hgx@@IAEX_N@Z 10006c90 f   MetpParserD:MetpParser.obj
 0001:00005ee0       ?SetHeader@CMetpParser@hgx@@IAE_NPBD00H0G@Z 10006ee0 f   MetpParserD:MetpParser.obj
 0001:00006110       ?SetURL@CMetpParser@hgx@@IAE_NPBDH0@Z 10007110 f   MetpParserD:MetpParser.obj
 0001:000067c0       ?ChecknGetRawLength@CMetpParser@hgx@@IAEHPBDH@Z 100077c0 f   MetpParserD:MetpParser.obj
 0001:00006b80       ?IsExistKey@CMetpParser@hgx@@QAE_NPBD@Z 10007b80 f   MetpParserD:MetpParser.obj
 0001:00006cd0       ?AddValue@CMetpParser@hgx@@QAE_NPBDH@Z 10007cd0 f   MetpParserD:MetpParser.obj
 0001:00006e60       ??1?$pair@V?$basic_string@DU?$char_traits@D@std@@V?$allocator@D@2@@std@@PAVCItemData@CMetpParser@hgx@@@std@@QAE@XZ 10007e60 f i MetpParserD:MetpParser.obj
 0001:00006ea0       ?AddValue@CMetpParser@hgx@@QAE_NPBDI@Z 10007ea0 f   MetpParserD:MetpParser.obj
 0001:00007030       ?AddValue@CMetpParser@hgx@@QAE_NPBDK@Z 10008030 f   MetpParserD:MetpParser.obj
 0001:00007080       ?AddValue@CMetpParser@hgx@@QAE_NPBD_J@Z 10008080 f   MetpParserD:MetpParser.obj
 0001:00007210       ?AddValue@CMetpParser@hgx@@QAE_NPBD_K@Z 10008210 f   MetpParserD:MetpParser.obj
 0001:000073a0       ?AddValue@CMetpParser@hgx@@QAE_NPBDG@Z 100083a0 f   MetpParserD:MetpParser.obj
 0001:00007530       ?AddValue@CMetpParser@hgx@@QAE_NPBDN@Z 10008530 f   MetpParserD:MetpParser.obj
 0001:000076d0       ?AddValue@CMetpParser@hgx@@QAE_NPBD0@Z 100086d0 f   MetpParserD:MetpParser.obj
 0001:00007850       ?AddData@CMetpParser@hgx@@QAE_NPAXH@Z 10008850 f   MetpParserD:MetpParser.obj
 0001:00007950       ?GetValue@CMetpParser@hgx@@QAE_NPBDAA_N@Z 10008950 f   MetpParserD:MetpParser.obj
 0001:00007a50       ?GetValue@CMetpParser@hgx@@QAE_NPBDAAH@Z 10008a50 f   MetpParserD:MetpParser.obj
 0001:00007b20       ?GetValue@CMetpParser@hgx@@QAE_NPBDAAI@Z 10008b20 f   MetpParserD:MetpParser.obj
 0001:00007c10       ?GetValue@CMetpParser@hgx@@QAE_NPBDAAK@Z 10008c10 f   MetpParserD:MetpParser.obj
 0001:00007ca0       ?GetValue@CMetpParser@hgx@@QAE_NPBDAA_J@Z 10008ca0 f   MetpParserD:MetpParser.obj
 0001:00007d80       ?GetValue@CMetpParser@hgx@@QAE_NPBDAA_K@Z 10008d80 f   MetpParserD:MetpParser.obj
 0001:00007e60       ?GetValue@CMetpParser@hgx@@QAE_NPBDAAG@Z 10008e60 f   MetpParserD:MetpParser.obj
 0001:00007f30       ?GetValue@CMetpParser@hgx@@QAE_NPBDAAN@Z 10008f30 f   MetpParserD:MetpParser.obj
 0001:00008020       ?GetValue@CMetpParser@hgx@@QAE_NPBDAAPADAAH@Z 10009020 f   MetpParserD:MetpParser.obj
 0001:00008210       ?SetValue@CMetpParser@hgx@@QAE_NPBDH@Z 10009210 f   MetpParserD:MetpParser.obj
 0001:00008440       ?SetValue@CMetpParser@hgx@@QAE_NPBDI@Z 10009440 f   MetpParserD:MetpParser.obj
 0001:00008670       ?SetValue@CMetpParser@hgx@@QAE_NPBDK@Z 10009670 f   MetpParserD:MetpParser.obj
 0001:000086c0       ?SetValue@CMetpParser@hgx@@QAE_NPBD_J@Z 100096c0 f   MetpParserD:MetpParser.obj
 0001:000088f0       ?SetValue@CMetpParser@hgx@@QAE_NPBD_K@Z 100098f0 f   MetpParserD:MetpParser.obj
 0001:00008b20       ?SetValue@CMetpParser@hgx@@QAE_NPBDG@Z 10009b20 f   MetpParserD:MetpParser.obj
 0001:00008d50       ?SetValue@CMetpParser@hgx@@QAE_NPBDN@Z 10009d50 f   MetpParserD:MetpParser.obj
 0001:00008f80       ?SetValue@CMetpParser@hgx@@QAE_NPBD0@Z 10009f80 f   MetpParserD:MetpParser.obj
 0001:00009190       ?SetData@CMetpParser@hgx@@QAE_NPAXH@Z 1000a190 f   MetpParserD:MetpParser.obj
 0001:000091f0       ?GetData@CMetpParser@hgx@@QAE_NAAPAXAAH@Z 1000a1f0 f   MetpParserD:MetpParser.obj
 0001:00009250       ?DelData@CMetpParser@hgx@@QAE_NXZ 1000a250 f   MetpParserD:MetpParser.obj
 0001:000092e0       ?DelKey@CMetpParser@hgx@@QAE_NPBD@Z 1000a2e0 f   MetpParserD:MetpParser.obj
 0001:00009510       ??_GCItemData@CMetpParser@hgx@@QAEPAXI@Z 1000a510 f i MetpParserD:MetpParser.obj
 0001:00009570       ??1CItemData@CMetpParser@hgx@@QAE@XZ 1000a570 f i MetpParserD:MetpParser.obj
 0001:000095e0       ??0iterator@?$_Tree@V?$_Tmap_traits@V?$basic_string@DU?$char_traits@D@std@@V?$allocator@D@2@@std@@PAVCItemData@CMetpParser@hgx@@U?$less@V?$basic_string@DU?$char_traits@D@std@@V?$allocator@D@2@@std@@@2@V?$allocator@U?$pair@$$CBV?$basic_string@DU?$char_traits@D@std@@V?$allocator@D@2@@std@@PAVCItemData@CMetpParser@hgx@@@std@@@2@$0A@@std@@@std@@QAE@ABV012@@Z 1000a5e0 f i MetpParserD:MetpParser.obj
 0001:00009630       ??0const_iterator@?$_Tree@V?$_Tmap_traits@V?$basic_string@DU?$char_traits@D@std@@V?$allocator@D@2@@std@@PAVCItemData@CMetpParser@hgx@@U?$less@V?$basic_string@DU?$char_traits@D@std@@V?$allocator@D@2@@std@@@2@V?$allocator@U?$pair@$$CBV?$basic_string@DU?$char_traits@D@std@@V?$allocator@D@2@@std@@PAVCItemData@CMetpParser@hgx@@@std@@@2@$0A@@std@@@std@@QAE@ABV012@@Z 1000a630 f i MetpParserD:MetpParser.obj
 0001:00009690       ??0?$_Bidit@U?$pair@$$CBV?$basic_string@DU?$char_traits@D@std@@V?$allocator@D@2@@std@@PAVCItemData@CMetpParser@hgx@@@std@@HPBU12@ABU12@@std@@QAE@ABU01@@Z 1000a690 f i MetpParserD:MetpParser.obj
 0001:000096e0       ??0_Iterator_base@std@@QAE@ABV01@@Z 1000a6e0 f i MetpParserD:MetpParser.obj
 0001:00009740       ??4_Iterator_base@std@@QAEAAV01@ABV01@@Z 1000a740 f i MetpParserD:MetpParser.obj
 0001:00009820       ?_Adopt@_Iterator_base@std@@QAEXPBV_Container_base@2@@Z 1000a820 f i MetpParserD:MetpParser.obj
 0001:00009910       ?SetContext@CMetpParser@hgx@@QAEXI@Z 1000a910 f   MetpParserD:MetpParser.obj
 0001:00009950       ?GetContext@CMetpParser@hgx@@QBEIXZ 1000a950 f   MetpParserD:MetpParser.obj
 0001:00009980       ?GetValue@CMetpParser@hgx@@QAE_NPBDAAJ@Z 1000a980 f   MetpParserD:MetpParser.obj
 0001:00009a50       ?GetValue@CMetpParser@hgx@@QAE_NPBDAAPAD@Z 1000aa50 f   MetpParserD:MetpParser.obj
 0001:00009c20       ?GetURL@CMetpParser@hgx@@QAE_NAAPADAAH@Z 1000ac20 f   MetpParserD:MetpParser.obj
 0001:00009cb0       ?GetEncryptURL@CMetpParser@hgx@@QAE_NAAPADAAHPBD_N@Z 1000acb0 f   MetpParserD:MetpParser.obj
 0001:00009db0       ?GetZipURL@CMetpParser@hgx@@QAE_NAAPADAAH@Z 1000adb0 f   MetpParserD:MetpParser.obj
 0001:00009ee0       ?GetTextURL@CMetpParser@hgx@@IAE_NAAPADAAH@Z 1000aee0 f   MetpParserD:MetpParser.obj
 0001:0000a450       ?GetBinaryURL@CMetpParser@hgx@@IAE_NAAPADAAH@Z 1000b450 f   MetpParserD:MetpParser.obj
 0001:0000a820       ?GetHeaderURLLen@CMetpParser@hgx@@IAEHXZ 1000b820 f   MetpParserD:MetpParser.obj
 0001:0000a9a0       ?GetTotalItemLen@CMetpParser@hgx@@IAEHXZ 1000b9a0 f   MetpParserD:MetpParser.obj
 0001:0000ab90       ?UnZipMetp@CMetpParser@hgx@@IAE_NPAPAEPAKPAEK@Z 1000bb90 f   MetpParserD:MetpParser.obj
 0001:0000aed0       ?ZipMetp@CMetpParser@hgx@@IAE_NPAPAEPAKPAEK@Z 1000bed0 f   MetpParserD:MetpParser.obj
 0001:0000b130       ?GetFirstKeyPos@CMetpParser@hgx@@IAEPADPBD@Z 1000c130 f   MetpParserD:MetpParser.obj
 0001:0000b2f0       ?SetItemize@CMetpParser@hgx@@IAE_NXZ 1000c2f0 f   MetpParserD:MetpParser.obj
 0001:0000b6c0       ?Clear@CMetpParser@hgx@@QAEXXZ 1000c6c0 f   MetpParserD:MetpParser.obj
 0001:0000b7a0       ?allocNewItemData@CMetpParser@hgx@@IAEPAVCItemData@12@PBDH@Z 1000c7a0 f   MetpParserD:MetpParser.obj
 0001:0000b8a0       ??0CItemData@CMetpParser@hgx@@QAE@PBDH@Z 1000c8a0 f i MetpParserD:MetpParser.obj
 0001:0000b9a0       ?insertNewKey@CMetpParser@hgx@@IAE_NAAU?$pair@V?$basic_string@DU?$char_traits@D@std@@V?$allocator@D@2@@std@@PAVCItemData@CMetpParser@hgx@@@std@@@Z 1000c9a0 f   MetpParserD:MetpParser.obj
 0001:0000ba90       ??1?$pair@$$CBV?$basic_string@DU?$char_traits@D@std@@V?$allocator@D@2@@std@@PAVCItemData@CMetpParser@hgx@@@std@@QAE@XZ 1000ca90 f i MetpParserD:MetpParser.obj
 0001:0000bad0       ??1?$pair@Viterator@?$_Tree@V?$_Tmap_traits@V?$basic_string@DU?$char_traits@D@std@@V?$allocator@D@2@@std@@PAVCItemData@CMetpParser@hgx@@U?$less@V?$basic_string@DU?$char_traits@D@std@@V?$allocator@D@2@@std@@@2@V?$allocator@U?$pair@$$CBV?$basic_string@DU?$char_traits@D@std@@V?$allocator@D@2@@std@@PAVCItemData@CMetpParser@hgx@@@std@@@2@$0A@@std@@@std@@_N@std@@QAE@XZ 1000cad0 f i MetpParserD:MetpParser.obj
 0001:0000bb10       ?IsConst@CMetpParser@hgx@@UAE_NXZ 1000cb10 f   MetpParserD:MetpParser.obj
 0001:0000bb40       ?ApplyHeader@CMetpParser@hgx@@QAEXPBD0H@Z 1000cb40 f   MetpParserD:MetpParser.obj
 0001:0000bba0       ?c_str@?$basic_string@DU?$char_traits@D@std@@V?$allocator@D@2@@std@@QBEPBDXZ 1000cba0 f i MetpParserD:MetpParser.obj
 0001:0000bbe0       ??0?$map@V?$basic_string@DU?$char_traits@D@std@@V?$allocator@D@2@@std@@PAVCItemData@CMetpParser@hgx@@U?$less@V?$basic_string@DU?$char_traits@D@std@@V?$allocator@D@2@@std@@@2@V?$allocator@U?$pair@$$CBV?$basic_string@DU?$char_traits@D@std@@V?$allocator@D@2@@std@@PAVCItemData@CMetpParser@hgx@@@std@@@2@@std@@QAE@XZ 1000cbe0 f i MetpParserD:MetpParser.obj
 0001:0000bc40       ??1?$_Tree@V?$_Tmap_traits@V?$basic_string@DU?$char_traits@D@std@@V?$allocator@D@2@@std@@PAVCItemData@CMetpParser@hgx@@U?$less@V?$basic_string@DU?$char_traits@D@std@@V?$allocator@D@2@@std@@@2@V?$allocator@U?$pair@$$CBV?$basic_string@DU?$char_traits@D@std@@V?$allocator@D@2@@std@@PAVCItemData@CMetpParser@hgx@@@std@@@2@$0A@@std@@@std@@QAE@XZ 1000cc40 f i MetpParserD:MetpParser.obj
 0001:0000bcc0       ?begin@?$_Tree@V?$_Tmap_traits@V?$basic_string@DU?$char_traits@D@std@@V?$allocator@D@2@@std@@PAVCItemData@CMetpParser@hgx@@U?$less@V?$basic_string@DU?$char_traits@D@std@@V?$allocator@D@2@@std@@@2@V?$allocator@U?$pair@$$CBV?$basic_string@DU?$char_traits@D@std@@V?$allocator@D@2@@std@@PAVCItemData@CMetpParser@hgx@@@std@@@2@$0A@@std@@@std@@QAE?AViterator@12@XZ 1000ccc0 f i MetpParserD:MetpParser.obj
 0001:0000bd30       ?end@?$_Tree@V?$_Tmap_traits@V?$basic_string@DU?$char_traits@D@std@@V?$allocator@D@2@@std@@PAVCItemData@CMetpParser@hgx@@U?$less@V?$basic_string@DU?$char_traits@D@std@@V?$allocator@D@2@@std@@@2@V?$allocator@U?$pair@$$CBV?$basic_string@DU?$char_traits@D@std@@V?$allocator@D@2@@std@@PAVCItemData@CMetpParser@hgx@@@std@@@2@$0A@@std@@@std@@QAE?AViterator@12@XZ 1000cd30 f i MetpParserD:MetpParser.obj
 0001:0000bda0       ?insert@?$_Tree@V?$_Tmap_traits@V?$basic_string@DU?$char_traits@D@std@@V?$allocator@D@2@@std@@PAVCItemData@CMetpParser@hgx@@U?$less@V?$basic_string@DU?$char_traits@D@std@@V?$allocator@D@2@@std@@@2@V?$allocator@U?$pair@$$CBV?$basic_string@DU?$char_traits@D@std@@V?$allocator@D@2@@std@@PAVCItemData@CMetpParser@hgx@@@std@@@2@$0A@@std@@@std@@QAE?AU?$pair@Viterator@?$_Tree@V?$_Tmap_traits@V?$basic_string@DU?$char_traits@D@std@@V?$allocator@D@2@@std@@PAVCItemData@CMetpParser@hgx@@U?$less@V?$basic_string@DU?$char_traits@D@std@@V?$allocator@D@2@@std@@@2@V?$allocator@U?$pair@$$CBV?$basic_string@DU?$char_traits@D@std@@V?$allocator@D@2@@std@@PAVCItemData@CMetpParser@hgx@@@std@@@2@$0A@@std@@@std@@_N@2@ABU?$pair@$$CBV?$basic_string@DU?$char_traits@D@std@@V?$allocator@D@2@@std@@PAVCItemData@CMetpParser@hgx@@@2@@Z 1000cda0 f i MetpParserD:MetpParser.obj
 0001:0000c160       ?erase@?$_Tree@V?$_Tmap_traits@V?$basic_string@DU?$char_traits@D@std@@V?$allocator@D@2@@std@@PAVCItemData@CMetpParser@hgx@@U?$less@V?$basic_string@DU?$char_traits@D@std@@V?$allocator@D@2@@std@@@2@V?$allocator@U?$pair@$$CBV?$basic_string@DU?$char_traits@D@std@@V?$allocator@D@2@@std@@PAVCItemData@CMetpParser@hgx@@@std@@@2@$0A@@std@@@std@@QAE?AViterator@12@V312@@Z 1000d160 f i MetpParserD:MetpParser.obj
 0001:0000c870       ?clear@?$_Tree@V?$_Tmap_traits@V?$basic_string@DU?$char_traits@D@std@@V?$allocator@D@2@@std@@PAVCItemData@CMetpParser@hgx@@U?$less@V?$basic_string@DU?$char_traits@D@std@@V?$allocator@D@2@@std@@@2@V?$allocator@U?$pair@$$CBV?$basic_string@DU?$char_traits@D@std@@V?$allocator@D@2@@std@@PAVCItemData@CMetpParser@hgx@@@std@@@2@$0A@@std@@@std@@QAEXXZ 1000d870 f i MetpParserD:MetpParser.obj
 0001:0000c910       ?find@?$_Tree@V?$_Tmap_traits@V?$basic_string@DU?$char_traits@D@std@@V?$allocator@D@2@@std@@PAVCItemData@CMetpParser@hgx@@U?$less@V?$basic_string@DU?$char_traits@D@std@@V?$allocator@D@2@@std@@@2@V?$allocator@U?$pair@$$CBV?$basic_string@DU?$char_traits@D@std@@V?$allocator@D@2@@std@@PAVCItemData@CMetpParser@hgx@@@std@@@2@$0A@@std@@@std@@QAE?AViterator@12@ABV?$basic_string@DU?$char_traits@D@std@@V?$allocator@D@2@@2@@Z 1000d910 f i MetpParserD:MetpParser.obj
 0001:0000cb10       ??Citerator@?$_Tree@V?$_Tmap_traits@V?$basic_string@DU?$char_traits@D@std@@V?$allocator@D@2@@std@@PAVCItemData@CMetpParser@hgx@@U?$less@V?$basic_string@DU?$char_traits@D@std@@V?$allocator@D@2@@std@@@2@V?$allocator@U?$pair@$$CBV?$basic_string@DU?$char_traits@D@std@@V?$allocator@D@2@@std@@PAVCItemData@CMetpParser@hgx@@@std@@@2@$0A@@std@@@std@@QBEPAU?$pair@$$CBV?$basic_string@DU?$char_traits@D@std@@V?$allocator@D@2@@std@@PAVCItemData@CMetpParser@hgx@@@2@XZ 1000db10 f i MetpParserD:MetpParser.obj
 0001:0000cb50       ??Eiterator@?$_Tree@V?$_Tmap_traits@V?$basic_string@DU?$char_traits@D@std@@V?$allocator@D@2@@std@@PAVCItemData@CMetpParser@hgx@@U?$less@V?$basic_string@DU?$char_traits@D@std@@V?$allocator@D@2@@std@@@2@V?$allocator@U?$pair@$$CBV?$basic_string@DU?$char_traits@D@std@@V?$allocator@D@2@@std@@PAVCItemData@CMetpParser@hgx@@@std@@@2@$0A@@std@@@std@@QAEAAV012@XZ 1000db50 f i MetpParserD:MetpParser.obj
 0001:0000cba0       ??Eiterator@?$_Tree@V?$_Tmap_traits@V?$basic_string@DU?$char_traits@D@std@@V?$allocator@D@2@@std@@PAVCItemData@CMetpParser@hgx@@U?$less@V?$basic_string@DU?$char_traits@D@std@@V?$allocator@D@2@@std@@@2@V?$allocator@U?$pair@$$CBV?$basic_string@DU?$char_traits@D@std@@V?$allocator@D@2@@std@@PAVCItemData@CMetpParser@hgx@@@std@@@2@$0A@@std@@@std@@QAE?AV012@H@Z 1000dba0 f i MetpParserD:MetpParser.obj
 0001:0000cc80       ??9const_iterator@?$_Tree@V?$_Tmap_traits@V?$basic_string@DU?$char_traits@D@std@@V?$allocator@D@2@@std@@PAVCItemData@CMetpParser@hgx@@U?$less@V?$basic_string@DU?$char_traits@D@std@@V?$allocator@D@2@@std@@@2@V?$allocator@U?$pair@$$CBV?$basic_string@DU?$char_traits@D@std@@V?$allocator@D@2@@std@@PAVCItemData@CMetpParser@hgx@@@std@@@2@$0A@@std@@@std@@QBE_NABV012@@Z 1000dc80 f i MetpParserD:MetpParser.obj
 0001:0000ccd0       ??0?$pair@V?$basic_string@DU?$char_traits@D@std@@V?$allocator@D@2@@std@@PAVCItemData@CMetpParser@hgx@@@std@@QAE@ABV?$basic_string@DU?$char_traits@D@std@@V?$allocator@D@2@@1@ABQAVCItemData@CMetpParser@hgx@@@Z 1000dcd0 f i MetpParserD:MetpParser.obj
 0001:0000cd30       ??0?$basic_string@DU?$char_traits@D@std@@V?$allocator@D@2@@std@@QAE@ABV01@@Z 1000dd30 f i MetpParserD:MetpParser.obj
 0001:0000cdd0       ??0?$cNodeDelete@U?$pair@V?$basic_string@DU?$char_traits@D@std@@V?$allocator@D@2@@std@@PAVCItemData@CMetpParser@hgx@@@std@@$00@@QAE@XZ 1000ddd0 f i MetpParserD:MetpParser.obj
 0001:0000ce00       ??1?$_Tree_val@V?$_Tmap_traits@V?$basic_string@DU?$char_traits@D@std@@V?$allocator@D@2@@std@@PAVCItemData@CMetpParser@hgx@@U?$less@V?$basic_string@DU?$char_traits@D@std@@V?$allocator@D@2@@std@@@2@V?$allocator@U?$pair@$$CBV?$basic_string@DU?$char_traits@D@std@@V?$allocator@D@2@@std@@PAVCItemData@CMetpParser@hgx@@@std@@@2@$0A@@std@@@std@@QAE@XZ 1000de00 f i MetpParserD:MetpParser.obj
 0001:0000ce40       ??1?$_Tree_ptr@V?$_Tmap_traits@V?$basic_string@DU?$char_traits@D@std@@V?$allocator@D@2@@std@@PAVCItemData@CMetpParser@hgx@@U?$less@V?$basic_string@DU?$char_traits@D@std@@V?$allocator@D@2@@std@@@2@V?$allocator@U?$pair@$$CBV?$basic_string@DU?$char_traits@D@std@@V?$allocator@D@2@@std@@PAVCItemData@CMetpParser@hgx@@@std@@@2@$0A@@std@@@std@@QAE@XZ 1000de40 f i MetpParserD:MetpParser.obj
 0001:0000ce80       ??1?$_Tree_nod@V?$_Tmap_traits@V?$basic_string@DU?$char_traits@D@std@@V?$allocator@D@2@@std@@PAVCItemData@CMetpParser@hgx@@U?$less@V?$basic_string@DU?$char_traits@D@std@@V?$allocator@D@2@@std@@@2@V?$allocator@U?$pair@$$CBV?$basic_string@DU?$char_traits@D@std@@V?$allocator@D@2@@std@@PAVCItemData@CMetpParser@hgx@@@std@@@2@$0A@@std@@@std@@QAE@XZ 1000de80 f i MetpParserD:MetpParser.obj
 0001:0000cec0       ??1?$_Tmap_traits@V?$basic_string@DU?$char_traits@D@std@@V?$allocator@D@2@@std@@PAVCItemData@CMetpParser@hgx@@U?$less@V?$basic_string@DU?$char_traits@D@std@@V?$allocator@D@2@@std@@@2@V?$allocator@U?$pair@$$CBV?$basic_string@DU?$char_traits@D@std@@V?$allocator@D@2@@std@@PAVCItemData@CMetpParser@hgx@@@std@@@2@$0A@@std@@QAE@XZ 1000dec0 f i MetpParserD:MetpParser.obj
 0001:0000cf00       ??0?$_String_val@DV?$allocator@D@std@@@std@@QAE@ABV01@@Z 1000df00 f i MetpParserD:MetpParser.obj
 0001:0000cf70       ?_Color@?$_Tree@V?$_Tmap_traits@V?$basic_string@DU?$char_traits@D@std@@V?$allocator@D@2@@std@@PAVCItemData@CMetpParser@hgx@@U?$less@V?$basic_string@DU?$char_traits@D@std@@V?$allocator@D@2@@std@@@2@V?$allocator@U?$pair@$$CBV?$basic_string@DU?$char_traits@D@std@@V?$allocator@D@2@@std@@PAVCItemData@CMetpParser@hgx@@@std@@@2@$0A@@std@@@std@@KGAADPAU_Node@?$_Tree_nod@V?$_Tmap_traits@V?$basic_string@DU?$char_traits@D@std@@V?$allocator@D@2@@std@@PAVCItemData@CMetpParser@hgx@@U?$less@V?$basic_string@DU?$char_traits@D@std@@V?$allocator@D@2@@std@@@2@V?$allocator@U?$pair@$$CBV?$basic_string@DU?$char_traits@D@std@@V?$allocator@D@2@@std@@PAVCItemData@CMetpParser@hgx@@@std@@@2@$0A@@std@@@2@@Z 1000df70 f i MetpParserD:MetpParser.obj
 0001:0000cfa0       ?_Isnil@?$_Tree@V?$_Tmap_traits@V?$basic_string@DU?$char_traits@D@std@@V?$allocator@D@2@@std@@PAVCItemData@CMetpParser@hgx@@U?$less@V?$basic_string@DU?$char_traits@D@std@@V?$allocator@D@2@@std@@@2@V?$allocator@U?$pair@$$CBV?$basic_string@DU?$char_traits@D@std@@V?$allocator@D@2@@std@@PAVCItemData@CMetpParser@hgx@@@std@@@2@$0A@@std@@@std@@KGAADPAU_Node@?$_Tree_nod@V?$_Tmap_traits@V?$basic_string@DU?$char_traits@D@std@@V?$allocator@D@2@@std@@PAVCItemData@CMetpParser@hgx@@U?$less@V?$basic_string@DU?$char_traits@D@std@@V?$allocator@D@2@@std@@@2@V?$allocator@U?$pair@$$CBV?$basic_string@DU?$char_traits@D@std@@V?$allocator@D@2@@std@@PAVCItemData@CMetpParser@hgx@@@std@@@2@$0A@@std@@@2@@Z 1000dfa0 f i MetpParserD:MetpParser.obj
 0001:0000cfd0       ?_Key@?$_Tree@V?$_Tmap_traits@V?$basic_string@DU?$char_traits@D@std@@V?$allocator@D@2@@std@@PAVCItemData@CMetpParser@hgx@@U?$less@V?$basic_string@DU?$char_traits@D@std@@V?$allocator@D@2@@std@@@2@V?$allocator@U?$pair@$$CBV?$basic_string@DU?$char_traits@D@std@@V?$allocator@D@2@@std@@PAVCItemData@CMetpParser@hgx@@@std@@@2@$0A@@std@@@std@@KGABV?$basic_string@DU?$char_traits@D@std@@V?$allocator@D@2@@2@PAU_Node@?$_Tree_nod@V?$_Tmap_traits@V?$basic_string@DU?$char_traits@D@std@@V?$allocator@D@2@@std@@PAVCItemData@CMetpParser@hgx@@U?$less@V?$basic_string@DU?$char_traits@D@std@@V?$allocator@D@2@@std@@@2@V?$allocator@U?$pair@$$CBV?$basic_string@DU?$char_traits@D@std@@V?$allocator@D@2@@std@@PAVCItemData@CMetpParser@hgx@@@std@@@2@$0A@@std@@@2@@Z 1000dfd0 f i MetpParserD:MetpParser.obj
 0001:0000d020       ?_Left@?$_Tree@V?$_Tmap_traits@V?$basic_string@DU?$char_traits@D@std@@V?$allocator@D@2@@std@@PAVCItemData@CMetpParser@hgx@@U?$less@V?$basic_string@DU?$char_traits@D@std@@V?$allocator@D@2@@std@@@2@V?$allocator@U?$pair@$$CBV?$basic_string@DU?$char_traits@D@std@@V?$allocator@D@2@@std@@PAVCItemData@CMetpParser@hgx@@@std@@@2@$0A@@std@@@std@@KGAAPAU_Node@?$_Tree_nod@V?$_Tmap_traits@V?$basic_string@DU?$char_traits@D@std@@V?$allocator@D@2@@std@@PAVCItemData@CMetpParser@hgx@@U?$less@V?$basic_string@DU?$char_traits@D@std@@V?$allocator@D@2@@std@@@2@V?$allocator@U?$pair@$$CBV?$basic_string@DU?$char_traits@D@std@@V?$allocator@D@2@@std@@PAVCItemData@CMetpParser@hgx@@@std@@@2@$0A@@std@@@2@PAU342@@Z 1000e020 f i MetpParserD:MetpParser.obj
 0001:0000d050       ?_Parent@?$_Tree@V?$_Tmap_traits@V?$basic_string@DU?$char_traits@D@std@@V?$allocator@D@2@@std@@PAVCItemData@CMetpParser@hgx@@U?$less@V?$basic_string@DU?$char_traits@D@std@@V?$allocator@D@2@@std@@@2@V?$allocator@U?$pair@$$CBV?$basic_string@DU?$char_traits@D@std@@V?$allocator@D@2@@std@@PAVCItemData@CMetpParser@hgx@@@std@@@2@$0A@@std@@@std@@KGAAPAU_Node@?$_Tree_nod@V?$_Tmap_traits@V?$basic_string@DU?$char_traits@D@std@@V?$allocator@D@2@@std@@PAVCItemData@CMetpParser@hgx@@U?$less@V?$basic_string@DU?$char_traits@D@std@@V?$allocator@D@2@@std@@@2@V?$allocator@U?$pair@$$CBV?$basic_string@DU?$char_traits@D@std@@V?$allocator@D@2@@std@@PAVCItemData@CMetpParser@hgx@@@std@@@2@$0A@@std@@@2@PAU342@@Z 1000e050 f i MetpParserD:MetpParser.obj
 0001:0000d080       ?_Right@?$_Tree@V?$_Tmap_traits@V?$basic_string@DU?$char_traits@D@std@@V?$allocator@D@2@@std@@PAVCItemData@CMetpParser@hgx@@U?$less@V?$basic_string@DU?$char_traits@D@std@@V?$allocator@D@2@@std@@@2@V?$allocator@U?$pair@$$CBV?$basic_string@DU?$char_traits@D@std@@V?$allocator@D@2@@std@@PAVCItemData@CMetpParser@hgx@@@std@@@2@$0A@@std@@@std@@KGAAPAU_Node@?$_Tree_nod@V?$_Tmap_traits@V?$basic_string@DU?$char_traits@D@std@@V?$allocator@D@2@@std@@PAVCItemData@CMetpParser@hgx@@U?$less@V?$basic_string@DU?$char_traits@D@std@@V?$allocator@D@2@@std@@@2@V?$allocator@U?$pair@$$CBV?$basic_string@DU?$char_traits@D@std@@V?$allocator@D@2@@std@@PAVCItemData@CMetpParser@hgx@@@std@@@2@$0A@@std@@@2@PAU342@@Z 1000e080 f i MetpParserD:MetpParser.obj
 0001:0000d0b0       ??0?$_Tree@V?$_Tmap_traits@V?$basic_string@DU?$char_traits@D@std@@V?$allocator@D@2@@std@@PAVCItemData@CMetpParser@hgx@@U?$less@V?$basic_string@DU?$char_traits@D@std@@V?$allocator@D@2@@std@@@2@V?$allocator@U?$pair@$$CBV?$basic_string@DU?$char_traits@D@std@@V?$allocator@D@2@@std@@PAVCItemData@CMetpParser@hgx@@@std@@@2@$0A@@std@@@std@@QAE@ABU?$less@V?$basic_string@DU?$char_traits@D@std@@V?$allocator@D@2@@std@@@1@ABV?$allocator@U?$pair@$$CBV?$basic_string@DU?$char_traits@D@std@@V?$allocator@D@2@@std@@PAVCItemData@CMetpParser@hgx@@@std@@@1@@Z 1000e0b0 f i MetpParserD:MetpParser.obj
 0001:0000d150       ?lower_bound@?$_Tree@V?$_Tmap_traits@V?$basic_string@DU?$char_traits@D@std@@V?$allocator@D@2@@std@@PAVCItemData@CMetpParser@hgx@@U?$less@V?$basic_string@DU?$char_traits@D@std@@V?$allocator@D@2@@std@@@2@V?$allocator@U?$pair@$$CBV?$basic_string@DU?$char_traits@D@std@@V?$allocator@D@2@@std@@PAVCItemData@CMetpParser@hgx@@@std@@@2@$0A@@std@@@std@@QAE?AViterator@12@ABV?$basic_string@DU?$char_traits@D@std@@V?$allocator@D@2@@2@@Z 1000e150 f i MetpParserD:MetpParser.obj
 0001:0000d1c0       ?_Erase@?$_Tree@V?$_Tmap_traits@V?$basic_string@DU?$char_traits@D@std@@V?$allocator@D@2@@std@@PAVCItemData@CMetpParser@hgx@@U?$less@V?$basic_string@DU?$char_traits@D@std@@V?$allocator@D@2@@std@@@2@V?$allocator@U?$pair@$$CBV?$basic_string@DU?$char_traits@D@std@@V?$allocator@D@2@@std@@PAVCItemData@CMetpParser@hgx@@@std@@@2@$0A@@std@@@std@@IAEXPAU_Node@?$_Tree_nod@V?$_Tmap_traits@V?$basic_string@DU?$char_traits@D@std@@V?$allocator@D@2@@std@@PAVCItemData@CMetpParser@hgx@@U?$less@V?$basic_string@DU?$char_traits@D@std@@V?$allocator@D@2@@std@@@2@V?$allocator@U?$pair@$$CBV?$basic_string@DU?$char_traits@D@std@@V?$allocator@D@2@@std@@PAVCItemData@CMetpParser@hgx@@@std@@@2@$0A@@std@@@2@@Z 1000e1c0 f i MetpParserD:MetpParser.obj
 0001:0000d260       ?_Insert@?$_Tree@V?$_Tmap_traits@V?$basic_string@DU?$char_traits@D@std@@V?$allocator@D@2@@std@@PAVCItemData@CMetpParser@hgx@@U?$less@V?$basic_string@DU?$char_traits@D@std@@V?$allocator@D@2@@std@@@2@V?$allocator@U?$pair@$$CBV?$basic_string@DU?$char_traits@D@std@@V?$allocator@D@2@@std@@PAVCItemData@CMetpParser@hgx@@@std@@@2@$0A@@std@@@std@@IAE?AViterator@12@_NPAU_Node@?$_Tree_nod@V?$_Tmap_traits@V?$basic_string@DU?$char_traits@D@std@@V?$allocator@D@2@@std@@PAVCItemData@CMetpParser@hgx@@U?$less@V?$basic_string@DU?$char_traits@D@std@@V?$allocator@D@2@@std@@@2@V?$allocator@U?$pair@$$CBV?$basic_string@DU?$char_traits@D@std@@V?$allocator@D@2@@std@@PAVCItemData@CMetpParser@hgx@@@std@@@2@$0A@@std@@@2@ABU?$pair@$$CBV?$basic_string@DU?$char_traits@D@std@@V?$allocator@D@2@@std@@PAVCItemData@CMetpParser@hgx@@@2@@Z 1000e260 f i MetpParserD:MetpParser.obj
 0001:0000d680       ??0length_error@std@@QAE@ABV?$basic_string@DU?$char_traits@D@std@@V?$allocator@D@2@@1@@Z 1000e680 f i MetpParserD:MetpParser.obj
 0001:0000d6e0       ??0logic_error@std@@QAE@ABV?$basic_string@DU?$char_traits@D@std@@V?$allocator@D@2@@1@@Z 1000e6e0 f i MetpParserD:MetpParser.obj
 0001:0000d780       ?what@logic_error@std@@UBEPBDXZ 1000e780 f i MetpParserD:MetpParser.obj
 0001:0000d7d0       ??_Glogic_error@std@@UAEPAXI@Z 1000e7d0 f i MetpParserD:MetpParser.obj
 0001:0000d7d0       ??_Elogic_error@std@@UAEPAXI@Z 1000e7d0 f i MetpParserD:MetpParser.obj
 0001:0000d830       ??1logic_error@std@@UAE@XZ 1000e830 f i MetpParserD:MetpParser.obj
 0001:0000d890       ??1length_error@std@@UAE@XZ 1000e890 f i MetpParserD:MetpParser.obj
 0001:0000d8e0       ??_Elength_error@std@@UAEPAXI@Z 1000e8e0 f i MetpParserD:MetpParser.obj
 0001:0000d8e0       ??_Glength_error@std@@UAEPAXI@Z 1000e8e0 f i MetpParserD:MetpParser.obj
 0001:0000d940       ??0logic_error@std@@QAE@ABV01@@Z 1000e940 f i MetpParserD:MetpParser.obj
 0001:0000d9e0       ?_Lmost@?$_Tree@V?$_Tmap_traits@V?$basic_string@DU?$char_traits@D@std@@V?$allocator@D@2@@std@@PAVCItemData@CMetpParser@hgx@@U?$less@V?$basic_string@DU?$char_traits@D@std@@V?$allocator@D@2@@std@@@2@V?$allocator@U?$pair@$$CBV?$basic_string@DU?$char_traits@D@std@@V?$allocator@D@2@@std@@PAVCItemData@CMetpParser@hgx@@@std@@@2@$0A@@std@@@std@@IBEAAPAU_Node@?$_Tree_nod@V?$_Tmap_traits@V?$basic_string@DU?$char_traits@D@std@@V?$allocator@D@2@@std@@PAVCItemData@CMetpParser@hgx@@U?$less@V?$basic_string@DU?$char_traits@D@std@@V?$allocator@D@2@@std@@@2@V?$allocator@U?$pair@$$CBV?$basic_string@DU?$char_traits@D@std@@V?$allocator@D@2@@std@@PAVCItemData@CMetpParser@hgx@@@std@@@2@$0A@@std@@@2@XZ 1000e9e0 f i MetpParserD:MetpParser.obj
 0001:0000da30       ?_Lrotate@?$_Tree@V?$_Tmap_traits@V?$basic_string@DU?$char_traits@D@std@@V?$allocator@D@2@@std@@PAVCItemData@CMetpParser@hgx@@U?$less@V?$basic_string@DU?$char_traits@D@std@@V?$allocator@D@2@@std@@@2@V?$allocator@U?$pair@$$CBV?$basic_string@DU?$char_traits@D@std@@V?$allocator@D@2@@std@@PAVCItemData@CMetpParser@hgx@@@std@@@2@$0A@@std@@@std@@IAEXPAU_Node@?$_Tree_nod@V?$_Tmap_traits@V?$basic_string@DU?$char_traits@D@std@@V?$allocator@D@2@@std@@PAVCItemData@CMetpParser@hgx@@U?$less@V?$basic_string@DU?$char_traits@D@std@@V?$allocator@D@2@@std@@@2@V?$allocator@U?$pair@$$CBV?$basic_string@DU?$char_traits@D@std@@V?$allocator@D@2@@std@@PAVCItemData@CMetpParser@hgx@@@std@@@2@$0A@@std@@@2@@Z 1000ea30 f i MetpParserD:MetpParser.obj
 0001:0000db60       ?_Max@?$_Tree@V?$_Tmap_traits@V?$basic_string@DU?$char_traits@D@std@@V?$allocator@D@2@@std@@PAVCItemData@CMetpParser@hgx@@U?$less@V?$basic_string@DU?$char_traits@D@std@@V?$allocator@D@2@@std@@@2@V?$allocator@U?$pair@$$CBV?$basic_string@DU?$char_traits@D@std@@V?$allocator@D@2@@std@@PAVCItemData@CMetpParser@hgx@@@std@@@2@$0A@@std@@@std@@KGPAU_Node@?$_Tree_nod@V?$_Tmap_traits@V?$basic_string@DU?$char_traits@D@std@@V?$allocator@D@2@@std@@PAVCItemData@CMetpParser@hgx@@U?$less@V?$basic_string@DU?$char_traits@D@std@@V?$allocator@D@2@@std@@@2@V?$allocator@U?$pair@$$CBV?$basic_string@DU?$char_traits@D@std@@V?$allocator@D@2@@std@@PAVCItemData@CMetpParser@hgx@@@std@@@2@$0A@@std@@@2@PAU342@@Z 1000eb60 f i MetpParserD:MetpParser.obj
 0001:0000dbc0       ?_Min@?$_Tree@V?$_Tmap_traits@V?$basic_string@DU?$char_traits@D@std@@V?$allocator@D@2@@std@@PAVCItemData@CMetpParser@hgx@@U?$less@V?$basic_string@DU?$char_traits@D@std@@V?$allocator@D@2@@std@@@2@V?$allocator@U?$pair@$$CBV?$basic_string@DU?$char_traits@D@std@@V?$allocator@D@2@@std@@PAVCItemData@CMetpParser@hgx@@@std@@@2@$0A@@std@@@std@@KGPAU_Node@?$_Tree_nod@V?$_Tmap_traits@V?$basic_string@DU?$char_traits@D@std@@V?$allocator@D@2@@std@@PAVCItemData@CMetpParser@hgx@@U?$less@V?$basic_string@DU?$char_traits@D@std@@V?$allocator@D@2@@std@@@2@V?$allocator@U?$pair@$$CBV?$basic_string@DU?$char_traits@D@std@@V?$allocator@D@2@@std@@PAVCItemData@CMetpParser@hgx@@@std@@@2@$0A@@std@@@2@PAU342@@Z 1000ebc0 f i MetpParserD:MetpParser.obj
 0001:0000dc20       ?_Rmost@?$_Tree@V?$_Tmap_traits@V?$basic_string@DU?$char_traits@D@std@@V?$allocator@D@2@@std@@PAVCItemData@CMetpParser@hgx@@U?$less@V?$basic_string@DU?$char_traits@D@std@@V?$allocator@D@2@@std@@@2@V?$allocator@U?$pair@$$CBV?$basic_string@DU?$char_traits@D@std@@V?$allocator@D@2@@std@@PAVCItemData@CMetpParser@hgx@@@std@@@2@$0A@@std@@@std@@IBEAAPAU_Node@?$_Tree_nod@V?$_Tmap_traits@V?$basic_string@DU?$char_traits@D@std@@V?$allocator@D@2@@std@@PAVCItemData@CMetpParser@hgx@@U?$less@V?$basic_string@DU?$char_traits@D@std@@V?$allocator@D@2@@std@@@2@V?$allocator@U?$pair@$$CBV?$basic_string@DU?$char_traits@D@std@@V?$allocator@D@2@@std@@PAVCItemData@CMetpParser@hgx@@@std@@@2@$0A@@std@@@2@XZ 1000ec20 f i MetpParserD:MetpParser.obj
 0001:0000dc70       ?_Root@?$_Tree@V?$_Tmap_traits@V?$basic_string@DU?$char_traits@D@std@@V?$allocator@D@2@@std@@PAVCItemData@CMetpParser@hgx@@U?$less@V?$basic_string@DU?$char_traits@D@std@@V?$allocator@D@2@@std@@@2@V?$allocator@U?$pair@$$CBV?$basic_string@DU?$char_traits@D@std@@V?$allocator@D@2@@std@@PAVCItemData@CMetpParser@hgx@@@std@@@2@$0A@@std@@@std@@IBEAAPAU_Node@?$_Tree_nod@V?$_Tmap_traits@V?$basic_string@DU?$char_traits@D@std@@V?$allocator@D@2@@std@@PAVCItemData@CMetpParser@hgx@@U?$less@V?$basic_string@DU?$char_traits@D@std@@V?$allocator@D@2@@std@@@2@V?$allocator@U?$pair@$$CBV?$basic_string@DU?$char_traits@D@std@@V?$allocator@D@2@@std@@PAVCItemData@CMetpParser@hgx@@@std@@@2@$0A@@std@@@2@XZ 1000ec70 f i MetpParserD:MetpParser.obj
 0001:0000dcc0       ?_Rrotate@?$_Tree@V?$_Tmap_traits@V?$basic_string@DU?$char_traits@D@std@@V?$allocator@D@2@@std@@PAVCItemData@CMetpParser@hgx@@U?$less@V?$basic_string@DU?$char_traits@D@std@@V?$allocator@D@2@@std@@@2@V?$allocator@U?$pair@$$CBV?$basic_string@DU?$char_traits@D@std@@V?$allocator@D@2@@std@@PAVCItemData@CMetpParser@hgx@@@std@@@2@$0A@@std@@@std@@IAEXPAU_Node@?$_Tree_nod@V?$_Tmap_traits@V?$basic_string@DU?$char_traits@D@std@@V?$allocator@D@2@@std@@PAVCItemData@CMetpParser@hgx@@U?$less@V?$basic_string@DU?$char_traits@D@std@@V?$allocator@D@2@@std@@@2@V?$allocator@U?$pair@$$CBV?$basic_string@DU?$char_traits@D@std@@V?$allocator@D@2@@std@@PAVCItemData@CMetpParser@hgx@@@std@@@2@$0A@@std@@@2@@Z 1000ecc0 f i MetpParserD:MetpParser.obj
 0001:0000ddf0       ?_Orphan_ptr@?$_Tree@V?$_Tmap_traits@V?$basic_string@DU?$char_traits@D@std@@V?$allocator@D@2@@std@@PAVCItemData@CMetpParser@hgx@@U?$less@V?$basic_string@DU?$char_traits@D@std@@V?$allocator@D@2@@std@@@2@V?$allocator@U?$pair@$$CBV?$basic_string@DU?$char_traits@D@std@@V?$allocator@D@2@@std@@PAVCItemData@CMetpParser@hgx@@@std@@@2@$0A@@std@@@std@@IBEXAAV12@PAU_Node@?$_Tree_nod@V?$_Tmap_traits@V?$basic_string@DU?$char_traits@D@std@@V?$allocator@D@2@@std@@PAVCItemData@CMetpParser@hgx@@U?$less@V?$basic_string@DU?$char_traits@D@std@@V?$allocator@D@2@@std@@@2@V?$allocator@U?$pair@$$CBV?$basic_string@DU?$char_traits@D@std@@V?$allocator@D@2@@std@@PAVCItemData@CMetpParser@hgx@@@std@@@2@$0A@@std@@@2@@Z 1000edf0 f i MetpParserD:MetpParser.obj
 0001:0000dec0       ?_Tidy@?$_Tree@V?$_Tmap_traits@V?$basic_string@DU?$char_traits@D@std@@V?$allocator@D@2@@std@@PAVCItemData@CMetpParser@hgx@@U?$less@V?$basic_string@DU?$char_traits@D@std@@V?$allocator@D@2@@std@@@2@V?$allocator@U?$pair@$$CBV?$basic_string@DU?$char_traits@D@std@@V?$allocator@D@2@@std@@PAVCItemData@CMetpParser@hgx@@@std@@@2@$0A@@std@@@std@@IAEXXZ 1000eec0 f i MetpParserD:MetpParser.obj
 0001:0000e000       ?_Kfn@?$_Tmap_traits@V?$basic_string@DU?$char_traits@D@std@@V?$allocator@D@2@@std@@PAVCItemData@CMetpParser@hgx@@U?$less@V?$basic_string@DU?$char_traits@D@std@@V?$allocator@D@2@@std@@@2@V?$allocator@U?$pair@$$CBV?$basic_string@DU?$char_traits@D@std@@V?$allocator@D@2@@std@@PAVCItemData@CMetpParser@hgx@@@std@@@2@$0A@@std@@SGABV?$basic_string@DU?$char_traits@D@std@@V?$allocator@D@2@@2@ABU?$pair@$$CBV?$basic_string@DU?$char_traits@D@std@@V?$allocator@D@2@@std@@PAVCItemData@CMetpParser@hgx@@@2@@Z 1000f000 f i MetpParserD:MetpParser.obj
 0001:0000e030       ??0?$allocator@U?$pair@$$CBV?$basic_string@DU?$char_traits@D@std@@V?$allocator@D@2@@std@@PAVCItemData@CMetpParser@hgx@@@std@@@std@@QAE@XZ 1000f030 f i MetpParserD:MetpParser.obj
 0001:0000e060       ?deallocate@?$allocator@U_Node@?$_Tree_nod@V?$_Tmap_traits@V?$basic_string@DU?$char_traits@D@std@@V?$allocator@D@2@@std@@PAVCItemData@CMetpParser@hgx@@U?$less@V?$basic_string@DU?$char_traits@D@std@@V?$allocator@D@2@@std@@@2@V?$allocator@U?$pair@$$CBV?$basic_string@DU?$char_traits@D@std@@V?$allocator@D@2@@std@@PAVCItemData@CMetpParser@hgx@@@std@@@2@$0A@@std@@@std@@@std@@QAEXPAU_Node@?$_Tree_nod@V?$_Tmap_traits@V?$basic_string@DU?$char_traits@D@std@@V?$allocator@D@2@@std@@PAVCItemData@CMetpParser@hgx@@U?$less@V?$basic_string@DU?$char_traits@D@std@@V?$allocator@D@2@@std@@@2@V?$allocator@U?$pair@$$CBV?$basic_string@DU?$char_traits@D@std@@V?$allocator@D@2@@std@@PAVCItemData@CMetpParser@hgx@@@std@@@2@$0A@@std@@@2@I@Z 1000f060 f i MetpParserD:MetpParser.obj
 0001:0000e0b0       ?destroy@?$allocator@U_Node@?$_Tree_nod@V?$_Tmap_traits@V?$basic_string@DU?$char_traits@D@std@@V?$allocator@D@2@@std@@PAVCItemData@CMetpParser@hgx@@U?$less@V?$basic_string@DU?$char_traits@D@std@@V?$allocator@D@2@@std@@@2@V?$allocator@U?$pair@$$CBV?$basic_string@DU?$char_traits@D@std@@V?$allocator@D@2@@std@@PAVCItemData@CMetpParser@hgx@@@std@@@2@$0A@@std@@@std@@@std@@QAEXPAU_Node@?$_Tree_nod@V?$_Tmap_traits@V?$basic_string@DU?$char_traits@D@std@@V?$allocator@D@2@@std@@PAVCItemData@CMetpParser@hgx@@U?$less@V?$basic_string@DU?$char_traits@D@std@@V?$allocator@D@2@@std@@@2@V?$allocator@U?$pair@$$CBV?$basic_string@DU?$char_traits@D@std@@V?$allocator@D@2@@std@@PAVCItemData@CMetpParser@hgx@@@std@@@2@$0A@@std@@@2@@Z 1000f0b0 f i MetpParserD:MetpParser.obj
 0001:0000e100       ??0iterator@?$_Tree@V?$_Tmap_traits@V?$basic_string@DU?$char_traits@D@std@@V?$allocator@D@2@@std@@PAVCItemData@CMetpParser@hgx@@U?$less@V?$basic_string@DU?$char_traits@D@std@@V?$allocator@D@2@@std@@@2@V?$allocator@U?$pair@$$CBV?$basic_string@DU?$char_traits@D@std@@V?$allocator@D@2@@std@@PAVCItemData@CMetpParser@hgx@@@std@@@2@$0A@@std@@@std@@QAE@PAU_Node@?$_Tree_nod@V?$_Tmap_traits@V?$basic_string@DU?$char_traits@D@std@@V?$allocator@D@2@@std@@PAVCItemData@CMetpParser@hgx@@U?$less@V?$basic_string@DU?$char_traits@D@std@@V?$allocator@D@2@@std@@@2@V?$allocator@U?$pair@$$CBV?$basic_string@DU?$char_traits@D@std@@V?$allocator@D@2@@std@@PAVCItemData@CMetpParser@hgx@@@std@@@2@$0A@@std@@@2@PBV12@@Z 1000f100 f i MetpParserD:MetpParser.obj
 0001:0000e150       ??Diterator@?$_Tree@V?$_Tmap_traits@V?$basic_string@DU?$char_traits@D@std@@V?$allocator@D@2@@std@@PAVCItemData@CMetpParser@hgx@@U?$less@V?$basic_string@DU?$char_traits@D@std@@V?$allocator@D@2@@std@@@2@V?$allocator@U?$pair@$$CBV?$basic_string@DU?$char_traits@D@std@@V?$allocator@D@2@@std@@PAVCItemData@CMetpParser@hgx@@@std@@@2@$0A@@std@@@std@@QBEAAU?$pair@$$CBV?$basic_string@DU?$char_traits@D@std@@V?$allocator@D@2@@std@@PAVCItemData@CMetpParser@hgx@@@2@XZ 1000f150 f i MetpParserD:MetpParser.obj
 0001:0000e190       ??Fiterator@?$_Tree@V?$_Tmap_traits@V?$basic_string@DU?$char_traits@D@std@@V?$allocator@D@2@@std@@PAVCItemData@CMetpParser@hgx@@U?$less@V?$basic_string@DU?$char_traits@D@std@@V?$allocator@D@2@@std@@@2@V?$allocator@U?$pair@$$CBV?$basic_string@DU?$char_traits@D@std@@V?$allocator@D@2@@std@@PAVCItemData@CMetpParser@hgx@@@std@@@2@$0A@@std@@@std@@QAEAAV012@XZ 1000f190 f i MetpParserD:MetpParser.obj
 0001:0000e1e0       ??Econst_iterator@?$_Tree@V?$_Tmap_traits@V?$basic_string@DU?$char_traits@D@std@@V?$allocator@D@2@@std@@PAVCItemData@CMetpParser@hgx@@U?$less@V?$basic_string@DU?$char_traits@D@std@@V?$allocator@D@2@@std@@@2@V?$allocator@U?$pair@$$CBV?$basic_string@DU?$char_traits@D@std@@V?$allocator@D@2@@std@@PAVCItemData@CMetpParser@hgx@@@std@@@2@$0A@@std@@@std@@QAEAAV012@XZ 1000f1e0 f i MetpParserD:MetpParser.obj
 0001:0000e230       ??8const_iterator@?$_Tree@V?$_Tmap_traits@V?$basic_string@DU?$char_traits@D@std@@V?$allocator@D@2@@std@@PAVCItemData@CMetpParser@hgx@@U?$less@V?$basic_string@DU?$char_traits@D@std@@V?$allocator@D@2@@std@@@2@V?$allocator@U?$pair@$$CBV?$basic_string@DU?$char_traits@D@std@@V?$allocator@D@2@@std@@PAVCItemData@CMetpParser@hgx@@@std@@@2@$0A@@std@@@std@@QBE_NABV012@@Z 1000f230 f i MetpParserD:MetpParser.obj
 0001:0000e2f0       ?_Mynode@const_iterator@?$_Tree@V?$_Tmap_traits@V?$basic_string@DU?$char_traits@D@std@@V?$allocator@D@2@@std@@PAVCItemData@CMetpParser@hgx@@U?$less@V?$basic_string@DU?$char_traits@D@std@@V?$allocator@D@2@@std@@@2@V?$allocator@U?$pair@$$CBV?$basic_string@DU?$char_traits@D@std@@V?$allocator@D@2@@std@@PAVCItemData@CMetpParser@hgx@@@std@@@2@$0A@@std@@@std@@QBEPAU_Node@?$_Tree_nod@V?$_Tmap_traits@V?$basic_string@DU?$char_traits@D@std@@V?$allocator@D@2@@std@@PAVCItemData@CMetpParser@hgx@@U?$less@V?$basic_string@DU?$char_traits@D@std@@V?$allocator@D@2@@std@@@2@V?$allocator@U?$pair@$$CBV?$basic_string@DU?$char_traits@D@std@@V?$allocator@D@2@@std@@PAVCItemData@CMetpParser@hgx@@@std@@@2@$0A@@std@@@3@XZ 1000f2f0 f i MetpParserD:MetpParser.obj
 0001:0000e320       ??0?$pair@Viterator@?$_Tree@V?$_Tmap_traits@V?$basic_string@DU?$char_traits@D@std@@V?$allocator@D@2@@std@@PAVCItemData@CMetpParser@hgx@@U?$less@V?$basic_string@DU?$char_traits@D@std@@V?$allocator@D@2@@std@@@2@V?$allocator@U?$pair@$$CBV?$basic_string@DU?$char_traits@D@std@@V?$allocator@D@2@@std@@PAVCItemData@CMetpParser@hgx@@@std@@@2@$0A@@std@@@std@@_N@std@@QAE@ABViterator@?$_Tree@V?$_Tmap_traits@V?$basic_string@DU?$char_traits@D@std@@V?$allocator@D@2@@std@@PAVCItemData@CMetpParser@hgx@@U?$less@V?$basic_string@DU?$char_traits@D@std@@V?$allocator@D@2@@std@@@2@V?$allocator@U?$pair@$$CBV?$basic_string@DU?$char_traits@D@std@@V?$allocator@D@2@@std@@PAVCItemData@CMetpParser@hgx@@@std@@@2@$0A@@std@@@1@AB_N@Z 1000f320 f i MetpParserD:MetpParser.obj
 0001:0000e380       ??0length_error@std@@QAE@ABV01@@Z 1000f380 f i MetpParserD:MetpParser.obj
 0001:0000e3e0       ?_Myval@?$_Tree@V?$_Tmap_traits@V?$basic_string@DU?$char_traits@D@std@@V?$allocator@D@2@@std@@PAVCItemData@CMetpParser@hgx@@U?$less@V?$basic_string@DU?$char_traits@D@std@@V?$allocator@D@2@@std@@@2@V?$allocator@U?$pair@$$CBV?$basic_string@DU?$char_traits@D@std@@V?$allocator@D@2@@std@@PAVCItemData@CMetpParser@hgx@@@std@@@2@$0A@@std@@@std@@KGAAU?$pair@$$CBV?$basic_string@DU?$char_traits@D@std@@V?$allocator@D@2@@std@@PAVCItemData@CMetpParser@hgx@@@2@PAU_Node@?$_Tree_nod@V?$_Tmap_traits@V?$basic_string@DU?$char_traits@D@std@@V?$allocator@D@2@@std@@PAVCItemData@CMetpParser@hgx@@U?$less@V?$basic_string@DU?$char_traits@D@std@@V?$allocator@D@2@@std@@@2@V?$allocator@U?$pair@$$CBV?$basic_string@DU?$char_traits@D@std@@V?$allocator@D@2@@std@@PAVCItemData@CMetpParser@hgx@@@std@@@2@$0A@@std@@@2@@Z 1000f3e0 f i MetpParserD:MetpParser.obj
 0001:0000e410       ?max_size@?$_Tree@V?$_Tmap_traits@V?$basic_string@DU?$char_traits@D@std@@V?$allocator@D@2@@std@@PAVCItemData@CMetpParser@hgx@@U?$less@V?$basic_string@DU?$char_traits@D@std@@V?$allocator@D@2@@std@@@2@V?$allocator@U?$pair@$$CBV?$basic_string@DU?$char_traits@D@std@@V?$allocator@D@2@@std@@PAVCItemData@CMetpParser@hgx@@@std@@@2@$0A@@std@@@std@@QBEIXZ 1000f410 f i MetpParserD:MetpParser.obj
 0001:0000e460       ?erase@?$_Tree@V?$_Tmap_traits@V?$basic_string@DU?$char_traits@D@std@@V?$allocator@D@2@@std@@PAVCItemData@CMetpParser@hgx@@U?$less@V?$basic_string@DU?$char_traits@D@std@@V?$allocator@D@2@@std@@@2@V?$allocator@U?$pair@$$CBV?$basic_string@DU?$char_traits@D@std@@V?$allocator@D@2@@std@@PAVCItemData@CMetpParser@hgx@@@std@@@2@$0A@@std@@@std@@QAE?AViterator@12@V312@0@Z 1000f460 f i MetpParserD:MetpParser.obj
 0001:0000e6d0       ?_Init@?$_Tree@V?$_Tmap_traits@V?$basic_string@DU?$char_traits@D@std@@V?$allocator@D@2@@std@@PAVCItemData@CMetpParser@hgx@@U?$less@V?$basic_string@DU?$char_traits@D@std@@V?$allocator@D@2@@std@@@2@V?$allocator@U?$pair@$$CBV?$basic_string@DU?$char_traits@D@std@@V?$allocator@D@2@@std@@PAVCItemData@CMetpParser@hgx@@@std@@@2@$0A@@std@@@std@@IAEXXZ 1000f6d0 f i MetpParserD:MetpParser.obj
 0001:0000e760       ?_Lbound@?$_Tree@V?$_Tmap_traits@V?$basic_string@DU?$char_traits@D@std@@V?$allocator@D@2@@std@@PAVCItemData@CMetpParser@hgx@@U?$less@V?$basic_string@DU?$char_traits@D@std@@V?$allocator@D@2@@std@@@2@V?$allocator@U?$pair@$$CBV?$basic_string@DU?$char_traits@D@std@@V?$allocator@D@2@@std@@PAVCItemData@CMetpParser@hgx@@@std@@@2@$0A@@std@@@std@@IBEPAU_Node@?$_Tree_nod@V?$_Tmap_traits@V?$basic_string@DU?$char_traits@D@std@@V?$allocator@D@2@@std@@PAVCItemData@CMetpParser@hgx@@U?$less@V?$basic_string@DU?$char_traits@D@std@@V?$allocator@D@2@@std@@@2@V?$allocator@U?$pair@$$CBV?$basic_string@DU?$char_traits@D@std@@V?$allocator@D@2@@std@@PAVCItemData@CMetpParser@hgx@@@std@@@2@$0A@@std@@@2@ABV?$basic_string@DU?$char_traits@D@std@@V?$allocator@D@2@@2@@Z 1000f760 f i MetpParserD:MetpParser.obj
 0001:0000e820       ?_Buynode@?$_Tree@V?$_Tmap_traits@V?$basic_string@DU?$char_traits@D@std@@V?$allocator@D@2@@std@@PAVCItemData@CMetpParser@hgx@@U?$less@V?$basic_string@DU?$char_traits@D@std@@V?$allocator@D@2@@std@@@2@V?$allocator@U?$pair@$$CBV?$basic_string@DU?$char_traits@D@std@@V?$allocator@D@2@@std@@PAVCItemData@CMetpParser@hgx@@@std@@@2@$0A@@std@@@std@@IAEPAU_Node@?$_Tree_nod@V?$_Tmap_traits@V?$basic_string@DU?$char_traits@D@std@@V?$allocator@D@2@@std@@PAVCItemData@CMetpParser@hgx@@U?$less@V?$basic_string@DU?$char_traits@D@std@@V?$allocator@D@2@@std@@@2@V?$allocator@U?$pair@$$CBV?$basic_string@DU?$char_traits@D@std@@V?$allocator@D@2@@std@@PAVCItemData@CMetpParser@hgx@@@std@@@2@$0A@@std@@@2@PAU342@00ABU?$pair@$$CBV?$basic_string@DU?$char_traits@D@std@@V?$allocator@D@2@@std@@PAVCItemData@CMetpParser@hgx@@@2@D@Z 1000f820 f i MetpParserD:MetpParser.obj
 0001:0000e940       ??2@YAPAXIPAX@Z            1000f940 f i MetpParserD:MetpParser.obj
 0001:0000e970       ??3@YAXPAX0@Z              1000f970 f i MetpParserD:MetpParser.obj
 0001:0000e9a0       ??0?$_Tree_val@V?$_Tmap_traits@V?$basic_string@DU?$char_traits@D@std@@V?$allocator@D@2@@std@@PAVCItemData@CMetpParser@hgx@@U?$less@V?$basic_string@DU?$char_traits@D@std@@V?$allocator@D@2@@std@@@2@V?$allocator@U?$pair@$$CBV?$basic_string@DU?$char_traits@D@std@@V?$allocator@D@2@@std@@PAVCItemData@CMetpParser@hgx@@@std@@@2@$0A@@std@@@std@@IAE@ABU?$less@V?$basic_string@DU?$char_traits@D@std@@V?$allocator@D@2@@std@@@1@V?$allocator@U?$pair@$$CBV?$basic_string@DU?$char_traits@D@std@@V?$allocator@D@2@@std@@PAVCItemData@CMetpParser@hgx@@@std@@@1@@Z 1000f9a0 f i MetpParserD:MetpParser.obj
 0001:0000ea10       ??0?$allocator@U?$pair@$$CBV?$basic_string@DU?$char_traits@D@std@@V?$allocator@D@2@@std@@PAVCItemData@CMetpParser@hgx@@@std@@@std@@QAE@ABV01@@Z 1000fa10 f i MetpParserD:MetpParser.obj
 0001:0000ea40       ?destroy@?$allocator@PAU_Node@?$_Tree_nod@V?$_Tmap_traits@V?$basic_string@DU?$char_traits@D@std@@V?$allocator@D@2@@std@@PAVCItemData@CMetpParser@hgx@@U?$less@V?$basic_string@DU?$char_traits@D@std@@V?$allocator@D@2@@std@@@2@V?$allocator@U?$pair@$$CBV?$basic_string@DU?$char_traits@D@std@@V?$allocator@D@2@@std@@PAVCItemData@CMetpParser@hgx@@@std@@@2@$0A@@std@@@std@@@std@@QAEXPAPAU_Node@?$_Tree_nod@V?$_Tmap_traits@V?$basic_string@DU?$char_traits@D@std@@V?$allocator@D@2@@std@@PAVCItemData@CMetpParser@hgx@@U?$less@V?$basic_string@DU?$char_traits@D@std@@V?$allocator@D@2@@std@@@2@V?$allocator@U?$pair@$$CBV?$basic_string@DU?$char_traits@D@std@@V?$allocator@D@2@@std@@PAVCItemData@CMetpParser@hgx@@@std@@@2@$0A@@std@@@2@@Z 1000fa40 f i MetpParserD:MetpParser.obj
 0001:0000ea90       ??0const_iterator@?$_Tree@V?$_Tmap_traits@V?$basic_string@DU?$char_traits@D@std@@V?$allocator@D@2@@std@@PAVCItemData@CMetpParser@hgx@@U?$less@V?$basic_string@DU?$char_traits@D@std@@V?$allocator@D@2@@std@@@2@V?$allocator@U?$pair@$$CBV?$basic_string@DU?$char_traits@D@std@@V?$allocator@D@2@@std@@PAVCItemData@CMetpParser@hgx@@@std@@@2@$0A@@std@@@std@@QAE@PAU_Node@?$_Tree_nod@V?$_Tmap_traits@V?$basic_string@DU?$char_traits@D@std@@V?$allocator@D@2@@std@@PAVCItemData@CMetpParser@hgx@@U?$less@V?$basic_string@DU?$char_traits@D@std@@V?$allocator@D@2@@std@@@2@V?$allocator@U?$pair@$$CBV?$basic_string@DU?$char_traits@D@std@@V?$allocator@D@2@@std@@PAVCItemData@CMetpParser@hgx@@@std@@@2@$0A@@std@@@2@PBV12@@Z 1000fa90 f i MetpParserD:MetpParser.obj
 0001:0000eb30       ??Dconst_iterator@?$_Tree@V?$_Tmap_traits@V?$basic_string@DU?$char_traits@D@std@@V?$allocator@D@2@@std@@PAVCItemData@CMetpParser@hgx@@U?$less@V?$basic_string@DU?$char_traits@D@std@@V?$allocator@D@2@@std@@@2@V?$allocator@U?$pair@$$CBV?$basic_string@DU?$char_traits@D@std@@V?$allocator@D@2@@std@@PAVCItemData@CMetpParser@hgx@@@std@@@2@$0A@@std@@@std@@QBEABU?$pair@$$CBV?$basic_string@DU?$char_traits@D@std@@V?$allocator@D@2@@std@@PAVCItemData@CMetpParser@hgx@@@2@XZ 1000fb30 f i MetpParserD:MetpParser.obj
 0001:0000ebf0       ??Fconst_iterator@?$_Tree@V?$_Tmap_traits@V?$basic_string@DU?$char_traits@D@std@@V?$allocator@D@2@@std@@PAVCItemData@CMetpParser@hgx@@U?$less@V?$basic_string@DU?$char_traits@D@std@@V?$allocator@D@2@@std@@@2@V?$allocator@U?$pair@$$CBV?$basic_string@DU?$char_traits@D@std@@V?$allocator@D@2@@std@@PAVCItemData@CMetpParser@hgx@@@std@@@2@$0A@@std@@@std@@QAEAAV012@XZ 1000fbf0 f i MetpParserD:MetpParser.obj
 0001:0000ec40       ?_Inc@const_iterator@?$_Tree@V?$_Tmap_traits@V?$basic_string@DU?$char_traits@D@std@@V?$allocator@D@2@@std@@PAVCItemData@CMetpParser@hgx@@U?$less@V?$basic_string@DU?$char_traits@D@std@@V?$allocator@D@2@@std@@@2@V?$allocator@U?$pair@$$CBV?$basic_string@DU?$char_traits@D@std@@V?$allocator@D@2@@std@@PAVCItemData@CMetpParser@hgx@@@std@@@2@$0A@@std@@@std@@QAEXXZ 1000fc40 f i MetpParserD:MetpParser.obj
 0001:0000ed70       ??0?$_Bidit@U?$pair@$$CBV?$basic_string@DU?$char_traits@D@std@@V?$allocator@D@2@@std@@PAVCItemData@CMetpParser@hgx@@@std@@HPBU12@ABU12@@std@@QAE@XZ 1000fd70 f i MetpParserD:MetpParser.obj
 0001:0000edc0       ??0_Iterator_base@std@@QAE@XZ 1000fdc0 f i MetpParserD:MetpParser.obj
 0001:0000ee00       ?_Buynode@?$_Tree@V?$_Tmap_traits@V?$basic_string@DU?$char_traits@D@std@@V?$allocator@D@2@@std@@PAVCItemData@CMetpParser@hgx@@U?$less@V?$basic_string@DU?$char_traits@D@std@@V?$allocator@D@2@@std@@@2@V?$allocator@U?$pair@$$CBV?$basic_string@DU?$char_traits@D@std@@V?$allocator@D@2@@std@@PAVCItemData@CMetpParser@hgx@@@std@@@2@$0A@@std@@@std@@IAEPAU_Node@?$_Tree_nod@V?$_Tmap_traits@V?$basic_string@DU?$char_traits@D@std@@V?$allocator@D@2@@std@@PAVCItemData@CMetpParser@hgx@@U?$less@V?$basic_string@DU?$char_traits@D@std@@V?$allocator@D@2@@std@@@2@V?$allocator@U?$pair@$$CBV?$basic_string@DU?$char_traits@D@std@@V?$allocator@D@2@@std@@PAVCItemData@CMetpParser@hgx@@@std@@@2@$0A@@std@@@2@XZ 1000fe00 f i MetpParserD:MetpParser.obj
 0001:0000efb0       ??0?$_Tree_ptr@V?$_Tmap_traits@V?$basic_string@DU?$char_traits@D@std@@V?$allocator@D@2@@std@@PAVCItemData@CMetpParser@hgx@@U?$less@V?$basic_string@DU?$char_traits@D@std@@V?$allocator@D@2@@std@@@2@V?$allocator@U?$pair@$$CBV?$basic_string@DU?$char_traits@D@std@@V?$allocator@D@2@@std@@PAVCItemData@CMetpParser@hgx@@@std@@@2@$0A@@std@@@std@@QAE@ABU?$less@V?$basic_string@DU?$char_traits@D@std@@V?$allocator@D@2@@std@@@1@V?$allocator@U?$pair@$$CBV?$basic_string@DU?$char_traits@D@std@@V?$allocator@D@2@@std@@PAVCItemData@CMetpParser@hgx@@@std@@@1@@Z 1000ffb0 f i MetpParserD:MetpParser.obj
 0001:0000f020       ?max_size@?$allocator@U?$pair@$$CBV?$basic_string@DU?$char_traits@D@std@@V?$allocator@D@2@@std@@PAVCItemData@CMetpParser@hgx@@@std@@@std@@QBEIXZ 10010020 f i MetpParserD:MetpParser.obj
 0001:0000f080       ?allocate@?$allocator@U_Node@?$_Tree_nod@V?$_Tmap_traits@V?$basic_string@DU?$char_traits@D@std@@V?$allocator@D@2@@std@@PAVCItemData@CMetpParser@hgx@@U?$less@V?$basic_string@DU?$char_traits@D@std@@V?$allocator@D@2@@std@@@2@V?$allocator@U?$pair@$$CBV?$basic_string@DU?$char_traits@D@std@@V?$allocator@D@2@@std@@PAVCItemData@CMetpParser@hgx@@@std@@@2@$0A@@std@@@std@@@std@@QAEPAU_Node@?$_Tree_nod@V?$_Tmap_traits@V?$basic_string@DU?$char_traits@D@std@@V?$allocator@D@2@@std@@PAVCItemData@CMetpParser@hgx@@U?$less@V?$basic_string@DU?$char_traits@D@std@@V?$allocator@D@2@@std@@@2@V?$allocator@U?$pair@$$CBV?$basic_string@DU?$char_traits@D@std@@V?$allocator@D@2@@std@@PAVCItemData@CMetpParser@hgx@@@std@@@2@$0A@@std@@@2@I@Z 10010080 f i MetpParserD:MetpParser.obj
 0001:0000f0d0       ?_Dec@const_iterator@?$_Tree@V?$_Tmap_traits@V?$basic_string@DU?$char_traits@D@std@@V?$allocator@D@2@@std@@PAVCItemData@CMetpParser@hgx@@U?$less@V?$basic_string@DU?$char_traits@D@std@@V?$allocator@D@2@@std@@@2@V?$allocator@U?$pair@$$CBV?$basic_string@DU?$char_traits@D@std@@V?$allocator@D@2@@std@@PAVCItemData@CMetpParser@hgx@@@std@@@2@$0A@@std@@@std@@QAEXXZ 100100d0 f i MetpParserD:MetpParser.obj
 0001:0000f300       ??0_Node@?$_Tree_nod@V?$_Tmap_traits@V?$basic_string@DU?$char_traits@D@std@@V?$allocator@D@2@@std@@PAVCItemData@CMetpParser@hgx@@U?$less@V?$basic_string@DU?$char_traits@D@std@@V?$allocator@D@2@@std@@@2@V?$allocator@U?$pair@$$CBV?$basic_string@DU?$char_traits@D@std@@V?$allocator@D@2@@std@@PAVCItemData@CMetpParser@hgx@@@std@@@2@$0A@@std@@@std@@QAE@PAU012@00ABU?$pair@$$CBV?$basic_string@DU?$char_traits@D@std@@V?$allocator@D@2@@std@@PAVCItemData@CMetpParser@hgx@@@2@D@Z 10010300 f i MetpParserD:MetpParser.obj
 0001:0000f380       ??0?$pair@$$CBV?$basic_string@DU?$char_traits@D@std@@V?$allocator@D@2@@std@@PAVCItemData@CMetpParser@hgx@@@std@@QAE@ABU01@@Z 10010380 f i MetpParserD:MetpParser.obj
 0001:0000f3e0       ??0?$_Tree_nod@V?$_Tmap_traits@V?$basic_string@DU?$char_traits@D@std@@V?$allocator@D@2@@std@@PAVCItemData@CMetpParser@hgx@@U?$less@V?$basic_string@DU?$char_traits@D@std@@V?$allocator@D@2@@std@@@2@V?$allocator@U?$pair@$$CBV?$basic_string@DU?$char_traits@D@std@@V?$allocator@D@2@@std@@PAVCItemData@CMetpParser@hgx@@@std@@@2@$0A@@std@@@std@@IAE@ABU?$less@V?$basic_string@DU?$char_traits@D@std@@V?$allocator@D@2@@std@@@1@V?$allocator@U?$pair@$$CBV?$basic_string@DU?$char_traits@D@std@@V?$allocator@D@2@@std@@PAVCItemData@CMetpParser@hgx@@@std@@@1@@Z 100103e0 f i MetpParserD:MetpParser.obj
 0001:0000f440       ?construct@?$allocator@PAU_Node@?$_Tree_nod@V?$_Tmap_traits@V?$basic_string@DU?$char_traits@D@std@@V?$allocator@D@2@@std@@PAVCItemData@CMetpParser@hgx@@U?$less@V?$basic_string@DU?$char_traits@D@std@@V?$allocator@D@2@@std@@@2@V?$allocator@U?$pair@$$CBV?$basic_string@DU?$char_traits@D@std@@V?$allocator@D@2@@std@@PAVCItemData@CMetpParser@hgx@@@std@@@2@$0A@@std@@@std@@@std@@QAEXPAPAU_Node@?$_Tree_nod@V?$_Tmap_traits@V?$basic_string@DU?$char_traits@D@std@@V?$allocator@D@2@@std@@PAVCItemData@CMetpParser@hgx@@U?$less@V?$basic_string@DU?$char_traits@D@std@@V?$allocator@D@2@@std@@@2@V?$allocator@U?$pair@$$CBV?$basic_string@DU?$char_traits@D@std@@V?$allocator@D@2@@std@@PAVCItemData@CMetpParser@hgx@@@std@@@2@$0A@@std@@@2@ABQAU342@@Z 10010440 f i MetpParserD:MetpParser.obj
 0001:0000f490       ??0?$_Tmap_traits@V?$basic_string@DU?$char_traits@D@std@@V?$allocator@D@2@@std@@PAVCItemData@CMetpParser@hgx@@U?$less@V?$basic_string@DU?$char_traits@D@std@@V?$allocator@D@2@@std@@@2@V?$allocator@U?$pair@$$CBV?$basic_string@DU?$char_traits@D@std@@V?$allocator@D@2@@std@@PAVCItemData@CMetpParser@hgx@@@std@@@2@$0A@@std@@QAE@U?$less@V?$basic_string@DU?$char_traits@D@std@@V?$allocator@D@2@@std@@@1@@Z 10010490 f i MetpParserD:MetpParser.obj
 0001:0000f4e0       ??$for_each@Viterator@?$_Tree@V?$_Tmap_traits@V?$basic_string@DU?$char_traits@D@std@@V?$allocator@D@2@@std@@PAVCItemData@CMetpParser@hgx@@U?$less@V?$basic_string@DU?$char_traits@D@std@@V?$allocator@D@2@@std@@@2@V?$allocator@U?$pair@$$CBV?$basic_string@DU?$char_traits@D@std@@V?$allocator@D@2@@std@@PAVCItemData@CMetpParser@hgx@@@std@@@2@$0A@@std@@@std@@V?$cNodeDelete@U?$pair@V?$basic_string@DU?$char_traits@D@std@@V?$allocator@D@2@@std@@PAVCItemData@CMetpParser@hgx@@@std@@$00@@@std@@YG?AV?$cNodeDelete@U?$pair@V?$basic_string@DU?$char_traits@D@std@@V?$allocator@D@2@@std@@PAVCItemData@CMetpParser@hgx@@@std@@$00@@Viterator@?$_Tree@V?$_Tmap_traits@V?$basic_string@DU?$char_traits@D@std@@V?$allocator@D@2@@std@@PAVCItemData@CMetpParser@hgx@@U?$less@V?$basic_string@DU?$char_traits@D@std@@V?$allocator@D@2@@std@@@2@V?$allocator@U?$pair@$$CBV?$basic_string@DU?$char_traits@D@std@@V?$allocator@D@2@@std@@PAVCItemData@CMetpParser@hgx@@@std@@@2@$0A@@std@@@0@0V1@@Z 100104e0 f i MetpParserD:MetpParser.obj
 0001:0000f6a0       ??$?0V?$basic_string@DU?$char_traits@D@std@@V?$allocator@D@2@@std@@PAVCItemData@CMetpParser@hgx@@@?$pair@$$CBV?$basic_string@DU?$char_traits@D@std@@V?$allocator@D@2@@std@@PAVCItemData@CMetpParser@hgx@@@std@@QAE@ABU?$pair@V?$basic_string@DU?$char_traits@D@std@@V?$allocator@D@2@@std@@PAVCItemData@CMetpParser@hgx@@@1@@Z 100106a0 f i MetpParserD:MetpParser.obj
 0001:0000f700       ??$copy_s@U?$char_traits@D@std@@@_Traits_helper@std@@YGPADPADIPBDI@Z 10010700 f i MetpParserD:MetpParser.obj
 0001:0000f760       ??$_Debug_lt_pred@U?$less@V?$basic_string@DU?$char_traits@D@std@@V?$allocator@D@2@@std@@@std@@V?$basic_string@DU?$char_traits@D@std@@V?$allocator@D@2@@2@V32@@std@@YA_NU?$less@V?$basic_string@DU?$char_traits@D@std@@V?$allocator@D@2@@std@@@0@ABV?$basic_string@DU?$char_traits@D@std@@V?$allocator@D@2@@0@1PB_WI@Z 10010760 f i MetpParserD:MetpParser.obj
 0001:0000f7e0       ??$swap@D@std@@YGXAAD0@Z   100107e0 f i MetpParserD:MetpParser.obj
 0001:0000f830       ??$_Destroy@U_Node@?$_Tree_nod@V?$_Tmap_traits@V?$basic_string@DU?$char_traits@D@std@@V?$allocator@D@2@@std@@PAVCItemData@CMetpParser@hgx@@U?$less@V?$basic_string@DU?$char_traits@D@std@@V?$allocator@D@2@@std@@@2@V?$allocator@U?$pair@$$CBV?$basic_string@DU?$char_traits@D@std@@V?$allocator@D@2@@std@@PAVCItemData@CMetpParser@hgx@@@std@@@2@$0A@@std@@@std@@@std@@YGXPAU_Node@?$_Tree_nod@V?$_Tmap_traits@V?$basic_string@DU?$char_traits@D@std@@V?$allocator@D@2@@std@@PAVCItemData@CMetpParser@hgx@@U?$less@V?$basic_string@DU?$char_traits@D@std@@V?$allocator@D@2@@std@@@2@V?$allocator@U?$pair@$$CBV?$basic_string@DU?$char_traits@D@std@@V?$allocator@D@2@@std@@PAVCItemData@CMetpParser@hgx@@@std@@@2@$0A@@std@@@0@@Z 10010830 f i MetpParserD:MetpParser.obj
 0001:0000f870       ??$move_s@U?$char_traits@D@std@@@_Traits_helper@std@@YGPADPADIPBDI@Z 10010870 f i MetpParserD:MetpParser.obj
 0001:0000f8d0       ??$_Destroy@PAU_Node@?$_Tree_nod@V?$_Tmap_traits@V?$basic_string@DU?$char_traits@D@std@@V?$allocator@D@2@@std@@PAVCItemData@CMetpParser@hgx@@U?$less@V?$basic_string@DU?$char_traits@D@std@@V?$allocator@D@2@@std@@@2@V?$allocator@U?$pair@$$CBV?$basic_string@DU?$char_traits@D@std@@V?$allocator@D@2@@std@@PAVCItemData@CMetpParser@hgx@@@std@@@2@$0A@@std@@@std@@@std@@YGXPAPAU_Node@?$_Tree_nod@V?$_Tmap_traits@V?$basic_string@DU?$char_traits@D@std@@V?$allocator@D@2@@std@@PAVCItemData@CMetpParser@hgx@@U?$less@V?$basic_string@DU?$char_traits@D@std@@V?$allocator@D@2@@std@@@2@V?$allocator@U?$pair@$$CBV?$basic_string@DU?$char_traits@D@std@@V?$allocator@D@2@@std@@PAVCItemData@CMetpParser@hgx@@@std@@@2@$0A@@std@@@0@@Z 100108d0 f i MetpParserD:MetpParser.obj
 0001:0000f900       ??$?0U?$pair@$$CBV?$basic_string@DU?$char_traits@D@std@@V?$allocator@D@2@@std@@PAVCItemData@CMetpParser@hgx@@@std@@@?$allocator@PAU_Node@?$_Tree_nod@V?$_Tmap_traits@V?$basic_string@DU?$char_traits@D@std@@V?$allocator@D@2@@std@@PAVCItemData@CMetpParser@hgx@@U?$less@V?$basic_string@DU?$char_traits@D@std@@V?$allocator@D@2@@std@@@2@V?$allocator@U?$pair@$$CBV?$basic_string@DU?$char_traits@D@std@@V?$allocator@D@2@@std@@PAVCItemData@CMetpParser@hgx@@@std@@@2@$0A@@std@@@std@@@std@@QAE@ABV?$allocator@U?$pair@$$CBV?$basic_string@DU?$char_traits@D@std@@V?$allocator@D@2@@std@@PAVCItemData@CMetpParser@hgx@@@std@@@1@@Z 10010900 f i MetpParserD:MetpParser.obj
 0001:0000f930       ??$_Allocate@U_Node@?$_Tree_nod@V?$_Tmap_traits@V?$basic_string@DU?$char_traits@D@std@@V?$allocator@D@2@@std@@PAVCItemData@CMetpParser@hgx@@U?$less@V?$basic_string@DU?$char_traits@D@std@@V?$allocator@D@2@@std@@@2@V?$allocator@U?$pair@$$CBV?$basic_string@DU?$char_traits@D@std@@V?$allocator@D@2@@std@@PAVCItemData@CMetpParser@hgx@@@std@@@2@$0A@@std@@@std@@@std@@YGPAU_Node@?$_Tree_nod@V?$_Tmap_traits@V?$basic_string@DU?$char_traits@D@std@@V?$allocator@D@2@@std@@PAVCItemData@CMetpParser@hgx@@U?$less@V?$basic_string@DU?$char_traits@D@std@@V?$allocator@D@2@@std@@@2@V?$allocator@U?$pair@$$CBV?$basic_string@DU?$char_traits@D@std@@V?$allocator@D@2@@std@@PAVCItemData@CMetpParser@hgx@@@std@@@2@$0A@@std@@@0@IPAU120@@Z 10010930 f i MetpParserD:MetpParser.obj
 0001:0000f9b0       ??$_Allocate@D@std@@YGPADIPAD@Z 100109b0 f i MetpParserD:MetpParser.obj
 0001:0000fa30       ??$?0U?$pair@$$CBV?$basic_string@DU?$char_traits@D@std@@V?$allocator@D@2@@std@@PAVCItemData@CMetpParser@hgx@@@std@@@?$allocator@U_Node@?$_Tree_nod@V?$_Tmap_traits@V?$basic_string@DU?$char_traits@D@std@@V?$allocator@D@2@@std@@PAVCItemData@CMetpParser@hgx@@U?$less@V?$basic_string@DU?$char_traits@D@std@@V?$allocator@D@2@@std@@@2@V?$allocator@U?$pair@$$CBV?$basic_string@DU?$char_traits@D@std@@V?$allocator@D@2@@std@@PAVCItemData@CMetpParser@hgx@@@std@@@2@$0A@@std@@@std@@@std@@QAE@ABV?$allocator@U?$pair@$$CBV?$basic_string@DU?$char_traits@D@std@@V?$allocator@D@2@@std@@PAVCItemData@CMetpParser@hgx@@@std@@@1@@Z 10010a30 f i MetpParserD:MetpParser.obj
 0001:0000fa60       ??$_Construct@PAU_Node@?$_Tree_nod@V?$_Tmap_traits@V?$basic_string@DU?$char_traits@D@std@@V?$allocator@D@2@@std@@PAVCItemData@CMetpParser@hgx@@U?$less@V?$basic_string@DU?$char_traits@D@std@@V?$allocator@D@2@@std@@@2@V?$allocator@U?$pair@$$CBV?$basic_string@DU?$char_traits@D@std@@V?$allocator@D@2@@std@@PAVCItemData@CMetpParser@hgx@@@std@@@2@$0A@@std@@@std@@PAU123@@std@@YGXPAPAU_Node@?$_Tree_nod@V?$_Tmap_traits@V?$basic_string@DU?$char_traits@D@std@@V?$allocator@D@2@@std@@PAVCItemData@CMetpParser@hgx@@U?$less@V?$basic_string@DU?$char_traits@D@std@@V?$allocator@D@2@@std@@@2@V?$allocator@U?$pair@$$CBV?$basic_string@DU?$char_traits@D@std@@V?$allocator@D@2@@std@@PAVCItemData@CMetpParser@hgx@@@std@@@2@$0A@@std@@@0@ABQAU120@@Z 10010a60 f i MetpParserD:MetpParser.obj
 0001:0000fae0       ??_G_Node@?$_Tree_nod@V?$_Tmap_traits@V?$basic_string@DU?$char_traits@D@std@@V?$allocator@D@2@@std@@PAVCItemData@CMetpParser@hgx@@U?$less@V?$basic_string@DU?$char_traits@D@std@@V?$allocator@D@2@@std@@@2@V?$allocator@U?$pair@$$CBV?$basic_string@DU?$char_traits@D@std@@V?$allocator@D@2@@std@@PAVCItemData@CMetpParser@hgx@@@std@@@2@$0A@@std@@@std@@QAEPAXI@Z 10010ae0 f i MetpParserD:MetpParser.obj
 0001:0000fb40       ??1_Node@?$_Tree_nod@V?$_Tmap_traits@V?$basic_string@DU?$char_traits@D@std@@V?$allocator@D@2@@std@@PAVCItemData@CMetpParser@hgx@@U?$less@V?$basic_string@DU?$char_traits@D@std@@V?$allocator@D@2@@std@@@2@V?$allocator@U?$pair@$$CBV?$basic_string@DU?$char_traits@D@std@@V?$allocator@D@2@@std@@PAVCItemData@CMetpParser@hgx@@@std@@@2@$0A@@std@@@std@@QAE@XZ 10010b40 f i MetpParserD:MetpParser.obj
 0001:0000fb90       ??R?$less@V?$basic_string@DU?$char_traits@D@std@@V?$allocator@D@2@@std@@@std@@QBE_NABV?$basic_string@DU?$char_traits@D@std@@V?$allocator@D@2@@1@0@Z 10010b90 f i MetpParserD:MetpParser.obj
 0001:0000fbe0       ??R?$cNodeDelete@U?$pair@V?$basic_string@DU?$char_traits@D@std@@V?$allocator@D@2@@std@@PAVCItemData@CMetpParser@hgx@@@std@@$00@@QAEXU?$pair@V?$basic_string@DU?$char_traits@D@std@@V?$allocator@D@2@@std@@PAVCItemData@CMetpParser@hgx@@@std@@@Z 10010be0 f i MetpParserD:MetpParser.obj
 0001:0000fcc0       ??0?$pair@V?$basic_string@DU?$char_traits@D@std@@V?$allocator@D@2@@std@@PAVCItemData@CMetpParser@hgx@@@std@@QAE@ABU01@@Z 10010cc0 f i MetpParserD:MetpParser.obj
 0001:0000fd20       ?deleteNode@?$cNodeDelete@U?$pair@V?$basic_string@DU?$char_traits@D@std@@V?$allocator@D@2@@std@@PAVCItemData@CMetpParser@hgx@@@std@@$00@@QAEXU?$pair@V?$basic_string@DU?$char_traits@D@std@@V?$allocator@D@2@@std@@PAVCItemData@CMetpParser@hgx@@@std@@U?$tInt2Type@$00@@@Z 10010d20 f i MetpParserD:MetpParser.obj
 0001:0000fe20       ??$_Debug_range@Viterator@?$_Tree@V?$_Tmap_traits@V?$basic_string@DU?$char_traits@D@std@@V?$allocator@D@2@@std@@PAVCItemData@CMetpParser@hgx@@U?$less@V?$basic_string@DU?$char_traits@D@std@@V?$allocator@D@2@@std@@@2@V?$allocator@U?$pair@$$CBV?$basic_string@DU?$char_traits@D@std@@V?$allocator@D@2@@std@@PAVCItemData@CMetpParser@hgx@@@std@@@2@$0A@@std@@@std@@@std@@YAXViterator@?$_Tree@V?$_Tmap_traits@V?$basic_string@DU?$char_traits@D@std@@V?$allocator@D@2@@std@@PAVCItemData@CMetpParser@hgx@@U?$less@V?$basic_string@DU?$char_traits@D@std@@V?$allocator@D@2@@std@@@2@V?$allocator@U?$pair@$$CBV?$basic_string@DU?$char_traits@D@std@@V?$allocator@D@2@@std@@PAVCItemData@CMetpParser@hgx@@@std@@@2@$0A@@std@@@0@0PB_WI@Z 10010e20 f i MetpParserD:MetpParser.obj
 0001:0000ff10       ??$_Debug_pointer@V?$cNodeDelete@U?$pair@V?$basic_string@DU?$char_traits@D@std@@V?$allocator@D@2@@std@@PAVCItemData@CMetpParser@hgx@@@std@@$00@@@std@@YAXAAV?$cNodeDelete@U?$pair@V?$basic_string@DU?$char_traits@D@std@@V?$allocator@D@2@@std@@PAVCItemData@CMetpParser@hgx@@@std@@$00@@PB_WI@Z 10010f10 f i MetpParserD:MetpParser.obj
 0001:0000ff40       ??$_Checked_base@Viterator@?$_Tree@V?$_Tmap_traits@V?$basic_string@DU?$char_traits@D@std@@V?$allocator@D@2@@std@@PAVCItemData@CMetpParser@hgx@@U?$less@V?$basic_string@DU?$char_traits@D@std@@V?$allocator@D@2@@std@@@2@V?$allocator@U?$pair@$$CBV?$basic_string@DU?$char_traits@D@std@@V?$allocator@D@2@@std@@PAVCItemData@CMetpParser@hgx@@@std@@@2@$0A@@std@@@std@@@std@@YA?AViterator@?$_Tree@V?$_Tmap_traits@V?$basic_string@DU?$char_traits@D@std@@V?$allocator@D@2@@std@@PAVCItemData@CMetpParser@hgx@@U?$less@V?$basic_string@DU?$char_traits@D@std@@V?$allocator@D@2@@std@@@2@V?$allocator@U?$pair@$$CBV?$basic_string@DU?$char_traits@D@std@@V?$allocator@D@2@@std@@PAVCItemData@CMetpParser@hgx@@@std@@@2@$0A@@std@@@0@AAV120@@Z 10010f40 f i MetpParserD:MetpParser.obj
 0001:0000ffe0       ??$?0$$CBV?$basic_string@DU?$char_traits@D@std@@V?$allocator@D@2@@std@@PAVCItemData@CMetpParser@hgx@@@?$pair@V?$basic_string@DU?$char_traits@D@std@@V?$allocator@D@2@@std@@PAVCItemData@CMetpParser@hgx@@@std@@QAE@ABU?$pair@$$CBV?$basic_string@DU?$char_traits@D@std@@V?$allocator@D@2@@std@@PAVCItemData@CMetpParser@hgx@@@1@@Z 10010fe0 f i MetpParserD:MetpParser.obj
 0001:00010040       ??$_Char_traits_cat@U?$char_traits@D@std@@@std@@YG?AU_Secure_char_traits_tag@0@XZ 10011040 f i MetpParserD:MetpParser.obj
 0001:000100a0       ??$copy_s@U?$char_traits@D@std@@@_Traits_helper@std@@YGPADPADIPBDIU_Secure_char_traits_tag@1@@Z 100110a0 f i MetpParserD:MetpParser.obj
 0001:000100f0       ??$move_s@U?$char_traits@D@std@@@_Traits_helper@std@@YGPADPADIPBDIU_Secure_char_traits_tag@1@@Z 100110f0 f i MetpParserD:MetpParser.obj
 0001:00010140       ??$?MDU?$char_traits@D@std@@V?$allocator@D@1@@std@@YA_NABV?$basic_string@DU?$char_traits@D@std@@V?$allocator@D@2@@0@0@Z 10011140 f i MetpParserD:MetpParser.obj
 0001:00010190       ?compare@?$basic_string@DU?$char_traits@D@std@@V?$allocator@D@2@@std@@QBEHABV12@@Z 10011190 f i MetpParserD:MetpParser.obj
 0001:000101f0       ?compare@?$basic_string@DU?$char_traits@D@std@@V?$allocator@D@2@@std@@QBEHIIPBDI@Z 100111f0 f i MetpParserD:MetpParser.obj
 0001:000102f0       ??$_Iter_cat@Viterator@?$_Tree@V?$_Tmap_traits@V?$basic_string@DU?$char_traits@D@std@@V?$allocator@D@2@@std@@PAVCItemData@CMetpParser@hgx@@U?$less@V?$basic_string@DU?$char_traits@D@std@@V?$allocator@D@2@@std@@@2@V?$allocator@U?$pair@$$CBV?$basic_string@DU?$char_traits@D@std@@V?$allocator@D@2@@std@@PAVCItemData@CMetpParser@hgx@@@std@@@2@$0A@@std@@@std@@@std@@YA?AUbidirectional_iterator_tag@0@ABViterator@?$_Tree@V?$_Tmap_traits@V?$basic_string@DU?$char_traits@D@std@@V?$allocator@D@2@@std@@PAVCItemData@CMetpParser@hgx@@U?$less@V?$basic_string@DU?$char_traits@D@std@@V?$allocator@D@2@@std@@@2@V?$allocator@U?$pair@$$CBV?$basic_string@DU?$char_traits@D@std@@V?$allocator@D@2@@std@@PAVCItemData@CMetpParser@hgx@@@std@@@2@$0A@@std@@@0@@Z 100112f0 f i MetpParserD:MetpParser.obj
 0001:00010350       ??$_Debug_range2@Viterator@?$_Tree@V?$_Tmap_traits@V?$basic_string@DU?$char_traits@D@std@@V?$allocator@D@2@@std@@PAVCItemData@CMetpParser@hgx@@U?$less@V?$basic_string@DU?$char_traits@D@std@@V?$allocator@D@2@@std@@@2@V?$allocator@U?$pair@$$CBV?$basic_string@DU?$char_traits@D@std@@V?$allocator@D@2@@std@@PAVCItemData@CMetpParser@hgx@@@std@@@2@$0A@@std@@@std@@@std@@YAXViterator@?$_Tree@V?$_Tmap_traits@V?$basic_string@DU?$char_traits@D@std@@V?$allocator@D@2@@std@@PAVCItemData@CMetpParser@hgx@@U?$less@V?$basic_string@DU?$char_traits@D@std@@V?$allocator@D@2@@std@@@2@V?$allocator@U?$pair@$$CBV?$basic_string@DU?$char_traits@D@std@@V?$allocator@D@2@@std@@PAVCItemData@CMetpParser@hgx@@@std@@@2@$0A@@std@@@0@0PB_WIUinput_iterator_tag@0@@Z 10011350 f i MetpParserD:MetpParser.obj
 0001:000103d0       ??$_Checked_base@Viterator@?$_Tree@V?$_Tmap_traits@V?$basic_string@DU?$char_traits@D@std@@V?$allocator@D@2@@std@@PAVCItemData@CMetpParser@hgx@@U?$less@V?$basic_string@DU?$char_traits@D@std@@V?$allocator@D@2@@std@@@2@V?$allocator@U?$pair@$$CBV?$basic_string@DU?$char_traits@D@std@@V?$allocator@D@2@@std@@PAVCItemData@CMetpParser@hgx@@@std@@@2@$0A@@std@@@std@@@std@@YA?AViterator@?$_Tree@V?$_Tmap_traits@V?$basic_string@DU?$char_traits@D@std@@V?$allocator@D@2@@std@@PAVCItemData@CMetpParser@hgx@@U?$less@V?$basic_string@DU?$char_traits@D@std@@V?$allocator@D@2@@std@@@2@V?$allocator@U?$pair@$$CBV?$basic_string@DU?$char_traits@D@std@@V?$allocator@D@2@@std@@PAVCItemData@CMetpParser@hgx@@@std@@@2@$0A@@std@@@0@AAV120@U_Unchanged_checked_iterator_base_type_tag@0@@Z 100113d0 f i MetpParserD:MetpParser.obj
 0001:00010430       ??0CLibDocZip@@QAE@XZ      10011430 f   MetpParserD:LibDocZip.obj
 0001:00010480       ??_GCLibDocZip@@UAEPAXI@Z  10011480 f i MetpParserD:LibDocZip.obj
 0001:00010480       ??_ECLibDocZip@@UAEPAXI@Z  10011480 f i MetpParserD:LibDocZip.obj
 0001:000104e0       ??1CLibDocZip@@UAE@XZ      100114e0 f   MetpParserD:LibDocZip.obj
 0001:00010560       ?ZipData@CLibDocZip@@QAEHPAPAEPAKPAEK@Z 10011560 f   MetpParserD:LibDocZip.obj
 0001:000106b0       ?UnZipData@CLibDocZip@@QAEHPAPAEPAKPAEK@Z 100116b0 f   MetpParserD:LibDocZip.obj
 0001:00010850       _compress2@20              10011850 f   MetpParserD:compress.obj
 0001:00010900       _compress@16               10011900 f   MetpParserD:compress.obj
 0001:00010920       _compressBound@4           10011920 f   MetpParserD:compress.obj
 0001:00010940       _uncompress@16             10011940 f   MetpParserD:uncompr.obj
 0001:000109f0       _deflateSetDictionary@12   100119f0 f   MetpParserD:deflate.obj
 0001:00010b00       _deflateSetHeader@8        10011b00 f   MetpParserD:deflate.obj
 0001:00010b30       _deflatePrime@12           10011b30 f   MetpParserD:deflate.obj
 0001:00010b70       _deflateTune@20            10011b70 f   MetpParserD:deflate.obj
 0001:00010bc0       _deflateBound@8            10011bc0 f   MetpParserD:deflate.obj
 0001:00010c80       _deflate@8                 10011c80 f   MetpParserD:deflate.obj
 0001:00011450       _deflateEnd@4              10012450 f   MetpParserD:deflate.obj
 0001:00011530       _deflateCopy@8             10012530 f   MetpParserD:deflate.obj
 0001:000121f0       _deflateReset@4            100131f0 f   MetpParserD:deflate.obj
 0001:00012280       _deflateParams@12          10013280 f   MetpParserD:deflate.obj
 0001:00012360       _deflateInit2_@32          10013360 f   MetpParserD:deflate.obj
 0001:00012590       _deflateInit_@16           10013590 f   MetpParserD:deflate.obj
 0001:000125c0       _inflateReset@4            100135c0 f   MetpParserD:inflate.obj
 0001:00012630       _inflatePrime@12           10013630 f   MetpParserD:inflate.obj
 0001:00012690       _inflateInit2_@16          10013690 f   MetpParserD:inflate.obj
 0001:00012760       _inflateInit_@12           10013760 f   MetpParserD:inflate.obj
 0001:00012890       _inflate@8                 10013890 f   MetpParserD:inflate.obj
 0001:00013e70       _inflateEnd@4              10014e70 f   MetpParserD:inflate.obj
 0001:00013ec0       _inflateSetDictionary@12   10014ec0 f   MetpParserD:inflate.obj
 0001:00013fa0       _inflateGetHeader@8        10014fa0 f   MetpParserD:inflate.obj
 0001:00014030       _inflateSync@4             10015030 f   MetpParserD:inflate.obj
 0001:00014120       _inflateSyncPoint@4        10015120 f   MetpParserD:inflate.obj
 0001:00014150       _inflateCopy@8             10015150 f   MetpParserD:inflate.obj
 0001:000142a0       _adler32@12                100152a0 f   MetpParserD:adler32.obj
 0001:00014530       _adler32_combine@12        10015530 f   MetpParserD:adler32.obj
 0001:000151b0       __tr_tally                 100161b0 f   MetpParserD:trees.obj
 0001:000158e0       __tr_init                  100168e0 f   MetpParserD:trees.obj
 0001:00015c90       __tr_stored_block          10016c90 f   MetpParserD:trees.obj
 0001:00015d30       __tr_align                 10016d30 f   MetpParserD:trees.obj
 0001:00015f20       __tr_flush_block           10016f20 f   MetpParserD:trees.obj
 0001:00016130       _get_crc_table@0           10017130 f   MetpParserD:crc32.obj
 0001:00016720       _crc32_combine@12          10017720 f   MetpParserD:crc32.obj
 0001:00016800       _crc32@12                  10017800 f   MetpParserD:crc32.obj
 0001:00016820       _zlibVersion@0             10017820 f   MetpParserD:zutil.obj
 0001:00016830       _zlibCompileFlags@0        10017830 f   MetpParserD:zutil.obj
 0001:00016840       _zError@4                  10017840 f   MetpParserD:zutil.obj
 0001:00016860       _zcalloc                   10017860 f   MetpParserD:zutil.obj
 0001:00016880       _zcfree                    10017880 f   MetpParserD:zutil.obj
 0001:00016890       _match_init                10017890 f   MetpParserD:gvmat32c.obj
 0001:000168b0       _longest_match             100178b0 f   MetpParserD:gvmat32c.obj
 0001:000168e0       _inflate_fast              100178e0 f   MetpParserD:inffas32.obj
 0001:00017080       _inflate_table             10018080 f   MetpParserD:inftrees.obj
 0001:00017568       _longest_match_7fff        10018568 f   MetpParserD:gvmat32.obj
 0001:00017a49       _cpudetect32               10018a49 f   MetpParserD:gvmat32.obj
 0001:00017a87       _longest_match_686         10018a87 f   MetpParserD:gvmat32.obj
 0001:00017c70       ?SetDumpFilename@SEHError@@SAXABV?$basic_string@DU?$char_traits@D@std@@V?$allocator@D@2@@std@@@Z 10018c70 f   WbersClientLibD:SEHError.obj
 0001:00017cb0       ?SetUserId@SEHError@@SAXABV?$basic_string@DU?$char_traits@D@std@@V?$allocator@D@2@@std@@@Z 10018cb0 f   WbersClientLibD:SEHError.obj
 0001:00017cf0       ?SetGameId@SEHError@@SAXABV?$basic_string@DU?$char_traits@D@std@@V?$allocator@D@2@@std@@@Z 10018cf0 f   WbersClientLibD:SEHError.obj
 0001:00017d30       ?SetStatus@SEHError@@SAXH@Z 10018d30 f   WbersClientLibD:SEHError.obj
 0001:00017d60       ?Weblog_Default_Handler_Func@@YA_NXZ 10018d60 f   WbersClientLibD:SEHError.obj
 0001:00017d90       ?AutoSetVersion@SEHError@@SAXXZ 10018d90 f   WbersClientLibD:SEHError.obj
 0001:00017fe0       ?SetSubjectName@SEHError@@SAXABV?$basic_string@DU?$char_traits@D@std@@V?$allocator@D@2@@std@@@Z 10018fe0 f   WbersClientLibD:SEHError.obj
 0001:00018020       ?SetVersion@SEHError@@SAXABV?$basic_string@DU?$char_traits@D@std@@V?$allocator@D@2@@std@@@Z 10019020 f   WbersClientLibD:SEHError.obj
 0001:00018060       ?SetSaveFilename@SEHError@@SAXABV?$basic_string@DU?$char_traits@D@std@@V?$allocator@D@2@@std@@@Z 10019060 f   WbersClientLibD:SEHError.obj
 0001:000180c0       ?MyUnhandledExceptionFilter@@YGJPAU_EXCEPTION_POINTERS@@@Z 100190c0 f   WbersClientLibD:SEHError.obj
 0001:00018200       ?deleteIntermediateFile@@YAXH@Z 10019200 f   WbersClientLibD:SEHError.obj
 0001:00018270       ?CheckErrorFile@SEHError@@CAXXZ 10019270 f   WbersClientLibD:SEHError.obj
 0001:00018420       ?SendSurvivalReport@SEHError@@SAXABV?$basic_string@DU?$char_traits@D@std@@V?$allocator@D@2@@std@@@Z 10019420 f   WbersClientLibD:SEHError.obj
 0001:00018660       ?InitSEH@SEHError@@SAXP6A_NXZ@Z 10019660 f   WbersClientLibD:SEHError.obj
 0001:000186d0       ??0SEHError@@QAE@IPAU_EXCEPTION_POINTERS@@@Z 100196d0 f   WbersClientLibD:SEHError.obj
 0001:00018710       ??1SEHError@@QAE@XZ        10019710 f   WbersClientLibD:SEHError.obj
 0001:00018740       ?EnumerateLoadedModulesProc@@YGHPADKKPAX@Z 10019740 f   WbersClientLibD:SEHError.obj
 0001:00018790       ?WriteMiniDump@SEHError@@QAEXPBD@Z 10019790 f   WbersClientLibD:SEHError.obj
 0001:000188c0       ?SaveErrorToHDD@SEHError@@QAEXPBD@Z 100198c0 f   WbersClientLibD:SEHError.obj
 0001:00018d70       ?ConvertSimpleException@SEHError@@SAPBDK@Z 10019d70 f   WbersClientLibD:SEHError.obj
 0001:00019020       ??4?$basic_string@DU?$char_traits@D@std@@V?$allocator@D@2@@std@@QAEAAV01@ABV01@@Z 1001a020 f i WbersClientLibD:SEHError.obj
 0001:00019070       ??Y?$basic_string@DU?$char_traits@D@std@@V?$allocator@D@2@@std@@QAEAAV01@PBD@Z 1001a070 f i WbersClientLibD:SEHError.obj
 0001:000190c0       ?rfind@?$basic_string@DU?$char_traits@D@std@@V?$allocator@D@2@@std@@QBEIPBDI@Z 1001a0c0 f i WbersClientLibD:SEHError.obj
 0001:00019120       ?substr@?$basic_string@DU?$char_traits@D@std@@V?$allocator@D@2@@std@@QBE?AV12@II@Z 1001a120 f i WbersClientLibD:SEHError.obj
 0001:00019190       ??0?$basic_string@DU?$char_traits@D@std@@V?$allocator@D@2@@std@@QAE@ABV01@II@Z 1001a190 f i WbersClientLibD:SEHError.obj
 0001:00019250       ?append@?$basic_string@DU?$char_traits@D@std@@V?$allocator@D@2@@std@@QAEAAV12@PBD@Z 1001a250 f i WbersClientLibD:SEHError.obj
 0001:000192b0       ?assign@?$basic_string@DU?$char_traits@D@std@@V?$allocator@D@2@@std@@QAEAAV12@ABV12@@Z 1001a2b0 f i WbersClientLibD:SEHError.obj
 0001:00019300       ?rfind@?$basic_string@DU?$char_traits@D@std@@V?$allocator@D@2@@std@@QBEIPBDII@Z 1001a300 f i WbersClientLibD:SEHError.obj
 0001:00019430       ?eq@?$char_traits@D@std@@SA_NABD0@Z 1001a430 f i WbersClientLibD:SEHError.obj
 0001:00019470       ?append@?$basic_string@DU?$char_traits@D@std@@V?$allocator@D@2@@std@@QAEAAV12@PBDI@Z 1001a470 f i WbersClientLibD:SEHError.obj
 0001:00019570       ?append@?$basic_string@DU?$char_traits@D@std@@V?$allocator@D@2@@std@@QAEAAV12@ABV12@II@Z 1001a570 f i WbersClientLibD:SEHError.obj
 0001:00019670       ??$?9DU?$char_traits@D@std@@V?$allocator@D@1@@std@@YA_NABV?$basic_string@DU?$char_traits@D@std@@V?$allocator@D@2@@0@PBD@Z 1001a670 f i WbersClientLibD:SEHError.obj
 0001:000196c0       ??$?8DU?$char_traits@D@std@@V?$allocator@D@1@@std@@YA_NABV?$basic_string@DU?$char_traits@D@std@@V?$allocator@D@2@@0@PBD@Z 1001a6c0 f i WbersClientLibD:SEHError.obj
 0001:00019710       ?compare@?$basic_string@DU?$char_traits@D@std@@V?$allocator@D@2@@std@@QBEHPBD@Z 1001a710 f i WbersClientLibD:SEHError.obj
 0001:00019770       ?SetLogServerIp@Wbers@@SAXABV?$basic_string@DU?$char_traits@D@std@@V?$allocator@D@2@@std@@@Z 1001a770 f   WbersClientLibD:Wbers.obj
 0001:000197b0       ?SetLogServerFile@Wbers@@SAXABV?$basic_string@DU?$char_traits@D@std@@V?$allocator@D@2@@std@@@Z 1001a7b0 f   WbersClientLibD:Wbers.obj
 0001:000197f0       ?SetProjectName@Wbers@@SAXABV?$basic_string@DU?$char_traits@D@std@@V?$allocator@D@2@@std@@@Z 1001a7f0 f   WbersClientLibD:Wbers.obj
 0001:00019830       ?SetLogServerPort@Wbers@@SAXH@Z 1001a830 f   WbersClientLibD:Wbers.obj
 0001:00019860       ??0Wbers@@AAE@XZ           1001a860 f   WbersClientLibD:Wbers.obj
 0001:000198a0       ??_EWbers@@EAEPAXI@Z       1001a8a0 f i WbersClientLibD:Wbers.obj
 0001:000198a0       ??_GWbers@@EAEPAXI@Z       1001a8a0 f i WbersClientLibD:Wbers.obj
 0001:00019900       ??1Wbers@@EAE@XZ           1001a900 f   WbersClientLibD:Wbers.obj
 0001:00019940       ?_WebLogTF_free@Wbers@@SGKPAX@Z 1001a940 f   WbersClientLibD:Wbers.obj
 0001:00019cc0       ??_G_ThreadContext@@QAEPAXI@Z 1001acc0 f i WbersClientLibD:Wbers.obj
 0001:00019d20       ??1_ThreadContext@@QAE@XZ  1001ad20 f i WbersClientLibD:Wbers.obj
 0001:00019df0       ??_G?$basic_string@DU?$char_traits@D@std@@V?$allocator@D@2@@std@@QAEPAXI@Z 1001adf0 f i WbersClientLibD:Wbers.obj
 0001:00019e50       ?weblog_free@Wbers@@SA_NABV?$basic_string@DU?$char_traits@D@std@@V?$allocator@D@2@@std@@P6AXH@Z_N2@Z 1001ae50 f   WbersClientLibD:Wbers.obj
 0001:0001a070       ??0_ThreadContext@@QAE@ABV?$basic_string@DU?$char_traits@D@std@@V?$allocator@D@2@@std@@0P6AXH@Z_N@Z 1001b070 f i WbersClientLibD:Wbers.obj
 0001:0001a240       ?weblog_free@Wbers@@SA_NABVLogBuilder@@P6AXH@Z@Z 1001b240 f   WbersClientLibD:Wbers.obj
 0001:0001a2a0       ?isCustomProject@LogBuilder@@QBE_NXZ 1001b2a0 f i WbersClientLibD:Wbers.obj
 0001:0001a2d0       ?isSync@LogBuilder@@QBE_NXZ 1001b2d0 f i WbersClientLibD:Wbers.obj
 0001:0001a300       ?getBuffer@LogBuilder@@QBEABV?$basic_string@DU?$char_traits@D@std@@V?$allocator@D@2@@std@@XZ 1001b300 f i WbersClientLibD:Wbers.obj
 0001:0001a330       ?weblog@Wbers@@SA_NABV?$basic_string@DU?$char_traits@D@std@@V?$allocator@D@2@@std@@0P6AXH@Z_N@Z 1001b330 f   WbersClientLibD:Wbers.obj
 0001:0001a540       ?weblog@Wbers@@SA_NABVLogBuilder@@ABV?$basic_string@DU?$char_traits@D@std@@V?$allocator@D@2@@std@@P6AXH@Z@Z 1001b540 f   WbersClientLibD:Wbers.obj
 0001:0001a5a0       ?_WebPost@Wbers@@SGKPAX@Z  1001b5a0 f   WbersClientLibD:Wbers.obj
 0001:0001a6f0       ?append@?$basic_string@DU?$char_traits@D@std@@V?$allocator@D@2@@std@@QAEAAV12@ABV12@@Z 1001b6f0 f i WbersClientLibD:Wbers.obj
 0001:0001a740       ??A?$basic_string@DU?$char_traits@D@std@@V?$allocator@D@2@@std@@QBEABDI@Z 1001b740 f i WbersClientLibD:Wbers.obj
 0001:0001a800       ?resize@?$basic_string@DU?$char_traits@D@std@@V?$allocator@D@2@@std@@QAEXI@Z 1001b800 f i WbersClientLibD:Wbers.obj
 0001:0001a850       ?resize@?$basic_string@DU?$char_traits@D@std@@V?$allocator@D@2@@std@@QAEXID@Z 1001b850 f i WbersClientLibD:Wbers.obj
 0001:0001a8c0       ?append@?$basic_string@DU?$char_traits@D@std@@V?$allocator@D@2@@std@@QAEAAV12@ID@Z 1001b8c0 f i WbersClientLibD:Wbers.obj
 0001:0001a960       ?_Chassign@?$basic_string@DU?$char_traits@D@std@@V?$allocator@D@2@@std@@IAEXIID@Z 1001b960 f i WbersClientLibD:Wbers.obj
 0001:0001a9e0       ?assign@?$char_traits@D@std@@SAPADPADID@Z 1001b9e0 f i WbersClientLibD:Wbers.obj
 0001:0001aa30       ??0LogBuilder@@QAE@ABV?$basic_string@DU?$char_traits@D@std@@V?$allocator@D@2@@std@@0@Z 1001ba30 f   WbersClientLibD:LogBuilder.obj
 0001:0001aad0       ?setLogInfo@LogBuilder@@AAEXABV?$basic_string@DU?$char_traits@D@std@@V?$allocator@D@2@@std@@0@Z 1001bad0 f   WbersClientLibD:LogBuilder.obj
 0001:0001ab70       ?add@LogBuilder@@QAEXPBD0@Z 1001bb70 f   WbersClientLibD:LogBuilder.obj
 0001:0001abf0       ?add@LogBuilder@@QAEXPBDABV?$basic_string@DU?$char_traits@D@std@@V?$allocator@D@2@@std@@@Z 1001bbf0 f   WbersClientLibD:LogBuilder.obj
 0001:0001ac70       ?addFormat@LogBuilder@@QAAXPBD0ZZ 1001bc70 f   WbersClientLibD:LogBuilder.obj
 0001:0001ad60       ?LogAdd@@YAXPBD0@Z         1001bd60 f   WbersClientLibD:LogBuilder.obj
 0001:0001adf0       ?LogAddFormat@@YAXPBD0ZZ   1001bdf0 f   WbersClientLibD:LogBuilder.obj
 0001:0001aed0       ?LogClear@@YAXXZ           1001bed0 f   WbersClientLibD:LogBuilder.obj
 0001:0001af00       ?LogGetBuffer@@YAPBDXZ     1001bf00 f   WbersClientLibD:LogBuilder.obj
 0001:0001af30       ?LogGetBufferCount@@YAHXZ  1001bf30 f   WbersClientLibD:LogBuilder.obj
 0001:0001af60       ??0StringBuilder@@QAE@PADH@Z 1001bf60 f   WbersClientLibD:LogBuilder.obj
 0001:0001afb0       ?getBuffer@StringBuilder@@QAEPADXZ 1001bfb0 f   WbersClientLibD:LogBuilder.obj
 0001:0001afe0       ?getPos@StringBuilder@@QAEHXZ 1001bfe0 f   WbersClientLibD:LogBuilder.obj
 0001:0001b010       ?getCapacity@StringBuilder@@QAEHXZ 1001c010 f   WbersClientLibD:LogBuilder.obj
 0001:0001b040       ?printf@StringBuilder@@QAAHPBDZZ 1001c040 f   WbersClientLibD:LogBuilder.obj
 0001:0001b0f0       ??Y?$basic_string@DU?$char_traits@D@std@@V?$allocator@D@2@@std@@QAEAAV01@ABV01@@Z 1001c0f0 f i WbersClientLibD:LogBuilder.obj
 0001:0001b140       ?GetExeHeaderSum@@YAKXZ    1001c140 f   WbersClientLibD:CheckSum.obj
 0001:0001b2c0       ?GetModInfoString@@YA_NPADH@Z 1001c2c0 f   WbersClientLibD:CheckSum.obj
 0001:0001b530       ?InetPost@@YAKPBD00G@Z     1001c530 f   WbersClientLibD:InetPost.obj
 0001:0001c040       ??0ScopedMalloc@@QAE@PAD@Z 1001d040 f i WbersClientLibD:InetPost.obj
 0001:0001c080       ??1ScopedMalloc@@QAE@XZ    1001d080 f i WbersClientLibD:InetPost.obj
 0001:0001c0d0       ??BScopedHINTERNET@@QAEPAXXZ 1001d0d0 f i WbersClientLibD:InetPost.obj
 0001:0001c100       ??0ScopedHINTERNET@@QAE@PAX@Z 1001d100 f i WbersClientLibD:InetPost.obj
 0001:0001c140       ??1ScopedHINTERNET@@QAE@XZ 1001d140 f i WbersClientLibD:InetPost.obj
 0001:0001c1a0       ?GenerateMultipartBoundary@@YA?AV?$basic_string@DU?$char_traits@D@std@@V?$allocator@D@2@@std@@XZ 1001d1a0 f   WbersClientLibD:InetPost.obj
 0001:0001c2f0       ?GetFileContents@@YAKABV?$basic_string@DU?$char_traits@D@std@@V?$allocator@D@2@@std@@AAPADAAK@Z 1001d2f0 f   WbersClientLibD:InetPost.obj
 0001:0001c490       ?GenerateRequestBody@@YA?AV?$basic_string@DU?$char_traits@D@std@@V?$allocator@D@2@@std@@ABV12@0@Z 1001d490 f   WbersClientLibD:InetPost.obj
 0001:0001c820       ?GenerateRequestTail@@YA?AV?$basic_string@DU?$char_traits@D@std@@V?$allocator@D@2@@std@@ABV12@@Z 1001d820 f   WbersClientLibD:InetPost.obj
 0001:0001c930       ??0?$basic_string@DU?$char_traits@D@std@@V?$allocator@D@2@@std@@QAE@ID@Z 1001d930 f i WbersClientLibD:InetPost.obj
 0001:0001c9e0       ?data@?$basic_string@DU?$char_traits@D@std@@V?$allocator@D@2@@std@@QBEPBDXZ 1001d9e0 f i WbersClientLibD:InetPost.obj
 0001:0001ca20       ?assign@?$basic_string@DU?$char_traits@D@std@@V?$allocator@D@2@@std@@QAEAAV12@ID@Z 1001da20 f i WbersClientLibD:InetPost.obj
 0001:0001caa0       ??$?HDU?$char_traits@D@std@@V?$allocator@D@1@@std@@YA?AV?$basic_string@DU?$char_traits@D@std@@V?$allocator@D@2@@0@PBDABV10@@Z 1001daa0 f i WbersClientLibD:InetPost.obj
 0001:0001cb70       ??$sprintf_s@$0N@@@YAHAAY0N@DPBDZZ 1001db70 f i WbersClientLibD:InetPost.obj
 0001:0001cbc0       ??$?HDU?$char_traits@D@std@@V?$allocator@D@1@@std@@YA?AV?$basic_string@DU?$char_traits@D@std@@V?$allocator@D@2@@0@ABV10@PBD@Z 1001dbc0 f i WbersClientLibD:InetPost.obj
 0001:0001cc90       ??$?HDU?$char_traits@D@std@@V?$allocator@D@1@@std@@YA?AV?$basic_string@DU?$char_traits@D@std@@V?$allocator@D@2@@0@ABV10@0@Z 1001dc90 f i WbersClientLibD:InetPost.obj
 0001:0001cd60       ??4?$basic_string@DU?$char_traits@D@std@@V?$allocator@D@2@@std@@QAEAAV01@PBD@Z 1001dd60 f i WbersClientLibD:InetPost.obj
 0001:0001cdb0       ??0SyncObject@@QAE@XZ      1001ddb0 f i CommLibForSvr:Sync.obj
 0001:0001cdc0       ??1HanCriticalSection@@UAE@XZ 1001ddc0 f   CommLibForSvr:Sync.obj
 0001:0001cdf0       ??BHanCriticalSection@@QAEPAU_RTL_CRITICAL_SECTION@@XZ 1001ddf0 f   CommLibForSvr:Sync.obj
 0001:0001ce00       ?Attach@HanCriticalSection@@QAEXPAU_RTL_CRITICAL_SECTION@@@Z 1001de00 f   CommLibForSvr:Sync.obj
 0001:0001ce40       ?Detach@HanCriticalSection@@QAE?AU_RTL_CRITICAL_SECTION@@XZ 1001de40 f   CommLibForSvr:Sync.obj
 0001:0001ce80       ?Enter@HanCriticalSection@@QAEXXZ 1001de80 f   CommLibForSvr:Sync.obj
 0001:0001ce90       ?TryEnter@HanCriticalSection@@QAE_NXZ 1001de90 f   CommLibForSvr:Sync.obj
 0001:0001cea0       ?Leave@HanCriticalSection@@QAEXXZ 1001dea0 f   CommLibForSvr:Sync.obj
 0001:0001ceb0       ?Lock@HanCriticalSection@@UAE_NK@Z 1001deb0 f   CommLibForSvr:Sync.obj
 0001:0001cec0       ?Unlock@HanCriticalSection@@UAE_NXZ 1001dec0 f   CommLibForSvr:Sync.obj
 0001:0001ced0       ?Lock@HanLock@@QAE_NK@Z    1001ded0 f   CommLibForSvr:Sync.obj
 0001:0001cf00       ?Unlock@HanLock@@QAE_NXZ   1001df00 f   CommLibForSvr:Sync.obj
 0001:0001cf30       ?IsLocked@HanLock@@QAE_NXZ 1001df30 f   CommLibForSvr:Sync.obj
 0001:0001cf40       ?Attach@HanLock@@QAEXPAVSyncObject@@@Z 1001df40 f   CommLibForSvr:Sync.obj
 0001:0001cf60       ?Detach@HanLock@@QAEPAVSyncObject@@XZ 1001df60 f   CommLibForSvr:Sync.obj
 0001:0001cf70       ??0HanCriticalSection@@QAE@K@Z 1001df70 f   CommLibForSvr:Sync.obj
 0001:0001cfa0       ??_EHanCriticalSection@@UAEPAXI@Z 1001dfa0 f i CommLibForSvr:Sync.obj
 0001:0001cfa0       ??_GHanCriticalSection@@UAEPAXI@Z 1001dfa0 f i CommLibForSvr:Sync.obj
 0001:0001cfe0       ??0HanLock@@QAE@AAVSyncObject@@K@Z 1001dfe0 f   CommLibForSvr:Sync.obj
 0001:0001d010       ??0HanLock@@QAE@PAVSyncObject@@K@Z 1001e010 f   CommLibForSvr:Sync.obj
 0001:0001d040       ??1HanLock@@UAE@XZ         1001e040 f   CommLibForSvr:Sync.obj
 0001:0001d070       ??_GHanLock@@UAEPAXI@Z     1001e070 f i CommLibForSvr:Sync.obj
 0001:0001d070       ??_EHanLock@@UAEPAXI@Z     1001e070 f i CommLibForSvr:Sync.obj
 0001:0001d0a6       _GetSystemDirectoryA@8     1001e0a6 f   kernel32:KERNEL32.dll
 0001:0001d0ac       _IsBadStringPtrA@8         1001e0ac f   kernel32:KERNEL32.dll
 0001:0001d0b2       _FileTimeToSystemTime@8    1001e0b2 f   kernel32:KERNEL32.dll
 0001:0001d0b8       _GetFileAttributesExA@12   1001e0b8 f   kernel32:KERNEL32.dll
 0001:0001d0be       _GetModuleFileNameA@12     1001e0be f   kernel32:KERNEL32.dll
 0001:0001d0c4       _Sleep@4                   1001e0c4 f   kernel32:KERNEL32.dll
 0001:0001d0ca       _GetTickCount@0            1001e0ca f   kernel32:KERNEL32.dll
 0001:0001d0d0       _DeleteFileA@4             1001e0d0 f   kernel32:KERNEL32.dll
 0001:0001d0d6       _CloseHandle@4             1001e0d6 f   kernel32:KERNEL32.dll
 0001:0001d0dc       _ReadFile@20               1001e0dc f   kernel32:KERNEL32.dll
 0001:0001d0e2       _CreateFileA@28            1001e0e2 f   kernel32:KERNEL32.dll
 0001:0001d0e8       _SetUnhandledExceptionFilter@4 1001e0e8 f   kernel32:KERNEL32.dll
 0001:0001d0ee       _OutputDebugStringA@4      1001e0ee f   kernel32:KERNEL32.dll
 0001:0001d0f4       _GetCurrentProcess@0       1001e0f4 f   kernel32:KERNEL32.dll
 0001:0001d0fa       _GetCurrentProcessId@0     1001e0fa f   kernel32:KERNEL32.dll
 0001:0001d100       _GetCurrentThreadId@0      1001e100 f   kernel32:KERNEL32.dll
 0001:0001d106       _WriteFile@20              1001e106 f   kernel32:KERNEL32.dll
 0001:0001d10c       _GetCurrentThread@0        1001e10c f   kernel32:KERNEL32.dll
 0001:0001d112       _GetLastError@0            1001e112 f   kernel32:KERNEL32.dll
 0001:0001d118       _SetThreadPriority@8       1001e118 f   kernel32:KERNEL32.dll
 0001:0001d11e       _CreateThread@24           1001e11e f   kernel32:KERNEL32.dll
 0001:0001d124       _Module32First@8           1001e124 f   kernel32:KERNEL32.dll
 0001:0001d12a       _CreateToolhelp32Snapshot@8 1001e12a f   kernel32:KERNEL32.dll
 0001:0001d130       _Module32Next@8            1001e130 f   kernel32:KERNEL32.dll
 0001:0001d136       _GetFileSize@8             1001e136 f   kernel32:KERNEL32.dll
 0001:0001d13c       _DeleteCriticalSection@4   1001e13c f   kernel32:KERNEL32.dll
 0001:0001d142       _InitializeCriticalSection@4 1001e142 f   kernel32:KERNEL32.dll
 0001:0001d148       _EnterCriticalSection@4    1001e148 f   kernel32:KERNEL32.dll
 0001:0001d14e       _TryEnterCriticalSection@4 1001e14e f   kernel32:KERNEL32.dll
 0001:0001d154       _LeaveCriticalSection@4    1001e154 f   kernel32:KERNEL32.dll
 0001:0001d15a       _InitializeCriticalSectionAndSpinCount@8 1001e15a f   kernel32:KERNEL32.dll
 0001:0001d160       _MessageBoxA@16            1001e160 f   user32:USER32.dll
 0001:0001d166       _LoadStringA@16            1001e166 f   user32:USER32.dll
 0001:0001d170       __RTC_InitBase             1001e170 f   LIBCMTD:init.obj
 0001:0001d1a0       __RTC_Shutdown             1001e1a0 f   LIBCMTD:init.obj
 0001:0001d1c0       @__security_check_cookie@4 1001e1c0 f   LIBCMTD:secchk.obj
 0001:0001d1d0       __RTC_CheckEsp             1001e1d0 f   LIBCMTD:stack.obj
 0001:0001d200       @_RTC_CheckStackVars@8     1001e200 f   LIBCMTD:stack.obj
 0001:0001d260       @_RTC_AllocaHelper@12      1001e260 f   LIBCMTD:stack.obj
 0001:0001d290       @_RTC_CheckStackVars2@12   1001e290 f   LIBCMTD:stack.obj
 0001:0001d370       __wassert                  1001e370 f   LIBCMTD:wassert.obj
 0001:0001e110       __invoke_watson_if_error   1001f110 f i LIBCMTD:wassert.obj
 0001:0001e140       __invoke_watson_if_oneof   1001f140 f i LIBCMTD:wassert.obj
 0001:0001e1c0       ?_JumpToContinuation@@YGXPAXPAUEHRegistrationNode@@@Z 1001f1c0 f   LIBCMTD:trnsctrl.obj
 0001:0001e200       ?_CallMemberFunction0@@YGXPAX0@Z 1001f200 f   LIBCMTD:trnsctrl.obj
 0001:0001e210       ?_CallMemberFunction1@@YGXPAX00@Z 1001f210 f   LIBCMTD:trnsctrl.obj
 0001:0001e220       ?_CallMemberFunction2@@YGXPAX00H@Z 1001f220 f   LIBCMTD:trnsctrl.obj
 0001:0001e230       ?_UnwindNestedFrames@@YGXPAUEHRegistrationNode@@PAUEHExceptionRecord@@@Z 1001f230 f   LIBCMTD:trnsctrl.obj
 0001:0001e290       ___CxxFrameHandler         1001f290 f   LIBCMTD:trnsctrl.obj
 0001:0001e2d0       ___CxxFrameHandler3        1001f2d0 f   LIBCMTD:trnsctrl.obj
 0001:0001e310       ___CxxFrameHandler2        1001f310 f   LIBCMTD:trnsctrl.obj
 0001:0001e350       ___CxxLongjmpUnwind@4      1001f350 f   LIBCMTD:trnsctrl.obj
 0001:0001e380       ?_CallCatchBlock2@@YAPAXPAUEHRegistrationNode@@PBU_s_FuncInfo@@PAXHK@Z 1001f380 f   LIBCMTD:trnsctrl.obj
 0001:0001e440       ?_CallSETranslator@@YAHPAUEHExceptionRecord@@PAUEHRegistrationNode@@PAX2PBU_s_FuncInfo@@H1@Z 1001f440 f   LIBCMTD:trnsctrl.obj
 0001:0001e5e0       ?_GetRangeOfTrysToCheck@@YAPBU_s_TryBlockMapEntry@@PBU_s_FuncInfo@@HHPAI1@Z 1001f5e0 f   LIBCMTD:trnsctrl.obj
 0001:0001e670       __CreateFrameInfo          1001f670 f   LIBCMTD:trnsctrl.obj
 0001:0001e6a0       __IsExceptionObjectToBeDestroyed 1001f6a0 f   LIBCMTD:trnsctrl.obj
 0001:0001e6d0       __FindAndUnlinkFrame       1001f6d0 f   LIBCMTD:trnsctrl.obj
 0001:0001e730       _strcpy                    1001f730 f   LIBCMTD:strcat.obj
 0001:0001e740       _strcat                    1001f740 f   LIBCMTD:strcat.obj
 0001:0001e830       _strlen                    1001f830 f   LIBCMTD:strlen.obj
 0001:0001e8c0       _strncpy                   1001f8c0 f   LIBCMTD:strncpy.obj
 0001:0001e9f0       _memset                    1001f9f0 f   LIBCMTD:memset.obj
 0001:0001ea70       _strstr                    1001fa70 f   LIBCMTD:strstr.obj
 0001:0001eb00       _sprintf                   1001fb00 f   LIBCMTD:sprintf.obj
 0001:0001ec80       __sprintf_l                1001fc80 f   LIBCMTD:sprintf.obj
 0001:0001ecb0       _sprintf_s                 1001fcb0 f   LIBCMTD:sprintf.obj
 0001:0001ece0       __sprintf_s_l              1001fce0 f   LIBCMTD:sprintf.obj
 0001:0001ed10       __snprintf_s               1001fd10 f   LIBCMTD:sprintf.obj
 0001:0001ed40       __snprintf_s_l             1001fd40 f   LIBCMTD:sprintf.obj
 0001:0001ed70       __sprintf_p                1001fd70 f   LIBCMTD:sprintf.obj
 0001:0001eda0       __sprintf_p_l              1001fda0 f   LIBCMTD:sprintf.obj
 0001:0001edd0       __scprintf                 1001fdd0 f   LIBCMTD:sprintf.obj
 0001:0001edf0       __scprintf_p               1001fdf0 f   LIBCMTD:sprintf.obj
 0001:0001ee10       __scprintf_l               1001fe10 f   LIBCMTD:sprintf.obj
 0001:0001ee40       __scprintf_p_l             1001fe40 f   LIBCMTD:sprintf.obj
 0001:0001ee70       __initp_misc_invarg        1001fe70 f   LIBCMTD:invarg.obj
 0001:0001ee80       __invalid_parameter        1001fe80 f   LIBCMTD:invarg.obj
 0001:0001eef0       __invoke_watson            1001fef0 f   LIBCMTD:invarg.obj
 0001:0001f030       __set_invalid_parameter_handler 10020030 f   LIBCMTD:invarg.obj
 0001:0001f070       __get_invalid_parameter_handler 10020070 f   LIBCMTD:invarg.obj
 0001:0001f0a0       ?_invalid_parameter@@YAXPBG00II@Z 100200a0 f   LIBCMTD:invarg.obj
 0001:0001f0d0       ?_invoke_watson@@YAXPBG00II@Z 100200d0 f   LIBCMTD:invarg.obj
 0001:0001f100       __CrtSetReportHookW2       10020100 f   LIBCMTD:dbgrptw.obj
 0001:0001f420       __CrtDbgReportW            10020420 f   LIBCMTD:dbgrptw.obj
 0001:0001f460       __CrtDbgReportWV           10020460 f i LIBCMTD:dbgrptw.obj
 0001:0001f7a0       ___crtMessageWindowW       100207a0 f   LIBCMTD:dbgrptw.obj
 0001:0001fba0       ?_CrtDbgReportW@@YAHHPBGH00ZZ 10020ba0 f   LIBCMTD:dbgrptw.obj
 0001:0001fbe0       __CxxThrowException@8      10020be0 f   LIBCMTD:throw.obj
 0001:0001fc40       ?name@type_info@@QBEPBDPAU__type_info_node@@@Z 10020c40 f   LIBCMTD:typinfo.obj
 0001:0001fc60       ??1type_info@@UAE@XZ       10020c60 f   LIBCMTD:typinfo.obj
 0001:0001fc80       ??_Gtype_info@@UAEPAXI@Z   10020c80 f i LIBCMTD:typinfo.obj
 0001:0001fc80       ??_Etype_info@@UAEPAXI@Z   10020c80 f i LIBCMTD:typinfo.obj
 0001:0001fcb0       ?_name_internal_method@type_info@@QBEPBDPAU__type_info_node@@@Z 10020cb0 f   LIBCMTD:typinfo.obj
 0001:0001fcd0       ?_type_info_dtor_internal_method@type_info@@QAEXXZ 10020cd0 f   LIBCMTD:typinfo.obj
 0001:0001fcf0       ??8type_info@@QBE_NABV0@@Z 10020cf0 f   LIBCMTD:typinfo.obj
 0001:0001fd20       ??9type_info@@QBE_NABV0@@Z 10020d20 f   LIBCMTD:typinfo.obj
 0001:0001fd50       ?before@type_info@@QBEHABV1@@Z 10020d50 f   LIBCMTD:typinfo.obj
 0001:0001fd80       ?raw_name@type_info@@QBEPBDXZ 10020d80 f   LIBCMTD:typinfo.obj
 0001:0001fda0       ??0type_info@@AAE@ABV0@@Z  10020da0 f   LIBCMTD:typinfo.obj
 0001:0001fdc0       ??4type_info@@AAEAAV0@ABV0@@Z 10020dc0 f   LIBCMTD:typinfo.obj
 0001:0001fdd0       ??0exception@std@@QAE@XZ   10020dd0 f   LIBCMTD:stdexcpt.obj
 0001:0001fe00       ??_Eexception@std@@UAEPAXI@Z 10020e00 f i LIBCMTD:stdexcpt.obj
 0001:0001fe00       ??_Gexception@std@@UAEPAXI@Z 10020e00 f i LIBCMTD:stdexcpt.obj
 0001:0001fe30       ??0exception@std@@QAE@ABQBD@Z 10020e30 f   LIBCMTD:stdexcpt.obj
 0001:0001fec0       ??0exception@std@@QAE@ABQBDH@Z 10020ec0 f   LIBCMTD:stdexcpt.obj
 0001:0001fef0       ??0exception@std@@QAE@ABV01@@Z 10020ef0 f   LIBCMTD:stdexcpt.obj
 0001:0001ff90       ??4exception@std@@QAEAAV01@ABV01@@Z 10020f90 f   LIBCMTD:stdexcpt.obj
 0001:00020030       ??1exception@std@@UAE@XZ   10021030 f   LIBCMTD:stdexcpt.obj
 0001:00020060       ?what@exception@std@@UBEPBDXZ 10021060 f   LIBCMTD:stdexcpt.obj
 0001:00020090       ??0bad_cast@std@@QAE@PBD@Z 10021090 f   LIBCMTD:stdexcpt.obj
 0001:000200c0       ??_Gbad_cast@std@@UAEPAXI@Z 100210c0 f i LIBCMTD:stdexcpt.obj
 0001:000200c0       ??_Ebad_cast@std@@UAEPAXI@Z 100210c0 f i LIBCMTD:stdexcpt.obj
 0001:000200f0       ??0bad_cast@std@@QAE@ABV01@@Z 100210f0 f   LIBCMTD:stdexcpt.obj
 0001:00020120       ??1bad_cast@std@@UAE@XZ    10021120 f   LIBCMTD:stdexcpt.obj
 0001:00020140       ??0bad_typeid@std@@QAE@PBD@Z 10021140 f   LIBCMTD:stdexcpt.obj
 0001:00020170       ??_Ebad_typeid@std@@UAEPAXI@Z 10021170 f i LIBCMTD:stdexcpt.obj
 0001:00020170       ??_Gbad_typeid@std@@UAEPAXI@Z 10021170 f i LIBCMTD:stdexcpt.obj
 0001:000201a0       ??0bad_typeid@std@@QAE@ABV01@@Z 100211a0 f   LIBCMTD:stdexcpt.obj
 0001:000201d0       ??1bad_typeid@std@@UAE@XZ  100211d0 f   LIBCMTD:stdexcpt.obj
 0001:000201f0       ??0__non_rtti_object@std@@QAE@PBD@Z 100211f0 f   LIBCMTD:stdexcpt.obj
 0001:00020220       ??_G__non_rtti_object@std@@UAEPAXI@Z 10021220 f i LIBCMTD:stdexcpt.obj
 0001:00020220       ??_E__non_rtti_object@std@@UAEPAXI@Z 10021220 f i LIBCMTD:stdexcpt.obj
 0001:00020250       ??0__non_rtti_object@std@@QAE@ABV01@@Z 10021250 f   LIBCMTD:stdexcpt.obj
 0001:00020280       ??1__non_rtti_object@std@@UAE@XZ 10021280 f   LIBCMTD:stdexcpt.obj
 0001:000202a0       ??3@YAXPAX@Z               100212a0 f   LIBCMTD:dbgdel.obj
 0001:00020390       _memcmp                    10021390 f   LIBCMTD:memcmp.obj
 0001:00020e00       _memchr                    10021e00 f   LIBCMTD:memchr.obj
 0001:00020eb0       _malloc                    10021eb0 f   LIBCMTD:dbgheap.obj
 0001:00020ee0       __malloc_dbg               10021ee0 f   LIBCMTD:dbgheap.obj
 0001:00020f10       __nh_malloc                10021f10 f   LIBCMTD:dbgheap.obj
 0001:00020f30       __nh_malloc_dbg            10021f30 f   LIBCMTD:dbgheap.obj
 0001:00020fa0       __heap_alloc               10021fa0 f   LIBCMTD:dbgheap.obj
 0001:00020fc0       __heap_alloc_dbg           10021fc0 f   LIBCMTD:dbgheap.obj
 0001:00021360       _calloc                    10022360 f   LIBCMTD:dbgheap.obj
 0001:00021390       __calloc_dbg               10022390 f   LIBCMTD:dbgheap.obj
 0001:00021450       _realloc                   10022450 f   LIBCMTD:dbgheap.obj
 0001:00021480       __recalloc                 10022480 f   LIBCMTD:dbgheap.obj
 0001:000214b0       __realloc_dbg              100224b0 f   LIBCMTD:dbgheap.obj
 0001:00021ae0       __recalloc_dbg             10022ae0 f   LIBCMTD:dbgheap.obj
 0001:00021be0       __expand                   10022be0 f   LIBCMTD:dbgheap.obj
 0001:00021c10       __expand_dbg               10022c10 f   LIBCMTD:dbgheap.obj
 0001:00021d20       _free                      10022d20 f   LIBCMTD:dbgheap.obj
 0001:00021d40       __free_nolock              10022d40 f   LIBCMTD:dbgheap.obj
 0001:00021d60       __free_dbg                 10022d60 f   LIBCMTD:dbgheap.obj
 0001:00021de0       __free_dbg_nolock          10022de0 f   LIBCMTD:dbgheap.obj
 0001:000222c0       __msize                    100232c0 f   LIBCMTD:dbgheap.obj
 0001:000222e0       __msize_dbg                100232e0 f   LIBCMTD:dbgheap.obj
 0001:000224d0       __CrtSetBreakAlloc         100234d0 f   LIBCMTD:dbgheap.obj
 0001:000224f0       __CrtSetDbgBlockType       100234f0 f   LIBCMTD:dbgheap.obj
 0001:000225e0       __CrtSetAllocHook          100235e0 f   LIBCMTD:dbgheap.obj
 0001:00022600       __CrtGetAllocHook          10023600 f   LIBCMTD:dbgheap.obj
 0001:00022660       __CrtCheckMemory           10023660 f   LIBCMTD:dbgheap.obj
 0001:00022ab0       __CrtSetDbgFlag            10023ab0 f   LIBCMTD:dbgheap.obj
 0001:00022c00       __CrtDoForAllClientObjects 10023c00 f   LIBCMTD:dbgheap.obj
 0001:00022d20       __CrtIsValidPointer        10023d20 f   LIBCMTD:dbgheap.obj
 0001:00022d30       __CrtIsValidHeapPointer    10023d30 f   LIBCMTD:dbgheap.obj
 0001:00022e20       __CrtIsMemoryBlock         10023e20 f   LIBCMTD:dbgheap.obj
 0001:00022f90       __CrtReportBlockType       10023f90 f   LIBCMTD:dbgheap.obj
 0001:00022fc0       __CrtSetDumpClient         10023fc0 f   LIBCMTD:dbgheap.obj
 0001:00022fe0       __CrtGetDumpClient         10023fe0 f   LIBCMTD:dbgheap.obj
 0001:00022ff0       __CrtMemCheckpoint         10023ff0 f   LIBCMTD:dbgheap.obj
 0001:00023210       __CrtMemDifference         10024210 f   LIBCMTD:dbgheap.obj
 0001:00023430       __CrtMemDumpAllObjectsSince 10024430 f   LIBCMTD:dbgheap.obj
 0001:00023470       ??0_LocaleUpdate@@QAE@PAUlocaleinfo_struct@@@Z 10024470 f i LIBCMTD:dbgheap.obj
 0001:00023550       ??1_LocaleUpdate@@QAE@XZ   10024550 f i LIBCMTD:dbgheap.obj
 0001:00023580       ?GetLocaleT@_LocaleUpdate@@QAEPAUlocaleinfo_struct@@XZ 10024580 f i LIBCMTD:dbgheap.obj
 0001:00023a40       __CrtDumpMemoryLeaks       10024a40 f   LIBCMTD:dbgheap.obj
 0001:00023ab0       __CrtMemDumpStatistics     10024ab0 f   LIBCMTD:dbgheap.obj
 0001:00023bc0       __aligned_malloc           10024bc0 f   LIBCMTD:dbgheap.obj
 0001:00023be0       __aligned_malloc_dbg       10024be0 f   LIBCMTD:dbgheap.obj
 0001:00023c00       __aligned_realloc          10024c00 f   LIBCMTD:dbgheap.obj
 0001:00023c20       __aligned_recalloc         10024c20 f   LIBCMTD:dbgheap.obj
 0001:00023c50       __aligned_realloc_dbg      10024c50 f   LIBCMTD:dbgheap.obj
 0001:00023c80       __aligned_recalloc_dbg     10024c80 f   LIBCMTD:dbgheap.obj
 0001:00023cb0       __aligned_offset_malloc    10024cb0 f   LIBCMTD:dbgheap.obj
 0001:00023cd0       __aligned_offset_malloc_dbg 10024cd0 f   LIBCMTD:dbgheap.obj
 0001:00023e70       __aligned_offset_realloc   10024e70 f   LIBCMTD:dbgheap.obj
 0001:00023ea0       __aligned_offset_recalloc  10024ea0 f   LIBCMTD:dbgheap.obj
 0001:00023ed0       __aligned_offset_realloc_dbg 10024ed0 f   LIBCMTD:dbgheap.obj
 0001:000241a0       __aligned_offset_recalloc_dbg 100251a0 f   LIBCMTD:dbgheap.obj
 0001:000242b0       __aligned_free             100252b0 f   LIBCMTD:dbgheap.obj
 0001:000242d0       __aligned_free_dbg         100252d0 f   LIBCMTD:dbgheap.obj
 0001:00024380       __CrtSetDebugFillThreshold 10025380 f   LIBCMTD:dbgheap.obj
 0001:000243a0       __CrtSetCheckCount         100253a0 f   LIBCMTD:dbgheap.obj
 0001:000243c0       __CrtGetCheckCount         100253c0 f   LIBCMTD:dbgheap.obj
 0001:000243d0       __aligned_msize            100253d0 f   LIBCMTD:dbgheap.obj
 0001:000243f0       __aligned_msize_dbg        100253f0 f   LIBCMTD:dbgheap.obj
 0001:00024500       ??2@YAPAXI@Z               10025500 f   LIBCMTD:new.obj
 0001:00024580       ??0bad_alloc@std@@QAE@XZ   10025580 f i LIBCMTD:new.obj
 0001:000245b0       _memcpy_s                  100255b0 f   LIBCMTD:memcpy_s.obj
 0001:00024740       _memmove_s                 10025740 f   LIBCMTD:memmove_s.obj
 0001:000248a0       _memcpy                    100258a0 f   LIBCMTD:memcpy.obj
 0001:00024c10       __CRT_INIT@12              10025c10 f   LIBCMTD:dllcrt0.obj
 0001:00024ef0       __set_osplatform           10025ef0 f i LIBCMTD:dllcrt0.obj
 0001:00024f00       __set_osver                10025f00 f i LIBCMTD:dllcrt0.obj
 0001:00024f10       __set_winver               10025f10 f i LIBCMTD:dllcrt0.obj
 0001:00024f20       __set_winmajor             10025f20 f i LIBCMTD:dllcrt0.obj
 0001:00024f30       __set_winminor             10025f30 f i LIBCMTD:dllcrt0.obj
 0001:00024f40       __DllMainCRTStartup@12     10025f40 f   LIBCMTD:dllcrt0.obj
 0001:00025120       ??_U@YAPAXI@Z              10026120 f   LIBCMTD:new2.obj
 0001:00025140       ??_V@YAXPAX@Z              10026140 f   LIBCMTD:delete2.obj
 0001:00025160       _atol                      10026160 f   LIBCMTD:atox.obj
 0001:00025180       __atol_l                   10026180 f   LIBCMTD:atox.obj
 0001:000251a0       _atoi                      100261a0 f   LIBCMTD:atox.obj
 0001:000251c0       __atoi_l                   100261c0 f   LIBCMTD:atox.obj
 0001:000251e0       __atoi64                   100261e0 f   LIBCMTD:atox.obj
 0001:00025200       __atoi64_l                 10026200 f   LIBCMTD:atox.obj
 0001:00025220       _strncmp                   10026220 f   LIBCMTD:strncmp.obj
 0001:00025390       _itoa                      10026390 f   LIBCMTD:xtoa.obj
 0001:00025390       __itoa                     10026390 f   LIBCMTD:xtoa.obj
 0001:000254a0       __ltoa                     100264a0 f   LIBCMTD:xtoa.obj
 0001:000254e0       __ultoa                    100264e0 f   LIBCMTD:xtoa.obj
 0001:000254e0       _ultoa                     100264e0 f   LIBCMTD:xtoa.obj
 0001:00025500       __i64toa                   10026500 f   LIBCMTD:xtoa.obj
 0001:00025650       __ui64toa                  10026650 f   LIBCMTD:xtoa.obj
 0001:00025670       __gcvt_s                   10026670 f   LIBCMTD:gcvt.obj
 0001:000259b0       __gcvt                     100269b0 f   LIBCMTD:gcvt.obj
 0001:000259f0       __fpmath                   100269f0 f   LIBCMTD:fpinit.obj
 0001:00025a20       __fpclear                  10026a20 f   LIBCMTD:fpinit.obj
 0001:00025a30       __cfltcvt_init             10026a30 f   LIBCMTD:fpinit.obj
 0001:00025aa0       ___setfflag                10026aa0 f   LIBCMTD:fpinit.obj
 0001:00025ac0       _strtol                    10026ac0 f   LIBCMTD:strtol.obj
 0001:00025ff0       __strtol_l                 10026ff0 f   LIBCMTD:strtol.obj
 0001:00026010       _strtoul                   10027010 f   LIBCMTD:strtol.obj
 0001:00026060       __strtoul_l                10027060 f   LIBCMTD:strtol.obj
 0001:00026080       __strtod_l                 10027080 f   LIBCMTD:strtod.obj
 0001:00026270       _strtod                    10027270 f   LIBCMTD:strtod.obj
 0001:00026290       _DebuggerKnownHandle       10027290 f   LIBCMTD:error.obj
 0001:00026330       ?_RTC_Failure@@YAXPAXH@Z   10027330 f   LIBCMTD:error.obj
 0001:00026660       ?_RTC_StackFailure@@YAXPAXPBD@Z 10027660 f   LIBCMTD:error.obj
 0001:00026780       ?_RTC_AllocaFailure@@YAXPAXPAU_RTC_ALLOCA_NODE@@H@Z 10027780 f   LIBCMTD:error.obj
 0001:00026940       __RTC_UninitUse            10027940 f   LIBCMTD:error.obj
 0001:00026a50       __snprintf                 10027a50 f   LIBCMTD:snprintf.obj
 0001:00026bf0       __snprintf_l               10027bf0 f   LIBCMTD:snprintf.obj
 0001:00026c20       __onexit                   10027c20 f   LIBCMTD:onexit.obj
 0001:00026df0       _atexit                    10027df0 f   LIBCMTD:onexit.obj
 0001:00026e10       ___onexitinit              10027e10 f   LIBCMTD:onexit.obj
 0001:00026e70       __vsnprintf_l              10027e70 f   LIBCMTD:vsnprint.obj
 0001:00027010       __vsnprintf                10028010 f   LIBCMTD:vsnprint.obj
 0001:00027030       _srand                     10028030 f   LIBCMTD:rand.obj
 0001:00027040       _rand                      10028040 f   LIBCMTD:rand.obj
 0001:00027080       __time64                   10028080 f   LIBCMTD:time64.obj
 0001:000270e0       __vsnprintf_helper         100280e0 f   LIBCMTD:vsnprnc.obj
 0001:000272b0       __vsnprintf_c              100282b0 f   LIBCMTD:vsnprnc.obj
 0001:00027300       __vsnprintf_c_l            10028300 f   LIBCMTD:vsnprnc.obj
 0001:00027350       __vsprintf_s_l             10028350 f   LIBCMTD:vsnprnc.obj
 0001:000275b0       _vsprintf_s                100285b0 f   LIBCMTD:vsnprnc.obj
 0001:000275d0       __vsnprintf_s_l            100285d0 f   LIBCMTD:vsnprnc.obj
 0001:00027970       __vsnprintf_s              10028970 f   LIBCMTD:vsnprnc.obj
 0001:000279a0       __vsprintf_p               100289a0 f   LIBCMTD:vsnprnc.obj
 0001:000279f0       __vsprintf_p_l             100289f0 f   LIBCMTD:vsnprnc.obj
 0001:00027a40       __purecall                 10028a40 f   LIBCMTD:purevirt.obj
 0001:00027a80       __set_purecall_handler     10028a80 f   LIBCMTD:purevirt.obj
 0001:00027ac0       __get_purecall_handler     10028ac0 f   LIBCMTD:purevirt.obj
 0001:00027ae0       __RTC_NumErrors            10028ae0 f   LIBCMTD:userapi.obj
 0001:00027af0       __RTC_GetErrDesc           10028af0 f   LIBCMTD:userapi.obj
 0001:00027b10       __RTC_SetErrorType         10028b10 f   LIBCMTD:userapi.obj
 0001:00027b40       __RTC_SetErrorFunc         10028b40 f   LIBCMTD:userapi.obj
 0001:00027b60       __RTC_SetErrorFuncW        10028b60 f   LIBCMTD:userapi.obj
 0001:00027b80       ?_RTC_GetErrorFunc@@YAP6AHHPBDH00ZZPBX@Z 10028b80 f   LIBCMTD:userapi.obj
 0001:00027b90       ?_RTC_GetErrorFuncW@@YAP6AHHPB_WH00ZZPBX@Z 10028b90 f   LIBCMTD:userapi.obj
 0001:00027ba0       __chkesp                   10028ba0 f   LIBCMTD:chkesp.obj
 0001:00027be0       __CRT_RTC_INIT             10028be0 f   LIBCMTD:chkesp.obj
 0001:00027bf0       __CRT_RTC_INITW            10028bf0 f   LIBCMTD:chkesp.obj
 0001:00027c00       ___report_gsfailure        10028c00 f   LIBCMTD:gs_report.obj
 0001:00027d10       __cinit                    10028d10 f   LIBCMTD:crt0dat.obj
 0001:00027db0       _exit                      10028db0 f   LIBCMTD:crt0dat.obj
 0001:00027dd0       __exit                     10028dd0 f   LIBCMTD:crt0dat.obj
 0001:00027df0       __cexit                    10028df0 f   LIBCMTD:crt0dat.obj
 0001:00027e10       __c_exit                   10028e10 f   LIBCMTD:crt0dat.obj
 0001:00027e30       __amsg_exit                10028e30 f   LIBCMTD:crt0dat.obj
 0001:00027e70       ___freeCrtMemory           10028e70 f   LIBCMTD:crt0dat.obj
 0001:00028130       ___crtCorExitProcess       10029130 f   LIBCMTD:crt0dat.obj
 0001:00028170       ___crtExitProcess          10029170 f   LIBCMTD:crt0dat.obj
 0001:00028190       __lockexit                 10029190 f   LIBCMTD:crt0dat.obj
 0001:000281a0       __unlockexit               100291a0 f   LIBCMTD:crt0dat.obj
 0001:000281b0       __init_pointers            100291b0 f   LIBCMTD:crt0dat.obj
 0001:00028270       __initterm_e               10029270 f   LIBCMTD:crt0dat.obj
 0001:000282b0       __get_osplatform           100292b0 f   LIBCMTD:crt0dat.obj
 0001:000283a0       __get_osver                100293a0 f   LIBCMTD:crt0dat.obj
 0001:00028490       __get_winver               10029490 f   LIBCMTD:crt0dat.obj
 0001:00028580       __get_winmajor             10029580 f   LIBCMTD:crt0dat.obj
 0001:00028670       __get_winminor             10029670 f   LIBCMTD:crt0dat.obj
 0001:00028760       __get_wpgmptr              10029760 f   LIBCMTD:crt0dat.obj
 0001:00028850       __get_pgmptr               10029850 f   LIBCMTD:crt0dat.obj
 0001:00028940       __initp_misc_winsig        10029940 f   LIBCMTD:winsig.obj
 0001:00028970       _signal                    10029970 f   LIBCMTD:winsig.obj
 0001:00028e10       _raise                     10029e10 f   LIBCMTD:winsig.obj
 0001:00029180       ___get_sigabrt             1002a180 f   LIBCMTD:winsig.obj
 0001:000291a0       ___fpecode                 1002a1a0 f   LIBCMTD:winsig.obj
 0001:000291b0       ___pxcptinfoptrs           1002a1b0 f   LIBCMTD:winsig.obj
 0001:000291c0       ___crtMessageBoxW          1002a1c0 f   LIBCMTD:crtmboxw.obj
 0001:00029460       __itow_s                   1002a460 f   LIBCMTD:xtows.obj
 0001:00029840       __ltow_s                   1002a840 f   LIBCMTD:xtows.obj
 0001:00029880       __ultow_s                  1002a880 f   LIBCMTD:xtows.obj
 0001:000298a0       __i64tow_s                 1002a8a0 f   LIBCMTD:xtows.obj
 0001:00029cb0       __ui64tow_s                1002acb0 f   LIBCMTD:xtows.obj
 0001:00029cd0       _wcsncat_s                 1002acd0 f   LIBCMTD:wcsncat_s.obj
 0001:0002a180       _wcsncpy_s                 1002b180 f   LIBCMTD:wcsncpy_s.obj
 0001:0002a580       _wcscat_s                  1002b580 f   LIBCMTD:wcscat_s.obj
 0001:0002a970       _wcscpy_s                  1002b970 f   LIBCMTD:wcscpy_s.obj
 0001:0002ac50       _fflush                    1002bc50 f   LIBCMTD:fflush.obj
 0001:0002acf0       __fflush_nolock            1002bcf0 f   LIBCMTD:fflush.obj
 0001:0002ad50       __flush                    1002bd50 f   LIBCMTD:fflush.obj
 0001:0002ae10       __flushall                 1002be10 f   LIBCMTD:fflush.obj
 0001:0002afc0       _fwprintf                  1002bfc0 f   LIBCMTD:fwprintf.obj
 0001:0002b140       __fwprintf_l               1002c140 f   LIBCMTD:fwprintf.obj
 0001:0002b170       __fwprintf_s_l             1002c170 f   LIBCMTD:fwprintf.obj
 0001:0002b1a0       _fwprintf_s                1002c1a0 f   LIBCMTD:fwprintf.obj
 0001:0002b1d0       __fwprintf_p_l             1002c1d0 f   LIBCMTD:fwprintf.obj
 0001:0002b200       __fwprintf_p               1002c200 f   LIBCMTD:fwprintf.obj
 0001:0002b230       _setvbuf                   1002c230 f   LIBCMTD:setvbuf.obj
 0001:0002b500       ___iob_func                1002c500 f   LIBCMTD:_file.obj
 0001:0002b510       ___initstdio               1002c510 f   LIBCMTD:_file.obj
 0001:0002b660       ___endstdio                1002c660 f   LIBCMTD:_file.obj
 0001:0002b690       __lock_file                1002c690 f   LIBCMTD:_file.obj
 0001:0002b6e0       __lock_file2               1002c6e0 f   LIBCMTD:_file.obj
 0001:0002b720       __unlock_file              1002c720 f   LIBCMTD:_file.obj
 0001:0002b770       __unlock_file2             1002c770 f   LIBCMTD:_file.obj
 0001:0002b7b0       _abort                     1002c7b0 f   LIBCMTD:abort.obj
 0001:0002b8f0       __set_abort_behavior       1002c8f0 f   LIBCMTD:abort.obj
 0001:0002b920       _wcslen                    1002c920 f   LIBCMTD:wcslen.obj
 0001:0002b950       __set_error_mode           1002c950 f   LIBCMTD:errmode.obj
 0001:0002ba10       ___set_app_type            1002ca10 f   LIBCMTD:errmode.obj
 0001:0002ba20       ___get_app_type            1002ca20 f   LIBCMTD:errmode.obj
 0001:0002ba30       __assert                   1002ca30 f   LIBCMTD:assert.obj
 0001:0002c500       _strcpy_s                  1002d500 f   LIBCMTD:strcpy_s.obj
 0001:0002c7e0       _strcat_s                  1002d7e0 f   LIBCMTD:strcat_s.obj
 0001:0002cbc0       __wcstombs_l_helper        1002dbc0 f   LIBCMTD:wcstombs.obj
 0001:0002d110       __wcstombs_l               1002e110 f   LIBCMTD:wcstombs.obj
 0001:0002d130       _wcstombs                  1002e130 f   LIBCMTD:wcstombs.obj
 0001:0002d150       __wcstombs_s_l             1002e150 f   LIBCMTD:wcstombs.obj
 0001:0002d410       _wcstombs_s                1002e410 f   LIBCMTD:wcstombs.obj
 0001:0002d440       __vswprintf_helper         1002e440 f   LIBCMTD:vswprnc.obj
 0001:0002d670       __vswprintf_c              1002e670 f   LIBCMTD:vswprnc.obj
 0001:0002d6c0       __vswprintf_c_l            1002e6c0 f   LIBCMTD:vswprnc.obj
 0001:0002d710       __vswprintf_s_l            1002e710 f   LIBCMTD:vswprnc.obj
 0001:0002d980       _vswprintf_s               1002e980 f   LIBCMTD:vswprnc.obj
 0001:0002d9a0       __vsnwprintf_s_l           1002e9a0 f   LIBCMTD:vswprnc.obj
 0001:0002dd50       __vsnwprintf_s             1002ed50 f   LIBCMTD:vswprnc.obj
 0001:0002dd80       __vswprintf_p              1002ed80 f   LIBCMTD:vswprnc.obj
 0001:0002ddd0       __vswprintf_p_l            1002edd0 f   LIBCMTD:vswprnc.obj
 0001:0002de20       ___InternalCxxFrameHandler 1002ee20 f   LIBCMTD:frame.obj
 0001:0002e410       ??0bad_exception@std@@QAE@PBD@Z 1002f410 f i LIBCMTD:frame.obj
 0001:0002e440       ??1bad_exception@std@@UAE@XZ 1002f440 f i LIBCMTD:frame.obj
 0001:0002e460       ??_Ebad_exception@std@@UAEPAXI@Z 1002f460 f i LIBCMTD:frame.obj
 0001:0002e460       ??_Gbad_exception@std@@UAEPAXI@Z 1002f460 f i LIBCMTD:frame.obj
 0001:0002e490       ??0bad_exception@std@@QAE@ABV01@@Z 1002f490 f i LIBCMTD:frame.obj
 0001:0002e640       ___TypeMatch               1002f640 f   LIBCMTD:frame.obj
 0001:0002e6f0       ___FrameUnwindFilter       1002f6f0 f   LIBCMTD:frame.obj
 0001:0002e760       ___FrameUnwindToState      1002f760 f   LIBCMTD:frame.obj
 0001:0002eca0       ___BuildCatchObjectHelper  1002fca0 f   LIBCMTD:frame.obj
 0001:0002ef10       ___BuildCatchObject        1002ff10 f   LIBCMTD:frame.obj
 0001:0002f020       ___DestructExceptionObject 10030020 f   LIBCMTD:frame.obj
 0001:0002f0d0       ___AdjustPointer           100300d0 f   LIBCMTD:frame.obj
 0001:0002f120       ?__uncaught_exception@@YA_NXZ 10030120 f   LIBCMTD:frame.obj
 0001:0002f140       ___CxxExceptionFilter      10030140 f   LIBCMTD:frame.obj
 0001:0002f330       ___CxxRegisterExceptionObject 10030330 f   LIBCMTD:frame.obj
 0001:0002f460       ___CxxDetectRethrow        10030460 f   LIBCMTD:frame.obj
 0001:0002f4e0       ___CxxUnregisterExceptionObject 100304e0 f   LIBCMTD:frame.obj
 0001:0002f660       ___CxxQueryExceptionSize   10030660 f   LIBCMTD:frame.obj
 0001:0002f670       ___CxxCallUnwindDtor       10030670 f   LIBCMTD:frame.obj
 0001:0002f6f0       ___CxxCallUnwindDelDtor    100306f0 f   LIBCMTD:frame.obj
 0001:0002f770       ___CxxCallUnwindStdDelDtor 10030770 f   LIBCMTD:frame.obj
 0001:0002f7f0       ___CxxCallUnwindVecDtor    100307f0 f   LIBCMTD:frame.obj
 0001:0002fa10       ?_is_exception_typeof@@YAHABVtype_info@@PAU_EXCEPTION_POINTERS@@@Z 10030a10 f   LIBCMTD:frame.obj
 0001:0002faf0       __CallSettingFrame@12      10030af0 f   LIBCMTD:lowhelpr.obj
 0001:0002fb17       __NLG_Return               10030b17     LIBCMTD:lowhelpr.obj
 0001:0002fb40       __encode_pointer           10030b40 f   LIBCMTD:tidtable.obj
 0001:0002fc90       __encoded_null             10030c90 f   LIBCMTD:tidtable.obj
 0001:0002fca0       __decode_pointer           10030ca0 f   LIBCMTD:tidtable.obj
 0001:0002fd40       ___crtTlsAlloc@4           10030d40 f   LIBCMTD:tidtable.obj
 0001:0002fd50       ___fls_getvalue@4          10030d50 f   LIBCMTD:tidtable.obj
 0001:0002fd70       ___get_flsindex            10030d70 f   LIBCMTD:tidtable.obj
 0001:0002fd80       ___set_flsgetvalue         10030d80 f   LIBCMTD:tidtable.obj
 0001:0002fdd0       ___fls_setvalue@8          10030dd0 f   LIBCMTD:tidtable.obj
 0001:0002fdf0       __mtinit                   10030df0 f   LIBCMTD:tidtable.obj
 0001:00030000       __mtterm                   10031000 f   LIBCMTD:tidtable.obj
 0001:00030060       __initptd                  10031060 f   LIBCMTD:tidtable.obj
 0001:00030190       __getptd_noexit            10031190 f   LIBCMTD:tidtable.obj
 0001:00030250       __getptd                   10031250 f   LIBCMTD:tidtable.obj
 0001:00030280       __freefls@4                10031280 f   LIBCMTD:tidtable.obj
 0001:00030470       __freeptd                  10031470 f   LIBCMTD:tidtable.obj
 0001:000304f0       ___threadid                100314f0 f   LIBCMTD:tidtable.obj
 0001:00030500       ___threadhandle            10031500 f   LIBCMTD:tidtable.obj
 0001:00030510       __initp_eh_hooks           10031510 f   LIBCMTD:hooks.obj
 0001:00030530       ?terminate@@YAXXZ          10031530 f   LIBCMTD:hooks.obj
 0001:000305b0       ?unexpected@@YAXXZ         100315b0 f   LIBCMTD:hooks.obj
 0001:000305e0       ?_inconsistency@@YAXXZ     100315e0 f   LIBCMTD:hooks.obj
 0001:00030670       __VEC_memzero              10031670 f   LIBCMTD:p4_memset.obj
 0001:00030760       __sse2_mathfcns_init       10031760 f   LIBCMTD:mathfcns.obj
 0001:00030780       __set_SSE2_enable          10031780 f   LIBCMTD:mathfcns.obj
 0001:000307b0       _strchr                    100317b0 f   LIBCMTD:strchr.obj
 0001:000307b6       ___from_strstr_to_strchr   100317b6     LIBCMTD:strchr.obj
 0001:00030870       __flsbuf                   10031870 f   LIBCMTD:_flsbuf.obj
 0001:00030b30       __output_l                 10031b30 f   LIBCMTD:output.obj
 0001:00031fa0       _get_int_arg               10032fa0 f i LIBCMTD:output.obj
 0001:00031fc0       _get_int64_arg             10032fc0 f i LIBCMTD:output.obj
 0001:00031fe0       _get_short_arg             10032fe0 f i LIBCMTD:output.obj
 0001:00032000       __dosmaperr                10033000 f   LIBCMTD:dosmap.obj
 0001:00032030       __get_errno_from_oserr     10033030 f   LIBCMTD:dosmap.obj
 0001:000320b0       __set_errno                100330b0 f   LIBCMTD:dosmap.obj
 0001:000320e0       __get_errno                100330e0 f   LIBCMTD:dosmap.obj
 0001:00032160       __set_doserrno             10033160 f   LIBCMTD:dosmap.obj
 0001:00032190       __get_doserrno             10033190 f   LIBCMTD:dosmap.obj
 0001:00032210       __errno                    10033210 f   LIBCMTD:dosmap.obj
 0001:00032240       ___doserrno                10033240 f   LIBCMTD:dosmap.obj
 0001:00032270       __vsprintf_l               10033270 f   LIBCMTD:vsprintf.obj
 0001:000323e0       _vsprintf                  100333e0 f   LIBCMTD:vsprintf.obj
 0001:00032400       __vscprintf_helper         10033400 f   LIBCMTD:vsprintf.obj
 0001:000324c0       __vscprintf                100334c0 f   LIBCMTD:vsprintf.obj
 0001:000324e0       __vscprintf_l              100334e0 f   LIBCMTD:vsprintf.obj
 0001:00032500       __vscprintf_p              10033500 f   LIBCMTD:vsprintf.obj
 0001:00032520       __vscprintf_p_l            10033520 f   LIBCMTD:vsprintf.obj
 0001:00032540       __CrtDefaultAllocHook      10033540 f   LIBCMTD:dbghook.obj
 0001:00032550       __crt_debugger_hook        10033550 f   LIBCMTD:dbghook.obj
 0001:00032560       __mtinitlocks              10033560 f   LIBCMTD:mlock.obj
 0001:000325f0       __mtdeletelocks            100335f0 f   LIBCMTD:mlock.obj
 0001:000326b0       __mtinitlocknum            100336b0 f   LIBCMTD:mlock.obj
 0001:00032800       __lock                     10033800 f   LIBCMTD:mlock.obj
 0001:00032840       __unlock                   10033840 f   LIBCMTD:mlock.obj
 0001:00032860       __lockerr_exit             10033860 f   LIBCMTD:mlock.obj
 0001:00032880       __CrtDbgBreak              10033880 f   LIBCMTD:dbgrptt.obj
 0001:00032890       __CrtSetReportMode         10033890 f   LIBCMTD:dbgrptt.obj
 0001:000329d0       __CrtSetReportFile         100339d0 f   LIBCMTD:dbgrptt.obj
 0001:00032ac0       __CrtSetReportHook         10033ac0 f   LIBCMTD:dbgrptt.obj
 0001:00032ae0       __CrtGetReportHook         10033ae0 f   LIBCMTD:dbgrptt.obj
 0001:00032af0       __VCrtDbgReportA           10033af0 f   LIBCMTD:dbgrptt.obj
 0001:00033320       __VCrtDbgReportW           10034320 f   LIBCMTD:dbgrptt.obj
 0001:00033c50       __except_handler4          10034c50 f   LIBCMTD:chandler4.obj
 0001:00033e70       __chkstk                   10034e70 f   LIBCMTD:chkstk.obj
 0001:00033e70       __alloca_probe             10034e70     LIBCMTD:chkstk.obj
 0001:00033ea0       __swprintf                 10034ea0 f   LIBCMTD:swprintf.obj
 0001:00034070       ___swprintf_l              10035070 f   LIBCMTD:swprintf.obj
 0001:000340a0       _swprintf_s                100350a0 f   LIBCMTD:swprintf.obj
 0001:000340d0       __snwprintf_s              100350d0 f   LIBCMTD:swprintf.obj
 0001:00034100       __swprintf_p               10035100 f   LIBCMTD:swprintf.obj
 0001:00034130       __swprintf_s_l             10035130 f   LIBCMTD:swprintf.obj
 0001:00034160       __snwprintf_s_l            10035160 f   LIBCMTD:swprintf.obj
 0001:00034190       __swprintf_p_l             10035190 f   LIBCMTD:swprintf.obj
 0001:000341c0       __scwprintf                100351c0 f   LIBCMTD:swprintf.obj
 0001:000341e0       __scwprintf_p              100351e0 f   LIBCMTD:swprintf.obj
 0001:00034200       __scwprintf_l              10035200 f   LIBCMTD:swprintf.obj
 0001:00034230       __scwprintf_p_l            10035230 f   LIBCMTD:swprintf.obj
 0001:00034260       ?_Type_info_dtor@type_info@@CAXPAV1@@Z 10035260 f   LIBCMTD:typname.obj
 0001:00034370       ?_Name_base@type_info@@CAPBDPBV1@PAU__type_info_node@@@Z 10035370 f   LIBCMTD:typname.obj
 0001:00034510       ?_Type_info_dtor_internal@type_info@@CAXPAV1@@Z 10035510 f   LIBCMTD:typname.obj
 0001:00034620       ___unDNameHelper           10035620 f   LIBCMTD:typname.obj
 0001:00034660       ?_Name_base_internal@type_info@@CAPBDPBV1@PAU__type_info_node@@@Z 10035660 f   LIBCMTD:typname.obj
 0001:00034800       ___clean_type_info_names_internal 10035800 f   LIBCMTD:typname.obj
 0001:000348b0       _strcmp                    100358b0 f   LIBCMTD:strcmp.obj
 0001:00034940       __initp_heap_handler       10035940 f   LIBCMTD:handler.obj
 0001:00034950       ?_set_new_handler@@YAP6AHI@ZP6AHI@Z@Z 10035950 f   LIBCMTD:handler.obj
 0001:000349a0       ?_set_new_handler@@YAP6AHI@ZH@Z 100359a0 f   LIBCMTD:handler.obj
 0001:000349e0       ?_query_new_handler@@YAP6AHI@ZXZ 100359e0 f   LIBCMTD:handler.obj
 0001:00034a00       __callnewh                 10035a00 f   LIBCMTD:handler.obj
 0001:00034a40       _V6_HeapAlloc              10035a40 f   LIBCMTD:malloc.obj
 0001:00034ad0       __malloc_base              10035ad0 f   LIBCMTD:malloc.obj
 0001:00034b60       __heap_alloc_base          10035b60 f i LIBCMTD:malloc.obj
 0001:00034c20       __CrtSetReportHook2        10035c20 f   LIBCMTD:dbgrpt.obj
 0001:00034f40       __CrtDbgReport             10035f40 f   LIBCMTD:dbgrpt.obj
 0001:00034f80       __CrtDbgReportV            10035f80 f i LIBCMTD:dbgrpt.obj
 0001:00034fb0       ___crtMessageWindowA       10035fb0 f   LIBCMTD:dbgrpt.obj
 0001:000353b0       __expand_base              100363b0 f   LIBCMTD:expand.obj
 0001:00035580       __realloc_base             10036580 f   LIBCMTD:realloc.obj
 0001:00035920       __recalloc_base            10036920 f   LIBCMTD:realloc.obj
 0001:00035a10       __free_base                10036a10 f   LIBCMTD:free.obj
 0001:00035b30       __heapchk                  10036b30 f   LIBCMTD:heapchk.obj
 0001:00035c00       __heapset                  10036c00 f   LIBCMTD:heapchk.obj
 0001:00035c10       ___heap_select             10036c10 f   LIBCMTD:heapinit.obj
 0001:00035ca0       __heap_init                10036ca0 f   LIBCMTD:heapinit.obj
 0001:00035d20       __heap_term                10036d20 f   LIBCMTD:heapinit.obj
 0001:00035dc0       __get_heap_handle          10036dc0 f   LIBCMTD:heapinit.obj
 0001:00035e00       __get_sbh_threshold        10036e00 f   LIBCMTD:sbheap.obj
 0001:00035e50       __set_sbh_threshold        10036e50 f   LIBCMTD:sbheap.obj
 0001:00035fe0       __set_amblksiz             10036fe0 f   LIBCMTD:sbheap.obj
 0001:000360e0       __get_amblksiz             100370e0 f   LIBCMTD:sbheap.obj
 0001:000361d0       ___sbh_heap_init           100371d0 f   LIBCMTD:sbheap.obj
 0001:00036240       ___sbh_find_block          10037240 f   LIBCMTD:sbheap.obj
 0001:000362a0       ___sbh_verify_block        100372a0 f   LIBCMTD:sbheap.obj
 0001:00036300       ___sbh_free_block          10037300 f   LIBCMTD:sbheap.obj
 0001:000368c0       ___sbh_alloc_block         100378c0 f   LIBCMTD:sbheap.obj
 0001:00036de0       ___sbh_alloc_new_region    10037de0 f   LIBCMTD:sbheap.obj
 0001:00036ef0       ___sbh_alloc_new_group     10037ef0 f   LIBCMTD:sbheap.obj
 0001:000370e0       ___sbh_resize_block        100380e0 f   LIBCMTD:sbheap.obj
 0001:000376b0       ___sbh_heapmin             100386b0 f   LIBCMTD:sbheap.obj
 0001:000377e0       ___sbh_heap_check          100387e0 f   LIBCMTD:sbheap.obj
 0001:00037cd0       ___updatetmbcinfo          10038cd0 f   LIBCMTD:mbctype.obj
 0001:00037de0       __setmbcp                  10038de0 f   LIBCMTD:mbctype.obj
 0001:00038180       __setmbcp_nolock           10039180 f   LIBCMTD:mbctype.obj
 0001:00038970       __getmbcp                  10039970 f   LIBCMTD:mbctype.obj
 0001:000389e0       ___initmbctable            100399e0 f   LIBCMTD:mbctype.obj
 0001:00038a10       ____setlc_active_func      10039a10 f   LIBCMTD:setlocal.obj
 0001:00038a20       ____unguarded_readlc_active_add_func 10039a20 f   LIBCMTD:setlocal.obj
 0001:00038a30       ___freetlocinfo            10039a30 f   LIBCMTD:setlocal.obj
 0001:00038d10       ___addlocaleref            10039d10 f   LIBCMTD:setlocal.obj
 0001:00038e30       ___removelocaleref         10039e30 f   LIBCMTD:setlocal.obj
 0001:00038f60       ___updatetlocinfo          10039f60 f   LIBCMTD:setlocal.obj
 0001:000390b0       __configthreadlocale       1003a0b0 f   LIBCMTD:setlocal.obj
 0001:000391c0       __locterm                  1003a1c0 f   LIBCMTD:setlocal.obj
 0001:00039250       __free_locale              1003a250 f   LIBCMTD:setlocal.obj
 0001:00039360       ___free_locale             1003a360 f   LIBCMTD:setlocal.obj
 0001:00039380       __create_locale            1003a380 f   LIBCMTD:setlocal.obj
 0001:000395a0       ___create_locale           1003a5a0 f   LIBCMTD:setlocal.obj
 0001:000395c0       __get_current_locale       1003a5c0 f   LIBCMTD:setlocal.obj
 0001:000396b0       ___get_current_locale      1003a6b0 f   LIBCMTD:setlocal.obj
 0001:000396c0       _setlocale                 1003a6c0 f   LIBCMTD:setlocal.obj
 0001:0003a5d0       __expandlocale             1003b5d0 f   LIBCMTD:setlocal.obj
 0001:0003a880       ___init_dummy              1003b880 f   LIBCMTD:setlocal.obj
 0001:0003a890       __strcats                  1003b890 f   LIBCMTD:setlocal.obj
 0001:0003a910       ___lc_strtolc              1003b910 f   LIBCMTD:setlocal.obj
 0001:0003ab10       ___lc_lctostr              1003bb10 f   LIBCMTD:setlocal.obj
 0001:0003aba0       __chvalidator              1003bba0 f   LIBCMTD:isctype.obj
 0001:0003abf0       __chvalidator_l            1003bbf0 f   LIBCMTD:isctype.obj
 0001:0003aca0       __isctype_l                1003bca0 f   LIBCMTD:isctype.obj
 0001:0003adb0       __isctype                  1003bdb0 f   LIBCMTD:isctype.obj
 0001:0003adf0       _memmove                   1003bdf0 f   LIBCMTD:memmove.obj
 0001:0003b160       __VEC_memcpy               1003c160 f   LIBCMTD:p4_memcpy.obj
 0001:0003b2e0       __ioinit                   1003c2e0 f   LIBCMTD:ioinit.obj
 0001:0003b760       __ioterm                   1003c760 f   LIBCMTD:ioinit.obj
 0001:0003b800       __setenvp                  1003c800 f   LIBCMTD:stdenvp.obj
 0001:0003b9a0       __setargv                  1003c9a0 f   LIBCMTD:stdargv.obj
 0001:0003bac0       __set_pgmptr               1003cac0 f i LIBCMTD:stdargv.obj
 0001:0003be30       ___crtGetEnvironmentStringsA 1003ce30 f   LIBCMTD:a_env.obj
 0001:0003c050       __RTC_Initialize           1003d050 f   LIBCMTD:initsect.obj
 0001:0003c080       __RTC_Terminate            1003d080 f   LIBCMTD:initsect.obj
 0001:0003c0b0       ___security_init_cookie    1003d0b0 f   LIBCMTD:gs_support.obj
 0001:0003c190       __initp_misc_winxfltr      1003d190 f   LIBCMTD:winxfltr.obj
 0001:0003c1a0       ___CppXcptFilter           1003d1a0 f   LIBCMTD:winxfltr.obj
 0001:0003c1d0       __XcptFilter               1003d1d0 f   LIBCMTD:winxfltr.obj
 0001:0003c400       __strtoi64                 1003d400 f   LIBCMTD:strtoq.obj
 0001:0003c970       __strtoi64_l               1003d970 f   LIBCMTD:strtoq.obj
 0001:0003c990       __strtoui64                1003d990 f   LIBCMTD:strtoq.obj
 0001:0003c9e0       __strtoui64_l              1003d9e0 f   LIBCMTD:strtoq.obj
 0001:0003ca00       __aulldiv                  1003da00 f   LIBCMTD:ulldiv.obj
 0001:0003ca70       __aullrem                  1003da70 f   LIBCMTD:ullrem.obj
 0001:0003caf0       __forcdecpt                1003daf0 f   LIBCMTD:cvt.obj
 0001:0003cb10       __forcdecpt_l              1003db10 f   LIBCMTD:cvt.obj
 0001:0003cbd0       __cropzeros                1003dbd0 f   LIBCMTD:cvt.obj
 0001:0003cbf0       __cropzeros_l              1003dbf0 f   LIBCMTD:cvt.obj
 0001:0003cd00       __positive                 1003dd00 f   LIBCMTD:cvt.obj
 0001:0003cd30       __fassign_l                1003dd30 f   LIBCMTD:cvt.obj
 0001:0003cd80       __fassign                  1003dd80 f   LIBCMTD:cvt.obj
 0001:0003cda0       __cftoe_l                  1003dda0 f   LIBCMTD:cvt.obj
 0001:0003d2f0       __cftoe                    1003e2f0 f   LIBCMTD:cvt.obj
 0001:0003d320       __cftoa_l                  1003e320 f   LIBCMTD:cvt.obj
 0001:0003daf0       ?strrchr@@YAPADPADH@Z      1003eaf0 f i LIBCMTD:cvt.obj
 0001:0003db10       __cftoa                    1003eb10 f   LIBCMTD:cvt.obj
 0001:0003db40       __cftof_l                  1003eb40 f   LIBCMTD:cvt.obj
 0001:0003df50       __cftof                    1003ef50 f   LIBCMTD:cvt.obj
 0001:0003df70       __cftog_l                  1003ef70 f   LIBCMTD:cvt.obj
 0001:0003e1a0       __cftog                    1003f1a0 f   LIBCMTD:cvt.obj
 0001:0003e1d0       __cfltcvt_l                1003f1d0 f   LIBCMTD:cvt.obj
 0001:0003e290       __cfltcvt                  1003f290 f   LIBCMTD:cvt.obj
 0001:0003e2f0       __fltout2                  1003f2f0 f   LIBCMTD:cfout.obj
 0001:0003e3a0       ___dtold                   1003f3a0 f   LIBCMTD:cfout.obj
 0001:0003e4f0       __setdefaultprecision      1003f4f0 f   LIBCMTD:fp8.obj
 0001:0003e530       __ms_p5_test_fdiv          1003f530 f   LIBCMTD:testfdiv.obj
 0001:0003e580       __ms_p5_mp_test_fdiv       1003f580 f   LIBCMTD:testfdiv.obj
 0001:0003e5d0       __initp_misc_cfltcvt_tab   1003f5d0 f   LIBCMTD:cmiscdat.obj
 0001:0003e610       __fltin2                   1003f610 f   LIBCMTD:cfin.obj
 0001:0003e6f0       ?_RTC_GetSrcLine@@YAHPAEPA_WKPAH1K@Z 1003f6f0 f   LIBCMTD:pdblkup.obj
 0001:0003eb80       __output_s_l               1003fb80 f   LIBCMTD:outputs.obj
 0001:00040150       __validate_param_reuseA    10041150 f   LIBCMTD:outputp.obj
 0001:000403c0       __output_p_l               100413c0 f   LIBCMTD:outputp.obj
 0001:00043fc0       _get_crtdouble_arg         10044fc0 f i LIBCMTD:outputp.obj
 0001:00043fe0       __FF_MSGBANNER             10044fe0 f   LIBCMTD:crt0msg.obj
 0001:00044030       __NMSG_WRITE               10045030 f   LIBCMTD:crt0msg.obj
 0001:000442c0       __GET_RTERRMSG             100452c0 f   LIBCMTD:crt0msg.obj
 0001:00044300       ___getlocaleinfo           10045300 f   LIBCMTD:inithelp.obj
 0001:000445a0       __initp_misc_purevirt      100455a0 f   LIBCMTD:inithelp.obj
 0001:000445b0       __ValidateImageBase        100455b0 f   LIBCMTD:pesect.obj
 0001:00044610       __FindPESection            10045610 f   LIBCMTD:pesect.obj
 0001:00044690       __IsNonwritableInCurrentImage 10045690 f   LIBCMTD:pesect.obj
 0001:000447a0       __initp_misc_rand_s        100457a0 f   LIBCMTD:rand_s.obj
 0001:000447b0       _rand_s                    100457b0 f   LIBCMTD:rand_s.obj
 0001:000449d0       __initp_misc_initcrit      100459d0 f   LIBCMTD:initcrit.obj
 0001:000449e0       ___crtInitCritSecAndSpinCount 100459e0 f   LIBCMTD:initcrit.obj
 0001:00044b50       __commit                   10045b50 f   LIBCMTD:commit.obj
 0001:00044d70       __fileno                   10045d70 f   LIBCMTD:fileno.obj
 0001:00044de0       __write                    10045de0 f   LIBCMTD:write.obj
 0001:00045000       __write_nolock             10046000 f   LIBCMTD:write.obj
 0001:00045a20       __stbuf                    10046a20 f   LIBCMTD:_sftbuf.obj
 0001:00045b80       __ftbuf                    10046b80 f   LIBCMTD:_sftbuf.obj
 0001:00045c10       __woutput_l                10046c10 f   LIBCMTD:woutput.obj
 0001:00046de0       _vfwprintf_helper          10047de0 f   LIBCMTD:vfwprint.obj
 0001:00046f60       __vfwprintf_l              10047f60 f   LIBCMTD:vfwprint.obj
 0001:00046f90       __vfwprintf_s_l            10047f90 f   LIBCMTD:vfwprint.obj
 0001:00046fc0       __vfwprintf_p_l            10047fc0 f   LIBCMTD:vfwprint.obj
 0001:00046ff0       _vfwprintf                 10047ff0 f   LIBCMTD:vfwprint.obj
 0001:00047010       _vfwprintf_s               10048010 f   LIBCMTD:vfwprint.obj
 0001:00047030       __vfwprintf_p              10048030 f   LIBCMTD:vfwprint.obj
 0001:00047050       __freebuf                  10048050 f   LIBCMTD:_freebuf.obj
 0001:000470e0       __fcloseall                100480e0 f   LIBCMTD:closeall.obj
 0001:00047210       ___crtMessageBoxA          10048210 f   LIBCMTD:crtmbox.obj
 0001:000474b0       __itoa_s                   100484b0 f   LIBCMTD:xtoas.obj
 0001:00047870       __ltoa_s                   10048870 f   LIBCMTD:xtoas.obj
 0001:000478b0       __ultoa_s                  100488b0 f   LIBCMTD:xtoas.obj
 0001:000478d0       __i64toa_s                 100488d0 f   LIBCMTD:xtoas.obj
 0001:00047cd0       __ui64toa_s                10048cd0 f   LIBCMTD:xtoas.obj
 0001:00047cf0       __mbsnbcat_s               10048cf0 f   LIBCMTD:mbsnbcat_s.obj
 0001:00047d10       __mbsnbcpy_s               10048d10 f   LIBCMTD:mbsnbcpy_s.obj
 0001:00047d30       _fprintf                   10048d30 f   LIBCMTD:fprintf.obj
 0001:00048020       __fprintf_l                10049020 f   LIBCMTD:fprintf.obj
 0001:00048050       __fprintf_s_l              10049050 f   LIBCMTD:fprintf.obj
 0001:00048080       _fprintf_s                 10049080 f   LIBCMTD:fprintf.obj
 0001:000480b0       __fprintf_p_l              100490b0 f   LIBCMTD:fprintf.obj
 0001:000480e0       __fprintf_p                100490e0 f   LIBCMTD:fprintf.obj
 0001:00048110       __woutput_s_l              10049110 f   LIBCMTD:woutputs.obj
 0001:00049430       __validate_param_reuseW    1004a430 f   LIBCMTD:woutputp.obj
 0001:000496a0       __woutput_p_l              1004a6a0 f   LIBCMTD:woutputp.obj
 0001:0004cdf0       ?_ValidateRead@@YAHPBXI@Z  1004ddf0 f   LIBCMTD:validate.obj
 0001:0004ce10       ?_ValidateWrite@@YAHPAXI@Z 1004de10 f   LIBCMTD:validate.obj
 0001:0004ce30       ?_ValidateExecute@@YAHP6GHXZ@Z 1004de30 f   LIBCMTD:validate.obj
 0001:0004ce50       __global_unwind2           1004de50 f   LIBCMTD:exsup.obj
 0001:0004ceb5       __local_unwind2            1004deb5 f   LIBCMTD:exsup.obj
 0001:0004cf39       __abnormal_termination     1004df39 f   LIBCMTD:exsup.obj
 0001:0004cf5c       __NLG_Notify1              1004df5c f   LIBCMTD:exsup.obj
 0001:0004cf65       __NLG_Notify               1004df65 f   LIBCMTD:exsup.obj
 0001:0004cf7c       __NLG_Dispatch             1004df7c     LIBCMTD:exsup.obj
 0001:0004cf7c       __NLG_Dispatch2            1004df7c     LIBCMTD:exsup.obj
 0001:0004cf84       __NLG_Call                 1004df84 f   LIBCMTD:exsup.obj
 0001:0004cf86       __NLG_Return2              1004df86     LIBCMTD:exsup.obj
 0001:0004cf90       __get_sse2_info            1004df90 f   LIBCMTD:cpu_disp.obj
 0001:0004d0b0       ___sse2_available_init     1004e0b0 f   LIBCMTD:cpu_disp.obj
 0001:0004d0d0       __lseeki64                 1004e0d0 f   LIBCMTD:lseeki64.obj
 0001:0004d320       __lseeki64_nolock          1004e320 f   LIBCMTD:lseeki64.obj
 0001:0004d410       __getbuf                   1004e410 f   LIBCMTD:_getbuf.obj
 0001:0004d4d0       __isatty                   1004e4d0 f   LIBCMTD:isatty.obj
 0001:0004d5b0       _printf                    1004e5b0 f   LIBCMTD:printf.obj
 0001:0004d6f0       __printf_l                 1004e6f0 f   LIBCMTD:printf.obj
 0001:0004d720       __printf_s_l               1004e720 f   LIBCMTD:printf.obj
 0001:0004d750       _printf_s                  1004e750 f   LIBCMTD:printf.obj
 0001:0004d770       __printf_p_l               1004e770 f   LIBCMTD:printf.obj
 0001:0004d7a0       __printf_p                 1004e7a0 f   LIBCMTD:printf.obj
 0001:0004d7c0       __set_printf_count_output  1004e7c0 f   LIBCMTD:printf.obj
 0001:0004d810       __get_printf_count_output  1004e810 f   LIBCMTD:printf.obj
 0001:0004d830       __wctomb_s_l               1004e830 f   LIBCMTD:wctomb.obj
 0001:0004db30       _wctomb_s                  1004eb30 f   LIBCMTD:wctomb.obj
 0001:0004db50       __wctomb_l                 1004eb50 f   LIBCMTD:wctomb.obj
 0001:0004dbd0       _wctomb                    1004ebd0 f   LIBCMTD:wctomb.obj
 0001:0004dc20       __isleadbyte_l             1004ec20 f i LIBCMTD:_wctype.obj
 0001:0004dc70       _isleadbyte                1004ec70 f i LIBCMTD:_wctype.obj
 0001:0004dc90       __iswalpha_l               1004ec90 f i LIBCMTD:_wctype.obj
 0001:0004dcb0       _iswalpha                  1004ecb0 f i LIBCMTD:_wctype.obj
 0001:0004dcd0       __iswupper_l               1004ecd0 f i LIBCMTD:_wctype.obj
 0001:0004dcf0       _iswupper                  1004ecf0 f i LIBCMTD:_wctype.obj
 0001:0004dd10       __iswlower_l               1004ed10 f i LIBCMTD:_wctype.obj
 0001:0004dd30       _iswlower                  1004ed30 f i LIBCMTD:_wctype.obj
 0001:0004dd50       __iswdigit_l               1004ed50 f i LIBCMTD:_wctype.obj
 0001:0004dd70       _iswdigit                  1004ed70 f i LIBCMTD:_wctype.obj
 0001:0004dd90       __iswxdigit_l              1004ed90 f i LIBCMTD:_wctype.obj
 0001:0004ddb0       _iswxdigit                 1004edb0 f i LIBCMTD:_wctype.obj
 0001:0004ddd0       __iswspace_l               1004edd0 f i LIBCMTD:_wctype.obj
 0001:0004ddf0       _iswspace                  1004edf0 f i LIBCMTD:_wctype.obj
 0001:0004de10       __iswpunct_l               1004ee10 f i LIBCMTD:_wctype.obj
 0001:0004de30       _iswpunct                  1004ee30 f i LIBCMTD:_wctype.obj
 0001:0004de50       __iswalnum_l               1004ee50 f i LIBCMTD:_wctype.obj
 0001:0004de70       _iswalnum                  1004ee70 f i LIBCMTD:_wctype.obj
 0001:0004de90       __iswprint_l               1004ee90 f i LIBCMTD:_wctype.obj
 0001:0004deb0       _iswprint                  1004eeb0 f i LIBCMTD:_wctype.obj
 0001:0004ded0       __iswgraph_l               1004eed0 f i LIBCMTD:_wctype.obj
 0001:0004def0       _iswgraph                  1004eef0 f i LIBCMTD:_wctype.obj
 0001:0004df10       __iswcntrl_l               1004ef10 f i LIBCMTD:_wctype.obj
 0001:0004df30       _iswcntrl                  1004ef30 f i LIBCMTD:_wctype.obj
 0001:0004df50       _iswascii                  1004ef50 f i LIBCMTD:_wctype.obj
 0001:0004df70       __iswcsym_l                1004ef70 f i LIBCMTD:_wctype.obj
 0001:0004dfb0       ___iswcsym                 1004efb0 f i LIBCMTD:_wctype.obj
 0001:0004dff0       __iswcsymf_l               1004eff0 f i LIBCMTD:_wctype.obj
 0001:0004e030       ___iswcsymf                1004f030 f i LIBCMTD:_wctype.obj
 0001:0004e070       __mbstowcs_l_helper        1004f070 f   LIBCMTD:mbstowcs.obj
 0001:0004e420       __mbstowcs_l               1004f420 f   LIBCMTD:mbstowcs.obj
 0001:0004e440       _mbstowcs                  1004f440 f   LIBCMTD:mbstowcs.obj
 0001:0004e490       __mbstowcs_s_l             1004f490 f   LIBCMTD:mbstowcs.obj
 0001:0004e790       _mbstowcs_s                1004f790 f   LIBCMTD:mbstowcs.obj
 0001:0004e7b4       __local_unwind4            1004f7b4 f   LIBCMTD:exsup4.obj
 0001:0004e88a       __seh_longjmp_unwind4@4    1004f88a f   LIBCMTD:exsup4.obj
 0001:0004e8a6       @_EH4_CallFilterFunc@8     1004f8a6 f   LIBCMTD:exsup4.obj
 0001:0004e8bd       @_EH4_TransferToHandler@8  1004f8bd f   LIBCMTD:exsup4.obj
 0001:0004e8d6       @_EH4_GlobalUnwind@4       1004f8d6 f   LIBCMTD:exsup4.obj
 0001:0004e8f0       @_EH4_LocalUnwind@16       1004f8f0 f   LIBCMTD:exsup4.obj
 0001:0004e910       __vswprintf_l              1004f910 f   LIBCMTD:vswprint.obj
 0001:0004eae0       __vswprintf                1004fae0 f   LIBCMTD:vswprint.obj
 0001:0004eb00       ___vswprintf_l             1004fb00 f   LIBCMTD:vswprint.obj
 0001:0004eb20       __vscwprintf_helper        1004fb20 f   LIBCMTD:vswprint.obj
 0001:0004ebe0       __vscwprintf               1004fbe0 f   LIBCMTD:vswprint.obj
 0001:0004ec00       __vscwprintf_l             1004fc00 f   LIBCMTD:vswprint.obj
 0001:0004ec20       __vscwprintf_p             1004fc20 f   LIBCMTD:vswprint.obj
 0001:0004ec40       __vscwprintf_p_l           1004fc40 f   LIBCMTD:vswprint.obj
 0001:0004ec60       ___unDName                 1004fc60 f   LIBCMTD:undname.obj
 0001:0004ed40       ?Constructor@HeapManager@@QAEXP6APAXI@ZP6AXPAX@Z@Z 1004fd40 f i LIBCMTD:undname.obj
 0001:0004ed80       ?Destructor@HeapManager@@QAEXXZ 1004fd80 f i LIBCMTD:undname.obj
 0001:0004edd0       ___unDNameEx               1004fdd0 f   LIBCMTD:undname.obj
 0001:0004eeb0       ??0UnDecorator@@QAE@PADPBDHP6APADJ@ZK@Z 1004feb0 f i LIBCMTD:undname.obj
 0001:0004ef50       ??BUnDecorator@@QAEPADXZ   1004ff50 f i LIBCMTD:undname.obj
 0001:0004f180       ?dbGetString@DName@@QBEPADXZ 10050180 f   LIBCMTD:undname.obj
 0001:0004f1a0       ?getDecoratedName@UnDecorator@@CA?AVDName@@XZ 100501a0 f   LIBCMTD:undname.obj
 0001:0004f4b0       ?getSymbolName@UnDecorator@@CA?AVDName@@XZ 100504b0 f i LIBCMTD:undname.obj
 0001:0004f520       ?getZName@UnDecorator@@CA?AVDName@@_N@Z 10050520 f   LIBCMTD:undname.obj
 0001:0004f790       ?getOperatorName@UnDecorator@@CA?AVDName@@_NPA_N@Z 10050790 f i LIBCMTD:undname.obj
 0001:000500a0       ?getStringEncoding@UnDecorator@@CA?AVDName@@PADH@Z 100510a0 f   LIBCMTD:undname.obj
 0001:000501a0       ?getScope@UnDecorator@@CA?AVDName@@XZ 100511a0 f   LIBCMTD:undname.obj
 0001:00050580       ?getSignedDimension@UnDecorator@@CA?AVDName@@XZ 10051580 f   LIBCMTD:undname.obj
 0001:00050600       ?getDimension@UnDecorator@@CA?AVDName@@_N@Z 10051600 f   LIBCMTD:undname.obj
 0001:000508b0       ?getNumberOfDimensions@UnDecorator@@CAHXZ 100518b0 f   LIBCMTD:undname.obj
 0001:000509b0       ?getTemplateName@UnDecorator@@CA?AVDName@@_N@Z 100519b0 f   LIBCMTD:undname.obj
 0001:00050b90       ?getTemplateArgumentList@UnDecorator@@CA?AVDName@@XZ 10051b90 f   LIBCMTD:undname.obj
 0001:00050e10       ?getTemplateConstant@UnDecorator@@CA?AVDName@@XZ 10051e10 f   LIBCMTD:undname.obj
 0001:000512a0       ?composeDeclaration@UnDecorator@@CA?AVDName@@ABV2@@Z 100522a0 f i LIBCMTD:undname.obj
 0001:000528a0       ?getTypeEncoding@UnDecorator@@CAHXZ 100538a0 f i LIBCMTD:undname.obj
 0001:00053230       ?getBasedType@UnDecorator@@CA?AVDName@@XZ 10054230 f   LIBCMTD:undname.obj
 0001:000532f0       ?getScopedName@UnDecorator@@CA?AVDName@@XZ 100542f0 f   LIBCMTD:undname.obj
 0001:00053410       ?getCallingConvention@UnDecorator@@CA?AVDName@@XZ 10054410 f   LIBCMTD:undname.obj
 0001:00053570       ?getReturnType@UnDecorator@@CA?AVDName@@PAV2@@Z 10054570 f   LIBCMTD:undname.obj
 0001:000535c0       ?getDataType@UnDecorator@@CA?AVDName@@PAV2@@Z 100545c0 f   LIBCMTD:undname.obj
 0001:000536d0       ?getPrimaryDataType@UnDecorator@@CA?AVDName@@ABV2@@Z 100546d0 f   LIBCMTD:undname.obj
 0001:00053970       ?getArgumentTypes@UnDecorator@@CA?AVDName@@XZ 10054970 f   LIBCMTD:undname.obj
 0001:00053ad0       ?getArgumentList@UnDecorator@@CA?AVDName@@XZ 10054ad0 f   LIBCMTD:undname.obj
 0001:00053c00       ?getThrowTypes@UnDecorator@@CA?AVDName@@XZ 10054c00 f   LIBCMTD:undname.obj
 0001:00053cb0       ?getBasicDataType@UnDecorator@@CA?AVDName@@ABV2@@Z 10054cb0 f   LIBCMTD:undname.obj
 0001:00054220       ?getECSUDataType@UnDecorator@@CA?AVDName@@XZ 10055220 f   LIBCMTD:undname.obj
 0001:000543f0       ?getECSUName@UnDecorator@@CA?AVDName@@XZ 100553f0 f i LIBCMTD:undname.obj
 0001:00054410       ?getEnumType@UnDecorator@@CA?AVDName@@XZ 10055410 f i LIBCMTD:undname.obj
 0001:00054560       ?getFunctionIndirectType@UnDecorator@@CA?AVDName@@ABV2@@Z 10055560 f   LIBCMTD:undname.obj
 0001:000549a0       ?getPtrRefType@UnDecorator@@CA?AVDName@@ABV2@0D@Z 100559a0 f   LIBCMTD:undname.obj
 0001:00054b00       ?getExtendedDataIndirectType@UnDecorator@@CA?AVDName@@AADAA_NH@Z 10055b00 f   LIBCMTD:undname.obj
 0001:00054c90       ?getDataIndirectType@UnDecorator@@CA?AVDName@@ABV2@D0H@Z 10055c90 f   LIBCMTD:undname.obj
 0001:00055380       ?getPtrRefDataType@UnDecorator@@CA?AVDName@@ABV2@H@Z 10056380 f i LIBCMTD:undname.obj
 0001:000554c0       ?getArrayType@UnDecorator@@CA?AVDName@@ABV2@@Z 100564c0 f i LIBCMTD:undname.obj
 0001:000556e0       ?getLexicalFrame@UnDecorator@@CA?AVDName@@XZ 100566e0 f i LIBCMTD:undname.obj
 0001:00055720       ?getThisType@UnDecorator@@CA?AVDName@@XZ 10056720 f i LIBCMTD:undname.obj
 0001:00055750       ?getPointerType@UnDecorator@@CA?AVDName@@ABV2@0@Z 10056750 f i LIBCMTD:undname.obj
 0001:00055770       ?getPointerTypeArray@UnDecorator@@CA?AVDName@@ABV2@0@Z 10056770 f i LIBCMTD:undname.obj
 0001:00055790       ?getReferenceType@UnDecorator@@CA?AVDName@@ABV2@0@Z 10056790 f i LIBCMTD:undname.obj
 0001:000557b0       ?getDisplacement@UnDecorator@@CA?AVDName@@XZ 100567b0 f i LIBCMTD:undname.obj
 0001:000557d0       ?getCallIndex@UnDecorator@@CA?AVDName@@XZ 100567d0 f i LIBCMTD:undname.obj
 0001:000557f0       ?getGuardNumber@UnDecorator@@CA?AVDName@@XZ 100567f0 f i LIBCMTD:undname.obj
 0001:00055810       ?getVbTableType@UnDecorator@@CA?AVDName@@ABV2@@Z 10056810 f i LIBCMTD:undname.obj
 0001:00055830       ?getVCallThunkType@UnDecorator@@CA?AVDName@@XZ 10056830 f i LIBCMTD:undname.obj
 0001:00055890       ?getVfTableType@UnDecorator@@CA?AVDName@@ABV2@@Z 10056890 f i LIBCMTD:undname.obj
 0001:00055a50       ?getStorageConvention@UnDecorator@@CA?AVDName@@XZ 10056a50 f i LIBCMTD:undname.obj
 0001:00055a70       ?getDataIndirectType@UnDecorator@@CA?AVDName@@XZ 10056a70 f i LIBCMTD:undname.obj
 0001:00055aa0       ?getVdispMapType@UnDecorator@@CA?AVDName@@ABV2@@Z 10056aa0 f i LIBCMTD:undname.obj
 0001:00055b10       ?getExternalDataType@UnDecorator@@CA?AVDName@@ABV2@@Z 10056b10 f i LIBCMTD:undname.obj
 0001:00055ba0       ?doMSKeywords@UnDecorator@@SAHXZ 10056ba0 f i LIBCMTD:undname.obj
 0001:00055bc0       ?doPtr64@UnDecorator@@SAHXZ 10056bc0 f i LIBCMTD:undname.obj
 0001:00055be0       ?doFunctionReturns@UnDecorator@@SAHXZ 10056be0 f i LIBCMTD:undname.obj
 0001:00055c00       ?doAllocationModel@UnDecorator@@SAHXZ 10056c00 f i LIBCMTD:undname.obj
 0001:00055c20       ?doAllocationLanguage@UnDecorator@@SAHXZ 10056c20 f i LIBCMTD:undname.obj
 0001:00055c40       ?doThisTypes@UnDecorator@@SAHXZ 10056c40 f i LIBCMTD:undname.obj
 0001:00055c60       ?doAccessSpecifiers@UnDecorator@@SAHXZ 10056c60 f i LIBCMTD:undname.obj
 0001:00055c80       ?doThrowTypes@UnDecorator@@SAHXZ 10056c80 f i LIBCMTD:undname.obj
 0001:00055ca0       ?doMemberTypes@UnDecorator@@SAHXZ 10056ca0 f i LIBCMTD:undname.obj
 0001:00055cc0       ?doNameOnly@UnDecorator@@SAHXZ 10056cc0 f i LIBCMTD:undname.obj
 0001:00055cd0       ?doTypeOnly@UnDecorator@@SAHXZ 10056cd0 f i LIBCMTD:undname.obj
 0001:00055ce0       ?haveTemplateParameters@UnDecorator@@SAHXZ 10056ce0 f i LIBCMTD:undname.obj
 0001:00055cf0       ?doEcsu@UnDecorator@@SAHXZ 10056cf0 f i LIBCMTD:undname.obj
 0001:00055d10       ?doEllipsis@UnDecorator@@SAHXZ 10056d10 f i LIBCMTD:undname.obj
 0001:00055d30       ?UScore@UnDecorator@@SAPBDW4Tokens@@@Z 10056d30 f   LIBCMTD:undname.obj
 0001:00055d60       ?doUnderScore@UnDecorator@@SAHXZ 10056d60 f i LIBCMTD:undname.obj
 0001:00055d80       ??2@YAPAXIAAVHeapManager@@H@Z 10056d80 f i LIBCMTD:undname.obj
 0001:00055da0       ?getMemory@HeapManager@@QAEPAXIH@Z 10056da0 f   LIBCMTD:undname.obj
 0001:00055eb0       ??0Block@HeapManager@@QAE@XZ 10056eb0 f i LIBCMTD:undname.obj
 0001:00055ed0       ??H@YA?AVDName@@DABV0@@Z   10056ed0 f i LIBCMTD:undname.obj
 0001:00055f00       ??H@YA?AVDName@@W4DNameStatus@@ABV0@@Z 10056f00 f i LIBCMTD:undname.obj
 0001:00055f30       ??H@YA?AVDName@@PBDABV0@@Z 10056f30 f i LIBCMTD:undname.obj
 0001:00055f60       ??0DName@@QAE@XZ           10056f60 f i LIBCMTD:undname.obj
 0001:00056010       ??0DName@@QAE@D@Z          10057010 f   LIBCMTD:undname.obj
 0001:000560e0       ??0DName@@QAE@ABV0@@Z      100570e0 f i LIBCMTD:undname.obj
 0001:00056240       ??0DName@@QAE@PAV0@@Z      10057240 f   LIBCMTD:undname.obj
 0001:00056360       ??0DName@@QAE@PBD@Z        10057360 f   LIBCMTD:undname.obj
 0001:00056430       ??0DName@@QAE@AAPBDD@Z     10057430 f   LIBCMTD:undname.obj
 0001:000566e0       ?doNoIdentCharCheck@UnDecorator@@SAHXZ 100576e0 f i LIBCMTD:undname.obj
 0001:000566f0       ??0DName@@QAE@_K@Z         100576f0 f   LIBCMTD:undname.obj
 0001:00056820       ??0DName@@QAE@_J@Z         10057820 f   LIBCMTD:undname.obj
 0001:00056990       ??0DName@@QAE@W4DNameStatus@@@Z 10057990 f   LIBCMTD:undname.obj
 0001:00056ab0       ?isValid@DName@@QBEHXZ     10057ab0 f   LIBCMTD:undname.obj
 0001:00056af0       ?isEmpty@DName@@QBEHXZ     10057af0 f   LIBCMTD:undname.obj
 0001:00056b30       ?status@DName@@QBE?AW4DNameStatus@@XZ 10057b30 f i LIBCMTD:undname.obj
 0001:00056b50       ?clearStatus@DName@@QAEXXZ 10057b50 f i LIBCMTD:undname.obj
 0001:00056b70       ?setPtrRef@DName@@QAEAAV1@XZ 10057b70 f i LIBCMTD:undname.obj
 0001:00056b90       ?isPtrRef@DName@@QBEHXZ    10057b90 f i LIBCMTD:undname.obj
 0001:00056bb0       ?isUDC@DName@@QBEHXZ       10057bb0 f i LIBCMTD:undname.obj
 0001:00056bf0       ?setIsUDC@DName@@QAEXXZ    10057bf0 f i LIBCMTD:undname.obj
 0001:00056c20       ?isUDTThunk@DName@@QBEHXZ  10057c20 f i LIBCMTD:undname.obj
 0001:00056c60       ?setIsArray@DName@@QAEXXZ  10057c60 f i LIBCMTD:undname.obj
 0001:00056c80       ?isArray@DName@@QBEHXZ     10057c80 f i LIBCMTD:undname.obj
 0001:00056ca0       ?isNoTE@DName@@QBEHXZ      10057ca0 f i LIBCMTD:undname.obj
 0001:00056cc0       ?setIsNoTE@DName@@QAEXXZ   10057cc0 f i LIBCMTD:undname.obj
 0001:00056ce0       ?isPinPtr@DName@@QBEHXZ    10057ce0 f i LIBCMTD:undname.obj
 0001:00056d00       ?setIsPinPtr@DName@@QAEXXZ 10057d00 f i LIBCMTD:undname.obj
 0001:00056d20       ?isComArray@DName@@QBEHXZ  10057d20 f i LIBCMTD:undname.obj
 0001:00056d40       ?setIsComArray@DName@@QAEXXZ 10057d40 f i LIBCMTD:undname.obj
 0001:00056d60       ?isVCallThunk@DName@@QBEHXZ 10057d60 f i LIBCMTD:undname.obj
 0001:00056d80       ?setIsVCallThunk@DName@@QAEXXZ 10057d80 f i LIBCMTD:undname.obj
 0001:00056da0       ?length@DName@@QBEHXZ      10057da0 f   LIBCMTD:undname.obj
 0001:00056e00       ?getLastChar@DName@@QBEDXZ 10057e00 f   LIBCMTD:undname.obj
 0001:00056e80       ?getString@DName@@QBEPADPADH@Z 10057e80 f   LIBCMTD:undname.obj
 0001:00056f80       ??HDName@@QBE?AV0@D@Z      10057f80 f   LIBCMTD:undname.obj
 0001:00056fd0       ??HDName@@QBE?AV0@PBD@Z    10057fd0 f   LIBCMTD:undname.obj
 0001:00057020       ??HDName@@QBE?AV0@ABV0@@Z  10058020 f   LIBCMTD:undname.obj
 0001:00057090       ??HDName@@QBE?AV0@PAV0@@Z  10058090 f   LIBCMTD:undname.obj
 0001:000570e0       ??HDName@@QBE?AV0@W4DNameStatus@@@Z 100580e0 f   LIBCMTD:undname.obj
 0001:00057130       ??YDName@@QAEAAV0@D@Z      10058130 f   LIBCMTD:undname.obj
 0001:000571e0       ??YDName@@QAEAAV0@PBD@Z    100581e0 f   LIBCMTD:undname.obj
 0001:000572a0       ??YDName@@QAEAAV0@ABV0@@Z  100582a0 f   LIBCMTD:undname.obj
 0001:00057330       ??YDName@@QAEAAV0@PAV0@@Z  10058330 f   LIBCMTD:undname.obj
 0001:00057430       ??YDName@@QAEAAV0@W4DNameStatus@@@Z 10058430 f   LIBCMTD:undname.obj
 0001:00057500       ??_5DName@@QAEAAV0@ABV0@@Z 10058500 f   LIBCMTD:undname.obj
 0001:00057550       ??4DName@@QAEAAV0@D@Z      10058550 f   LIBCMTD:undname.obj
 0001:000575c0       ??4DName@@QAEAAV0@PBD@Z    100585c0 f   LIBCMTD:undname.obj
 0001:00057640       ??4DName@@QAEAAV0@ABV0@@Z  10058640 f   LIBCMTD:undname.obj
 0001:00057750       ??4DName@@QAEAAV0@PAV0@@Z  10058750 f   LIBCMTD:undname.obj
 0001:00057840       ??4DName@@QAEAAV0@W4DNameStatus@@@Z 10058840 f   LIBCMTD:undname.obj
 0001:00057950       ?doPchar@DName@@AAEXPBDH@Z 10058950 f   LIBCMTD:undname.obj
 0001:00057aa0       ?isFull@Replicator@@QBEHXZ 10058aa0 f i LIBCMTD:undname.obj
 0001:00057ac0       ??0Replicator@@QAE@XZ      10058ac0 f i LIBCMTD:undname.obj
 0001:00057b00       ??YReplicator@@QAEAAV0@ABVDName@@@Z 10058b00 f   LIBCMTD:undname.obj
 0001:00057b90       ??AReplicator@@QBEABVDName@@H@Z 10058b90 f   LIBCMTD:undname.obj
 0001:00057be0       ??0DNameNode@@IAE@XZ       10058be0 f   LIBCMTD:undname.obj
 0001:00057c10       ?nextNode@DNameNode@@QBEPAV1@XZ 10058c10 f i LIBCMTD:undname.obj
 0001:00057c30       ?clone@DNameNode@@QAEPAV1@XZ 10058c30 f   LIBCMTD:undname.obj
 0001:00057cb0       ??0DName@@QAE@PAVDNameNode@@@Z 10058cb0 f i LIBCMTD:undname.obj
 0001:00057d60       ??YDNameNode@@QAEAAV0@PAV0@@Z 10058d60 f   LIBCMTD:undname.obj
 0001:00057dc0       ??0charNode@@QAE@D@Z       10058dc0 f   LIBCMTD:undname.obj
 0001:00057df0       ?length@charNode@@UBEHXZ   10058df0 f i LIBCMTD:undname.obj
 0001:00057e00       ?getLastChar@charNode@@UBEDXZ 10058e00 f i LIBCMTD:undname.obj
 0001:00057e20       ?getString@charNode@@UBEPADPADH@Z 10058e20 f   LIBCMTD:undname.obj
 0001:00057e50       ??0pcharNode@@QAE@PBDH@Z   10058e50 f   LIBCMTD:undname.obj
 0001:00057f00       ?length@pcharNode@@UBEHXZ  10058f00 f i LIBCMTD:undname.obj
 0001:00057f20       ?getLastChar@pcharNode@@UBEDXZ 10058f20 f i LIBCMTD:undname.obj
 0001:00057f60       ?getString@pcharNode@@UBEPADPADH@Z 10058f60 f   LIBCMTD:undname.obj
 0001:00057fd0       ??0pDNameNode@@QAE@PAVDName@@@Z 10058fd0 f   LIBCMTD:undname.obj
 0001:00058030       ?length@pDNameNode@@UBEHXZ 10059030 f i LIBCMTD:undname.obj
 0001:00058060       ?getLastChar@pDNameNode@@UBEDXZ 10059060 f i LIBCMTD:undname.obj
 0001:00058090       ?getString@pDNameNode@@UBEPADPADH@Z 10059090 f   LIBCMTD:undname.obj
 0001:000580e0       ??0DNameStatusNode@@QAE@W4DNameStatus@@@Z 100590e0 f   LIBCMTD:undname.obj
 0001:00058130       ?length@DNameStatusNode@@UBEHXZ 10059130 f i LIBCMTD:undname.obj
 0001:00058150       ?getLastChar@DNameStatusNode@@UBEDXZ 10059150 f i LIBCMTD:undname.obj
 0001:00058170       ?getString@DNameStatusNode@@UBEPADPADH@Z 10059170 f   LIBCMTD:undname.obj
 0001:000582c0       ___crtLCMapStringA         100592c0 f   LIBCMTD:a_map.obj
 0001:00058820       __MarkAllocaS              10059820 f i LIBCMTD:a_map.obj
 0001:00058840       __freea                    10059840 f i LIBCMTD:a_map.obj
 0001:00058900       ___crtGetStringTypeA       10059900 f   LIBCMTD:a_str.obj
 0001:00058b90       ___pwctype_func            10059b90 f   LIBCMTD:ctype.obj
 0001:00058ba0       ___pctype_func             10059ba0 f   LIBCMTD:ctype.obj
 0001:00058bf0       ___init_time               10059bf0 f   LIBCMTD:inittime.obj
 0001:00059310       ___free_lc_time            1005a310 f   LIBCMTD:inittime.obj
 0001:00059620       ___init_numeric            1005a620 f   LIBCMTD:initnum.obj
 0001:00059970       ___free_lconv_num          1005a970 f   LIBCMTD:initnum.obj
 0001:000599e0       ___init_monetary           1005a9e0 f   LIBCMTD:initmon.obj
 0001:00059ee0       ___free_lconv_mon          1005aee0 f   LIBCMTD:initmon.obj
 0001:00059fd0       ___init_ctype              1005afd0 f   LIBCMTD:initctyp.obj
 0001:0005a580       ____mb_cur_max_func        1005b580 f   LIBCMTD:initctyp.obj
 0001:0005a5d0       ____mb_cur_max_l_func      1005b5d0 f   LIBCMTD:initctyp.obj
 0001:0005a600       ____lc_codepage_func       1005b600 f   LIBCMTD:initctyp.obj
 0001:0005a650       ____lc_collate_cp_func     1005b650 f   LIBCMTD:initctyp.obj
 0001:0005a6a0       ____lc_handle_func         1005b6a0 f   LIBCMTD:initctyp.obj
 0001:0005a6f0       ___init_collate            1005b6f0 f   LIBCMTD:initcoll.obj
 0001:0005a700       __Getdays_l                1005b700 f   LIBCMTD:strftime.obj
 0001:0005a8c0       __Getdays                  1005b8c0 f   LIBCMTD:strftime.obj
 0001:0005a8d0       __Getmonths_l              1005b8d0 f   LIBCMTD:strftime.obj
 0001:0005aa90       __Getmonths                1005ba90 f   LIBCMTD:strftime.obj
 0001:0005aaa0       __Gettnames_l              1005baa0 f   LIBCMTD:strftime.obj
 0001:0005b010       __Gettnames                1005c010 f   LIBCMTD:strftime.obj
 0001:0005b020       __strftime_l               1005c020 f   LIBCMTD:strftime.obj
 0001:0005b050       _strftime                  1005c050 f   LIBCMTD:strftime.obj
 0001:0005b080       __Strftime                 1005c080 f   LIBCMTD:strftime.obj
 0001:0005b0b0       __Strftime_l               1005c0b0 f   LIBCMTD:strftime.obj
 0001:0005ce80       _localeconv                1005de80 f   LIBCMTD:lconv.obj
 0001:0005ced0       _strncpy_s                 1005ded0 f   LIBCMTD:strncpy_s.obj
 0001:0005d2c0       _strcspn                   1005e2c0 f   LIBCMTD:strcspn.obj
 0001:0005d310       _strpbrk                   1005e310 f   LIBCMTD:strpbrk.obj
 0001:0005d350       ___get_qualified_locale    1005e350 f   LIBCMTD:getqloc.obj
 0001:0005e1c0       __ismbbkalnum_l            1005f1c0 f   LIBCMTD:ismbbyte.obj
 0001:0005e1e0       __ismbbkalnum              1005f1e0 f   LIBCMTD:ismbbyte.obj
 0001:0005e200       __ismbbkprint_l            1005f200 f   LIBCMTD:ismbbyte.obj
 0001:0005e220       __ismbbkprint              1005f220 f   LIBCMTD:ismbbyte.obj
 0001:0005e240       __ismbbkpunct_l            1005f240 f   LIBCMTD:ismbbyte.obj
 0001:0005e260       __ismbbkpunct              1005f260 f   LIBCMTD:ismbbyte.obj
 0001:0005e280       __ismbbalnum_l             1005f280 f   LIBCMTD:ismbbyte.obj
 0001:0005e2a0       __ismbbalnum               1005f2a0 f   LIBCMTD:ismbbyte.obj
 0001:0005e2c0       __ismbbalpha_l             1005f2c0 f   LIBCMTD:ismbbyte.obj
 0001:0005e2e0       __ismbbalpha               1005f2e0 f   LIBCMTD:ismbbyte.obj
 0001:0005e300       __ismbbgraph_l             1005f300 f   LIBCMTD:ismbbyte.obj
 0001:0005e320       __ismbbgraph               1005f320 f   LIBCMTD:ismbbyte.obj
 0001:0005e340       __ismbbprint_l             1005f340 f   LIBCMTD:ismbbyte.obj
 0001:0005e360       __ismbbprint               1005f360 f   LIBCMTD:ismbbyte.obj
 0001:0005e380       __ismbbpunct_l             1005f380 f   LIBCMTD:ismbbyte.obj
 0001:0005e3a0       __ismbbpunct               1005f3a0 f   LIBCMTD:ismbbyte.obj
 0001:0005e3c0       __ismbblead_l              1005f3c0 f   LIBCMTD:ismbbyte.obj
 0001:0005e3e0       __ismbblead                1005f3e0 f   LIBCMTD:ismbbyte.obj
 0001:0005e400       __ismbbtrail_l             1005f400 f   LIBCMTD:ismbbyte.obj
 0001:0005e420       __ismbbtrail               1005f420 f   LIBCMTD:ismbbyte.obj
 0001:0005e440       __ismbbkana_l              1005f440 f   LIBCMTD:ismbbyte.obj
 0001:0005e4b0       __ismbbkana                1005f4b0 f   LIBCMTD:ismbbyte.obj
 0001:0005e590       __allmul                   1005f590 f   LIBCMTD:llmul.obj
 0001:0005e5d0       __isalpha_l                1005f5d0 f i LIBCMTD:_ctype.obj
 0001:0005e660       _isalpha                   1005f660 f i LIBCMTD:_ctype.obj
 0001:0005e6a0       __isupper_l                1005f6a0 f i LIBCMTD:_ctype.obj
 0001:0005e720       _isupper                   1005f720 f i LIBCMTD:_ctype.obj
 0001:0005e750       __islower_l                1005f750 f i LIBCMTD:_ctype.obj
 0001:0005e7d0       _islower                   1005f7d0 f i LIBCMTD:_ctype.obj
 0001:0005e800       __isdigit_l                1005f800 f i LIBCMTD:_ctype.obj
 0001:0005e880       _isdigit                   1005f880 f i LIBCMTD:_ctype.obj
 0001:0005e8b0       __isxdigit_l               1005f8b0 f i LIBCMTD:_ctype.obj
 0001:0005e940       _isxdigit                  1005f940 f i LIBCMTD:_ctype.obj
 0001:0005e980       __isspace_l                1005f980 f i LIBCMTD:_ctype.obj
 0001:0005ea00       _isspace                   1005fa00 f i LIBCMTD:_ctype.obj
 0001:0005ea30       __ispunct_l                1005fa30 f i LIBCMTD:_ctype.obj
 0001:0005eab0       _ispunct                   1005fab0 f i LIBCMTD:_ctype.obj
 0001:0005eae0       __isalnum_l                1005fae0 f i LIBCMTD:_ctype.obj
 0001:0005eb70       _isalnum                   1005fb70 f i LIBCMTD:_ctype.obj
 0001:0005ebb0       __isprint_l                1005fbb0 f i LIBCMTD:_ctype.obj
 0001:0005ec40       _isprint                   1005fc40 f i LIBCMTD:_ctype.obj
 0001:0005ec80       __isgraph_l                1005fc80 f i LIBCMTD:_ctype.obj
 0001:0005ed10       _isgraph                   1005fd10 f i LIBCMTD:_ctype.obj
 0001:0005ed50       __iscntrl_l                1005fd50 f i LIBCMTD:_ctype.obj
 0001:0005edd0       _iscntrl                   1005fdd0 f i LIBCMTD:_ctype.obj
 0001:0005ee00       ___isascii                 1005fe00 f i LIBCMTD:_ctype.obj
 0001:0005ee10       ___toascii                 1005fe10 f i LIBCMTD:_ctype.obj
 0001:0005ee20       __iscsymf_l                1005fe20 f i LIBCMTD:_ctype.obj
 0001:0005ee60       ___iscsymf                 1005fe60 f i LIBCMTD:_ctype.obj
 0001:0005eea0       __iscsym_l                 1005fea0 f i LIBCMTD:_ctype.obj
 0001:0005eee0       ___iscsym                  1005fee0 f i LIBCMTD:_ctype.obj
 0001:0005ef20       __tolower                  1005ff20 f   LIBCMTD:tolower.obj
 0001:0005ef30       __tolower_l                1005ff30 f   LIBCMTD:tolower.obj
 0001:0005f110       _tolower                   10060110 f   LIBCMTD:tolower.obj
 0001:0005f160       __atodbl_l                 10060160 f   LIBCMTD:atodbl.obj
 0001:0005f260       __atodbl                   10060260 f   LIBCMTD:atodbl.obj
 0001:0005f280       __atoldbl_l                10060280 f   LIBCMTD:atodbl.obj
 0001:0005f380       __atoldbl                  10060380 f   LIBCMTD:atodbl.obj
 0001:0005f3a0       __atoflt_l                 100603a0 f   LIBCMTD:atodbl.obj
 0001:0005f4a0       __atoflt                   100604a0 f   LIBCMTD:atodbl.obj
 0001:0005f4c0       __fptostr                  100604c0 f   LIBCMTD:_fptostr.obj
 0001:0005f770       __set_output_format        10060770 f   LIBCMTD:outputformat.obj
 0001:0005f7f0       __get_output_format        100607f0 f   LIBCMTD:outputformat.obj
 0001:0005f800       __allrem                   10060800 f   LIBCMTD:llrem.obj
 0001:0005f8c0       __alldiv                   100608c0 f   LIBCMTD:lldiv.obj
 0001:0005f970       __allshl                   10060970 f   LIBCMTD:llshl.obj
 0001:0005f990       __aullshr                  10060990 f   LIBCMTD:ullshr.obj
 0001:0005f9b0       _strrchr                   100609b0 f   LIBCMTD:strrchr.obj
 0001:0005f9e0       _$I10_OUTPUT               100609e0 f   LIBCMTD:x10fout.obj
 0001:0005ff80       ___add_12                  10060f80 f i LIBCMTD:x10fout.obj
 0001:00060030       ___addl                    10061030 f i LIBCMTD:x10fout.obj
 0001:00060070       ___shl_12                  10061070 f i LIBCMTD:x10fout.obj
 0001:000600d0       ___shr_12                  100610d0 f i LIBCMTD:x10fout.obj
 0001:00060140       ___ld12mul                 10061140 f i LIBCMTD:x10fout.obj
 0001:00060540       ___multtenpow12            10061540 f i LIBCMTD:x10fout.obj
 0001:00060620       __controlfp_s              10061620 f   LIBCMTD:contrlfp.obj
 0001:00060700       __fptrap                   10061700 f   LIBCMTD:crt0fp.obj
 0001:00060710       __ld12tod                  10061710 f   LIBCMTD:intrncvt.obj
 0001:00060730       __ld12cvt                  10061730 f i LIBCMTD:intrncvt.obj
 0001:00060980       __RoundMan                 10061980 f i LIBCMTD:intrncvt.obj
 0001:00060a60       __ZeroTail                 10061a60 f i LIBCMTD:intrncvt.obj
 0001:00060af0       __IncMan                   10061af0 f i LIBCMTD:intrncvt.obj
 0001:00060ba0       __CopyMan                  10061ba0 f i LIBCMTD:intrncvt.obj
 0001:00060bf0       __FillZeroMan              10061bf0 f i LIBCMTD:intrncvt.obj
 0001:00060c20       __IsZeroMan                10061c20 f i LIBCMTD:intrncvt.obj
 0001:00060c60       __ShrMan                   10061c60 f i LIBCMTD:intrncvt.obj
 0001:00060d50       __ld12tof                  10061d50 f   LIBCMTD:intrncvt.obj
 0001:00060d70       __ld12told                 10061d70 f   LIBCMTD:intrncvt.obj
 0001:00060e20       ___strgtold12_l            10061e20 f   LIBCMTD:strgtold.obj
 0001:000618d0       ___STRINGTOLD_L            100628d0 f   LIBCMTD:strgtold.obj
 0001:00061940       ___crtGetLocaleInfoW       10062940 f   LIBCMTD:w_loc.obj
 0001:00061b10       ___crtGetLocaleInfoA       10062b10 f   LIBCMTD:a_loc.obj
 0001:00061cf0       __alloc_osfhnd             10062cf0 f   LIBCMTD:osfinfo.obj
 0001:00061fa0       __set_osfhnd               10062fa0 f   LIBCMTD:osfinfo.obj
 0001:00062070       __free_osfhnd              10063070 f   LIBCMTD:osfinfo.obj
 0001:00062160       __get_osfhandle            10063160 f   LIBCMTD:osfinfo.obj
 0001:000622c0       __open_osfhandle           100632c0 f   LIBCMTD:osfinfo.obj
 0001:000624f0       ___lock_fhandle            100634f0 f   LIBCMTD:osfinfo.obj
 0001:000625f0       __unlock_fhandle           100635f0 f   LIBCMTD:osfinfo.obj
 0001:00062620       __putwch                   10063620 f   LIBCMTD:putwch.obj
 0001:000626b0       __putwch_nolock            100636b0 f   LIBCMTD:putwch.obj
 0001:000627b0       __cputws                   100637b0 f   LIBCMTD:putwch.obj
 0001:000628f0       __mbtowc_l                 100638f0 f   LIBCMTD:mbtowc.obj
 0001:00062b10       _mbtowc                    10063b10 f   LIBCMTD:mbtowc.obj
 0001:00062b30       _fputwc                    10063b30 f   LIBCMTD:fputwc.obj
 0001:00062c30       __fputwc_nolock            10063c30 f   LIBCMTD:fputwc.obj
 0001:00063010       _putwc                     10064010 f   LIBCMTD:fputwc.obj
 0001:00063030       _fclose                    10064030 f   LIBCMTD:fclose.obj
 0001:00063140       __fclose_nolock            10064140 f   LIBCMTD:fclose.obj
 0001:00063240       __mbsnbcat_s_l             10064240 f   LIBCMTD:mbsnbcat_s_l.obj
 0001:00063a20       __mbsnbcpy_s_l             10064a20 f   LIBCMTD:mbsnbcpy_s_l.obj
 0001:000640a0       _vfprintf_helper           100650a0 f   LIBCMTD:vfprintf.obj
 0001:00064380       __vfprintf_l               10065380 f   LIBCMTD:vfprintf.obj
 0001:000643b0       __vfprintf_s_l             100653b0 f   LIBCMTD:vfprintf.obj
 0001:000643e0       __vfprintf_p_l             100653e0 f   LIBCMTD:vfprintf.obj
 0001:00064410       _vfprintf                  10065410 f   LIBCMTD:vfprintf.obj
 0001:00064430       _vfprintf_s                10065430 f   LIBCMTD:vfprintf.obj
 0001:00064450       __vfprintf_p               10065450 f   LIBCMTD:vfprintf.obj
 0001:00064470       _wcstol                    10065470 f   LIBCMTD:wcstol.obj
 0001:000648f0       __wcstol_l                 100658f0 f   LIBCMTD:wcstol.obj
 0001:00064910       _wcstoul                   10065910 f   LIBCMTD:wcstol.obj
 0001:00064960       __wcstoul_l                10065960 f   LIBCMTD:wcstol.obj
 0001:00064980       _vprintf_helper            10065980 f   LIBCMTD:vprintf.obj
 0001:00064aa0       __vprintf_l                10065aa0 f   LIBCMTD:vprintf.obj
 0001:00064ac0       __vprintf_s_l              10065ac0 f   LIBCMTD:vprintf.obj
 0001:00064ae0       __vprintf_p_l              10065ae0 f   LIBCMTD:vprintf.obj
 0001:00064b00       _vprintf                   10065b00 f   LIBCMTD:vprintf.obj
 0001:00064b20       _vprintf_s                 10065b20 f   LIBCMTD:vprintf.obj
 0001:00064b40       __vprintf_p                10065b40 f   LIBCMTD:vprintf.obj
 0001:00064b60       __iswctype_l               10065b60 f   LIBCMTD:iswctype.obj
 0001:00064c10       _iswctype                  10065c10 f   LIBCMTD:iswctype.obj
 0001:00064ca0       _is_wctype                 10065ca0 f   LIBCMTD:iswctype.obj
 0001:00064cc0       ___ansicp                  10065cc0 f   LIBCMTD:convrtcp.obj
 0001:00064d20       ___convertcp               10065d20 f   LIBCMTD:convrtcp.obj
 0001:00064f60       __get_daylight             10065f60 f   LIBCMTD:timeset.obj
 0001:00064fe0       __get_dstbias              10065fe0 f   LIBCMTD:timeset.obj
 0001:00065060       __get_timezone             10066060 f   LIBCMTD:timeset.obj
 0001:000650e0       __get_tzname               100660e0 f   LIBCMTD:timeset.obj
 0001:000652b0       ___daylight                100662b0 f   LIBCMTD:timeset.obj
 0001:000652c0       ___dstbias                 100662c0 f   LIBCMTD:timeset.obj
 0001:000652d0       ___timezone                100662d0 f   LIBCMTD:timeset.obj
 0001:000652e0       ___tzname                  100662e0 f   LIBCMTD:timeset.obj
 0001:000652f0       ___tzset                   100662f0 f   LIBCMTD:tzset.obj
 0001:00065380       __tzset                    10066380 f   LIBCMTD:tzset.obj
 0001:00065930       __set_daylight             10066930 f i LIBCMTD:tzset.obj
 0001:00065940       __set_dstbias              10066940 f i LIBCMTD:tzset.obj
 0001:00065950       __set_timezone             10066950 f i LIBCMTD:tzset.obj
 0001:00065960       __isindst                  10066960 f   LIBCMTD:tzset.obj
 0001:00065fc0       __stricmp_l                10066fc0 f   LIBCMTD:stricmp.obj
 0001:00066170       ___ascii_stricmp           10067170 f   LIBCMTD:stricmp.obj
 0001:000661e0       __stricmp                  100671e0 f   LIBCMTD:stricmp.obj
 0001:000662f0       __strnicmp_l               100672f0 f   LIBCMTD:strnicmp.obj
 0001:00066530       __strnicmp                 10067530 f   LIBCMTD:strnicmp.obj
 0001:000666c0       __statusfp2                100676c0 f   LIBCMTD:ieee87.obj
 0001:00066700       __statusfp                 10067700 f   LIBCMTD:ieee87.obj
 0001:00066740       __clearfp                  10067740 f   LIBCMTD:ieee87.obj
 0001:00066780       ___control87_2             10067780 f   LIBCMTD:ieee87.obj
 0001:00066830       __controlfp                10067830 f   LIBCMTD:ieee87.obj
 0001:00066850       __control87                10067850 f i LIBCMTD:ieee87.obj
 0001:00066900       __set_controlfp            10067900 f   LIBCMTD:ieee87.obj
 0001:00066990       __fpreset                  10067990 f   LIBCMTD:ieee87.obj
 0001:00067140       ___mtold12                 10068140 f   LIBCMTD:mantold.obj
 0001:00067290       ___initconin               10068290 f   LIBCMTD:initcon.obj
 0001:000672c0       ___initconout              100682c0 f   LIBCMTD:initcon.obj
 0001:000672f0       ___termcon                 100682f0 f   LIBCMTD:initcon.obj
 0001:00067340       __flswbuf                  10068340 f   LIBCMTD:_flswbuf.obj
 0001:00067620       __close                    10068620 f   LIBCMTD:close.obj
 0001:00067830       __close_nolock             10068830 f   LIBCMTD:close.obj
 0001:00067900       _strncat_s                 10068900 f   LIBCMTD:strncat_s.obj
 0001:00067da0       __wchartodigit             10068da0 f   LIBCMTD:wchtodig.obj
 0001:000680c0       ___crtGetStringTypeW       100690c0 f   LIBCMTD:w_str.obj
 0001:000683c0       _getenv                    100693c0 f   LIBCMTD:getenv.obj
 0001:00068510       __getenv_helper_nolock     10069510 f   LIBCMTD:getenv.obj
 0001:00068630       _getenv_s                  10069630 f   LIBCMTD:getenv.obj
 0001:00068860       __dupenv_s                 10069860 f   LIBCMTD:getenv.obj
 0001:00068880       __dupenv_s_dbg             10069880 f   LIBCMTD:getenv.obj
 0001:00068ad0       ___ascii_strnicmp          10069ad0 f   LIBCMTD:_strnicm.obj
 0001:00068b40       __statfp                   10069b40 f   LIBCMTD:fpctrl.obj
 0001:00068b50       __clrfp                    10069b50 f   LIBCMTD:fpctrl.obj
 0001:00068b70       __ctrlfp                   10069b70 f   LIBCMTD:fpctrl.obj
 0001:00068ba0       __set_statfp               10069ba0 f   LIBCMTD:fpctrl.obj
 0001:00068c10       ___get_fpsr_sse2           10069c10 f   LIBCMTD:fpctrl.obj
 0001:00068c40       ___set_fpsr_sse2           10069c40 f   LIBCMTD:fpctrl.obj
 0001:00068d20       ___fclrf_sse2              10069d20 f   LIBCMTD:fpctrl.obj
 0001:00068d40       ___statfp_sse2             10069d40 f   LIBCMTD:fpctrl.obj
 0001:00068d70       ___clrfp_sse2              10069d70 f   LIBCMTD:fpctrl.obj
 0001:00068db0       ___ctrlfp_sse2             10069db0 f   LIBCMTD:fpctrl.obj
 0001:00068e10       ___set_statfp_sse2         10069e10 f   LIBCMTD:fpctrl.obj
 0001:00068e40       _strnlen                   10069e40 f   LIBCMTD:strlen_s.obj
 0001:00068e80       __mbsnbicoll_l             10069e80 f   LIBCMTD:mbsnbico.obj
 0001:000690c0       __mbsnbicoll               1006a0c0 f   LIBCMTD:mbsnbico.obj
 0001:000690e0       ___wtomb_environ           1006a0e0 f   LIBCMTD:wtombenv.obj
 0001:000691d0       ___crtCompareStringA       1006a1d0 f   LIBCMTD:a_cmp.obj
 0001:00069790       __strnicoll_l              1006a790 f   LIBCMTD:strnicol.obj
 0001:000699e0       __strnicoll                1006a9e0 f   LIBCMTD:strnicol.obj
 0001:00069a20       ___crtsetenv               1006aa20 f   LIBCMTD:setenv.obj
 0001:0006a0a0       __mbschr_l                 1006b0a0 f   LIBCMTD:mbschr.obj
 0001:0006a230       __mbschr                   1006b230 f   LIBCMTD:mbschr.obj
 0001:0006a250       ?_Debug_message@std@@YAXPBD0@Z 1006b250 f   libcpmtd:stdthrow.obj
 0001:0006a2c0       ?_Debug_message@std@@YAXPB_W0I@Z 1006b2c0 f   libcpmtd:stdthrow.obj
 0001:0006a2f0       ?_Debug_message@std@@YAXPBG0I@Z 1006b2f0 f   libcpmtd:stdthrow.obj
 0001:0006a310       ?_Throw@std@@YAXABVexception@stdext@@@Z 1006b310 f   libcpmtd:stdthrow.obj
 0001:0006a330       ??2@YAPAXIABU_DebugHeapTag_t@std@@PADH@Z 1006b330 f   libcpmtd:xdebug.obj
 0001:0006a3b0       ??_U@YAPAXIABU_DebugHeapTag_t@std@@PADH@Z 1006b3b0 f   libcpmtd:xdebug.obj
 0001:0006a3d0       ??3@YAXPAXABU_DebugHeapTag_t@std@@PADH@Z 1006b3d0 f   libcpmtd:xdebug.obj
 0001:0006a3f0       ??_V@YAXPAXABU_DebugHeapTag_t@std@@PADH@Z 1006b3f0 f   libcpmtd:xdebug.obj
 0001:0006a410       ?_DebugHeapTag_func@std@@YAABU_DebugHeapTag_t@1@XZ 1006b410 f   libcpmtd:xdebug.obj
 0001:0006a420       ??0_Init_locks@std@@QAE@XZ 1006b420 f   libcpmtd:xlock.obj
 0001:0006a470       ??1_Init_locks@std@@QAE@XZ 1006b470 f   libcpmtd:xlock.obj
 0001:0006a4c0       ?_Init_locks_ctor@_Init_locks@std@@CAXPAV12@@Z 1006b4c0 f   libcpmtd:xlock.obj
 0001:0006a510       ?_Init_locks_dtor@_Init_locks@std@@CAXPAV12@@Z 1006b510 f   libcpmtd:xlock.obj
 0001:0006a560       ??0_Lockit@std@@QAE@XZ     1006b560 f   libcpmtd:xlock.obj
 0001:0006a590       ??0_Lockit@std@@QAE@H@Z    1006b590 f   libcpmtd:xlock.obj
 0001:0006a5d0       ??1_Lockit@std@@QAE@XZ     1006b5d0 f   libcpmtd:xlock.obj
 0001:0006a600       ?_Lockit_ctor@_Lockit@std@@CAXPAV12@@Z 1006b600 f   libcpmtd:xlock.obj
 0001:0006a620       ?_Lockit_ctor@_Lockit@std@@CAXPAV12@H@Z 1006b620 f   libcpmtd:xlock.obj
 0001:0006a650       ?_Lockit_dtor@_Lockit@std@@CAXPAV12@@Z 1006b650 f   libcpmtd:xlock.obj
 0001:0006a670       ?_Lockit_ctor@_Lockit@std@@SAXH@Z 1006b670 f   libcpmtd:xlock.obj
 0001:0006a690       ?_Lockit_dtor@_Lockit@std@@SAXH@Z 1006b690 f   libcpmtd:xlock.obj
 0001:0006a6b0       ?_Xlen@_String_base@std@@SAXXZ 1006b6b0 f   libcpmtd:string.obj
 0001:0006a730       ?_Xran@_String_base@std@@SAXXZ 1006b730 f   libcpmtd:string.obj
 0001:0006a7b0       ??0out_of_range@std@@QAE@ABV?$basic_string@DU?$char_traits@D@std@@V?$allocator@D@2@@1@@Z 1006b7b0 f i libcpmtd:string.obj
 0001:0006a7e0       ??1out_of_range@std@@UAE@XZ 1006b7e0 f i libcpmtd:string.obj
 0001:0006a800       ??_Gout_of_range@std@@UAEPAXI@Z 1006b800 f i libcpmtd:string.obj
 0001:0006a800       ??_Eout_of_range@std@@UAEPAXI@Z 1006b800 f i libcpmtd:string.obj
 0001:0006a830       ??0out_of_range@std@@QAE@ABV01@@Z 1006b830 f i libcpmtd:string.obj
 0001:0006a860       ?_Xinvarg@_String_base@std@@SAXXZ 1006b860 f   libcpmtd:string.obj
 0001:0006a8e0       ??0invalid_argument@std@@QAE@ABV?$basic_string@DU?$char_traits@D@std@@V?$allocator@D@2@@1@@Z 1006b8e0 f i libcpmtd:string.obj
 0001:0006a910       ??1invalid_argument@std@@UAE@XZ 1006b910 f i libcpmtd:string.obj
 0001:0006a930       ??_Ginvalid_argument@std@@UAEPAXI@Z 1006b930 f i libcpmtd:string.obj
 0001:0006a930       ??_Einvalid_argument@std@@UAEPAXI@Z 1006b930 f i libcpmtd:string.obj
 0001:0006a960       ??0invalid_argument@std@@QAE@ABV01@@Z 1006b960 f i libcpmtd:string.obj
 0001:0006a990       __Once                     1006b990 f   libcpmtd:xmtx.obj
 0001:0006a9f0       __Mtxinit                  1006b9f0 f   libcpmtd:xmtx.obj
 0001:0006aa00       __Mtxdst                   1006ba00 f   libcpmtd:xmtx.obj
 0001:0006aa10       __Mtxlock                  1006ba10 f   libcpmtd:xmtx.obj
 0001:0006aa20       __Mtxunlock                1006ba20 f   libcpmtd:xmtx.obj
 0001:0006aa2f       _fputs                     1006ba2f f   LIBCMT:fputs.obj
 0001:0006ab71       __fwrite_nolock            1006bb71 f   LIBCMT:fwrite.obj
 0001:0006acd0       _fwrite                    1006bcd0 f   LIBCMT:fwrite.obj
 0001:0006ad54       __SEH_prolog4              1006bd54 f   LIBCMT:sehprolg4.obj
 0001:0006ad99       __SEH_epilog4              1006bd99 f   LIBCMT:sehprolg4.obj
 0001:0006adae       _MiniDumpWriteDump@28      1006bdae f   dbghelp:dbghelp.dll
 0001:0006adb4       _EnumerateLoadedModules@12 1006bdb4 f   dbghelp:dbghelp.dll
 0001:0006adba       _StackWalk@36              1006bdba f   dbghelp:dbghelp.dll
 0001:0006adc0       _InternetCloseHandle@4     1006bdc0 f   wininet:WININET.dll
 0001:0006adc6       _HttpSendRequestA@20       1006bdc6 f   wininet:WININET.dll
 0001:0006adcc       _HttpOpenRequestA@32       1006bdcc f   wininet:WININET.dll
 0001:0006add2       _InternetConnectA@32       1006bdd2 f   wininet:WININET.dll
 0001:0006add8       _InternetOpenA@20          1006bdd8 f   wininet:WININET.dll
 0001:0006adde       _InternetReadFile@16       1006bdde f   wininet:WININET.dll
 0001:0006ade4       _InternetQueryDataAvailable@16 1006bde4 f   wininet:WININET.dll
 0001:0006adea       _HttpQueryInfoA@20         1006bdea f   wininet:WININET.dll
 0001:0006adf0       _HttpEndRequestA@16        1006bdf0 f   wininet:WININET.dll
 0001:0006adf6       _InternetWriteFile@16      1006bdf6 f   wininet:WININET.dll
 0001:0006adfc       _HttpSendRequestExA@20     1006bdfc f   wininet:WININET.dll
 0001:0006ae02       _HttpAddRequestHeadersA@16 1006be02 f   wininet:WININET.dll
 0001:0006ae08       _CheckSumMappedFile@16     1006be08 f   imagehlp:imagehlp.dll
 0001:0006ae0e       _GetModuleFileNameW@12     1006be0e f   kernel32:KERNEL32.dll
 0001:0006ae14       _WriteConsoleW@20          1006be14 f   kernel32:KERNEL32.dll
 0001:0006ae1a       _GetFileType@4             1006be1a f   kernel32:KERNEL32.dll
 0001:0006ae20       _GetStdHandle@4            1006be20 f   kernel32:KERNEL32.dll
 0001:0006ae26       _RtlUnwind@16              1006be26 f   kernel32:KERNEL32.dll
 0001:0006ae2c       _TerminateProcess@8        1006be2c f   kernel32:KERNEL32.dll
 0001:0006ae32       _UnhandledExceptionFilter@4 1006be32 f   kernel32:KERNEL32.dll
 0001:0006ae38       _IsDebuggerPresent@0       1006be38 f   kernel32:KERNEL32.dll
 0001:0006ae3e       _RaiseException@16         1006be3e f   kernel32:KERNEL32.dll
 0001:0006ae44       _HeapValidate@12           1006be44 f   kernel32:KERNEL32.dll
 0001:0006ae4a       _IsBadReadPtr@8            1006be4a f   kernel32:KERNEL32.dll
 0001:0006ae50       _GetCommandLineA@0         1006be50 f   kernel32:KERNEL32.dll
 0001:0006ae56       _HeapFree@12               1006be56 f   kernel32:KERNEL32.dll
 0001:0006ae5c       _GetVersionExA@4           1006be5c f   kernel32:KERNEL32.dll
 0001:0006ae62       _HeapAlloc@12              1006be62 f   kernel32:KERNEL32.dll
 0001:0006ae68       _GetProcessHeap@0          1006be68 f   kernel32:KERNEL32.dll
 0001:0006ae6e       _DebugBreak@0              1006be6e f   kernel32:KERNEL32.dll
 0001:0006ae74       _WideCharToMultiByte@32    1006be74 f   kernel32:KERNEL32.dll
 0001:0006ae7a       _MultiByteToWideChar@24    1006be7a f   kernel32:KERNEL32.dll
 0001:0006ae80       _lstrlenA@4                1006be80 f   kernel32:KERNEL32.dll
 0001:0006ae86       _GetProcAddress@8          1006be86 f   kernel32:KERNEL32.dll
 0001:0006ae8c       _LoadLibraryA@4            1006be8c f   kernel32:KERNEL32.dll
 0001:0006ae92       _GetSystemTimeAsFileTime@4 1006be92 f   kernel32:KERNEL32.dll
 0001:0006ae98       _InterlockedIncrement@4    1006be98 f   kernel32:KERNEL32.dll
 0001:0006ae9e       _InterlockedDecrement@4    1006be9e f   kernel32:KERNEL32.dll
 0001:0006aea4       _GetModuleHandleA@4        1006bea4 f   kernel32:KERNEL32.dll
 0001:0006aeaa       _ExitProcess@4             1006beaa f   kernel32:KERNEL32.dll
 0001:0006aeb0       _SetConsoleCtrlHandler@8   1006beb0 f   kernel32:KERNEL32.dll
 0001:0006aeb6       _LoadLibraryW@4            1006beb6 f   kernel32:KERNEL32.dll
 0001:0006aebc       _TlsGetValue@4             1006bebc f   kernel32:KERNEL32.dll
 0001:0006aec2       _TlsAlloc@0                1006bec2 f   kernel32:KERNEL32.dll
 0001:0006aec8       _TlsSetValue@8             1006bec8 f   kernel32:KERNEL32.dll
 0001:0006aece       _TlsFree@4                 1006bece f   kernel32:KERNEL32.dll
 0001:0006aed4       _SetLastError@4            1006bed4 f   kernel32:KERNEL32.dll
 0001:0006aeda       _FatalAppExitA@8           1006beda f   kernel32:KERNEL32.dll
 0001:0006aee0       _OutputDebugStringW@4      1006bee0 f   kernel32:KERNEL32.dll
 0001:0006aee6       _HeapReAlloc@16            1006bee6 f   kernel32:KERNEL32.dll
 0001:0006aeec       _HeapDestroy@4             1006beec f   kernel32:KERNEL32.dll
 0001:0006aef2       _HeapCreate@12             1006bef2 f   kernel32:KERNEL32.dll
 0001:0006aef8       _VirtualFree@12            1006bef8 f   kernel32:KERNEL32.dll
 0001:0006aefe       _VirtualAlloc@16           1006befe f   kernel32:KERNEL32.dll
 0001:0006af04       _GetACP@0                  1006bf04 f   kernel32:KERNEL32.dll
 0001:0006af0a       _GetOEMCP@0                1006bf0a f   kernel32:KERNEL32.dll
 0001:0006af10       _GetCPInfo@8               1006bf10 f   kernel32:KERNEL32.dll
 0001:0006af16       _IsValidCodePage@4         1006bf16 f   kernel32:KERNEL32.dll
 0001:0006af1c       _SetHandleCount@4          1006bf1c f   kernel32:KERNEL32.dll
 0001:0006af22       _GetStartupInfoA@4         1006bf22 f   kernel32:KERNEL32.dll
 0001:0006af28       _FreeEnvironmentStringsA@4 1006bf28 f   kernel32:KERNEL32.dll
 0001:0006af2e       _GetEnvironmentStrings@0   1006bf2e f   kernel32:KERNEL32.dll
 0001:0006af34       _FreeEnvironmentStringsW@4 1006bf34 f   kernel32:KERNEL32.dll
 0001:0006af3a       _GetEnvironmentStringsW@0  1006bf3a f   kernel32:KERNEL32.dll
 0001:0006af40       _QueryPerformanceCounter@4 1006bf40 f   kernel32:KERNEL32.dll
 0001:0006af46       _VirtualQuery@12           1006bf46 f   kernel32:KERNEL32.dll
 0001:0006af4c       _FreeLibrary@4             1006bf4c f   kernel32:KERNEL32.dll
 0001:0006af52       _InterlockedExchange@8     1006bf52 f   kernel32:KERNEL32.dll
 0001:0006af58       _FlushFileBuffers@4        1006bf58 f   kernel32:KERNEL32.dll
 0001:0006af5e       _GetConsoleCP@0            1006bf5e f   kernel32:KERNEL32.dll
 0001:0006af64       _GetConsoleMode@8          1006bf64 f   kernel32:KERNEL32.dll
 0001:0006af6a       _SetFilePointer@16         1006bf6a f   kernel32:KERNEL32.dll
 0001:0006af70       _LCMapStringA@24           1006bf70 f   kernel32:KERNEL32.dll
 0001:0006af76       _LCMapStringW@24           1006bf76 f   kernel32:KERNEL32.dll
 0001:0006af7c       _GetStringTypeA@20         1006bf7c f   kernel32:KERNEL32.dll
 0001:0006af82       _GetStringTypeW@16         1006bf82 f   kernel32:KERNEL32.dll
 0001:0006af88       _GetTimeFormatA@24         1006bf88 f   kernel32:KERNEL32.dll
 0001:0006af8e       _GetDateFormatA@24         1006bf8e f   kernel32:KERNEL32.dll
 0001:0006af94       _GetLocaleInfoA@16         1006bf94 f   kernel32:KERNEL32.dll
 0001:0006af9a       _IsValidLocale@8           1006bf9a f   kernel32:KERNEL32.dll
 0001:0006afa0       _EnumSystemLocalesA@8      1006bfa0 f   kernel32:KERNEL32.dll
 0001:0006afa6       _GetUserDefaultLCID@0      1006bfa6 f   kernel32:KERNEL32.dll
 0001:0006afac       _GetLocaleInfoW@16         1006bfac f   kernel32:KERNEL32.dll
 0001:0006afb2       _SetStdHandle@8            1006bfb2 f   kernel32:KERNEL32.dll
 0001:0006afb8       _WriteConsoleA@20          1006bfb8 f   kernel32:KERNEL32.dll
 0001:0006afbe       _GetConsoleOutputCP@0      1006bfbe f   kernel32:KERNEL32.dll
 0001:0006afc4       _GetTimeZoneInformation@4  1006bfc4 f   kernel32:KERNEL32.dll
 0001:0006afca       _CompareStringA@24         1006bfca f   kernel32:KERNEL32.dll
 0001:0006afd0       _CompareStringW@24         1006bfd0 f   kernel32:KERNEL32.dll
 0001:0006afd6       _SetEnvironmentVariableA@8 1006bfd6 f   kernel32:KERNEL32.dll
 0002:00000000       __imp__GetSystemDirectoryA@8 1006e000     kernel32:KERNEL32.dll
 0002:00000004       __imp__IsBadStringPtrA@8   1006e004     kernel32:KERNEL32.dll
 0002:00000008       __imp__FileTimeToSystemTime@8 1006e008     kernel32:KERNEL32.dll
 0002:0000000c       __imp__GetFileAttributesExA@12 1006e00c     kernel32:KERNEL32.dll
 0002:00000010       __imp__GetModuleFileNameA@12 1006e010     kernel32:KERNEL32.dll
 0002:00000014       __imp__Sleep@4             1006e014     kernel32:KERNEL32.dll
 0002:00000018       __imp__GetTickCount@0      1006e018     kernel32:KERNEL32.dll
 0002:0000001c       __imp__DeleteFileA@4       1006e01c     kernel32:KERNEL32.dll
 0002:00000020       __imp__CloseHandle@4       1006e020     kernel32:KERNEL32.dll
 0002:00000024       __imp__ReadFile@20         1006e024     kernel32:KERNEL32.dll
 0002:00000028       __imp__CreateFileA@28      1006e028     kernel32:KERNEL32.dll
 0002:0000002c       __imp__SetUnhandledExceptionFilter@4 1006e02c     kernel32:KERNEL32.dll
 0002:00000030       __imp__OutputDebugStringA@4 1006e030     kernel32:KERNEL32.dll
 0002:00000034       __imp__GetCurrentProcess@0 1006e034     kernel32:KERNEL32.dll
 0002:00000038       __imp__GetCurrentProcessId@0 1006e038     kernel32:KERNEL32.dll
 0002:0000003c       __imp__GetCurrentThreadId@0 1006e03c     kernel32:KERNEL32.dll
 0002:00000040       __imp__WriteFile@20        1006e040     kernel32:KERNEL32.dll
 0002:00000044       __imp__GetCurrentThread@0  1006e044     kernel32:KERNEL32.dll
 0002:00000048       __imp__GetLastError@0      1006e048     kernel32:KERNEL32.dll
 0002:0000004c       __imp__SetThreadPriority@8 1006e04c     kernel32:KERNEL32.dll
 0002:00000050       __imp__CreateThread@24     1006e050     kernel32:KERNEL32.dll
 0002:00000054       __imp__Module32First@8     1006e054     kernel32:KERNEL32.dll
 0002:00000058       __imp__CreateToolhelp32Snapshot@8 1006e058     kernel32:KERNEL32.dll
 0002:0000005c       __imp__Module32Next@8      1006e05c     kernel32:KERNEL32.dll
 0002:00000060       __imp__GetFileSize@8       1006e060     kernel32:KERNEL32.dll
 0002:00000064       __imp__DeleteCriticalSection@4 1006e064     kernel32:KERNEL32.dll
 0002:00000068       __imp__InitializeCriticalSection@4 1006e068     kernel32:KERNEL32.dll
 0002:0000006c       __imp__EnterCriticalSection@4 1006e06c     kernel32:KERNEL32.dll
 0002:00000070       __imp__TryEnterCriticalSection@4 1006e070     kernel32:KERNEL32.dll
 0002:00000074       __imp__LeaveCriticalSection@4 1006e074     kernel32:KERNEL32.dll
 0002:00000078       __imp__InitializeCriticalSectionAndSpinCount@8 1006e078     kernel32:KERNEL32.dll
 0002:0000007c       __imp__CompareStringW@24   1006e07c     kernel32:KERNEL32.dll
 0002:00000080       __imp__CompareStringA@24   1006e080     kernel32:KERNEL32.dll
 0002:00000084       __imp__GetTimeZoneInformation@4 1006e084     kernel32:KERNEL32.dll
 0002:00000088       __imp__GetConsoleOutputCP@0 1006e088     kernel32:KERNEL32.dll
 0002:0000008c       __imp__WriteConsoleA@20    1006e08c     kernel32:KERNEL32.dll
 0002:00000090       __imp__SetStdHandle@8      1006e090     kernel32:KERNEL32.dll
 0002:00000094       __imp__GetLocaleInfoW@16   1006e094     kernel32:KERNEL32.dll
 0002:00000098       __imp__GetUserDefaultLCID@0 1006e098     kernel32:KERNEL32.dll
 0002:0000009c       __imp__EnumSystemLocalesA@8 1006e09c     kernel32:KERNEL32.dll
 0002:000000a0       __imp__IsValidLocale@8     1006e0a0     kernel32:KERNEL32.dll
 0002:000000a4       __imp__GetLocaleInfoA@16   1006e0a4     kernel32:KERNEL32.dll
 0002:000000a8       __imp__GetDateFormatA@24   1006e0a8     kernel32:KERNEL32.dll
 0002:000000ac       __imp__GetTimeFormatA@24   1006e0ac     kernel32:KERNEL32.dll
 0002:000000b0       __imp__GetStringTypeW@16   1006e0b0     kernel32:KERNEL32.dll
 0002:000000b4       __imp__GetStringTypeA@20   1006e0b4     kernel32:KERNEL32.dll
 0002:000000b8       __imp__LCMapStringW@24     1006e0b8     kernel32:KERNEL32.dll
 0002:000000bc       __imp__LCMapStringA@24     1006e0bc     kernel32:KERNEL32.dll
 0002:000000c0       __imp__SetFilePointer@16   1006e0c0     kernel32:KERNEL32.dll
 0002:000000c4       __imp__GetConsoleMode@8    1006e0c4     kernel32:KERNEL32.dll
 0002:000000c8       __imp__GetConsoleCP@0      1006e0c8     kernel32:KERNEL32.dll
 0002:000000cc       __imp__FlushFileBuffers@4  1006e0cc     kernel32:KERNEL32.dll
 0002:000000d0       __imp__InterlockedExchange@8 1006e0d0     kernel32:KERNEL32.dll
 0002:000000d4       __imp__GetModuleFileNameW@12 1006e0d4     kernel32:KERNEL32.dll
 0002:000000d8       __imp__WriteConsoleW@20    1006e0d8     kernel32:KERNEL32.dll
 0002:000000dc       __imp__GetFileType@4       1006e0dc     kernel32:KERNEL32.dll
 0002:000000e0       __imp__GetStdHandle@4      1006e0e0     kernel32:KERNEL32.dll
 0002:000000e4       __imp__RtlUnwind@16        1006e0e4     kernel32:KERNEL32.dll
 0002:000000e8       __imp__TerminateProcess@8  1006e0e8     kernel32:KERNEL32.dll
 0002:000000ec       __imp__UnhandledExceptionFilter@4 1006e0ec     kernel32:KERNEL32.dll
 0002:000000f0       __imp__IsDebuggerPresent@0 1006e0f0     kernel32:KERNEL32.dll
 0002:000000f4       __imp__RaiseException@16   1006e0f4     kernel32:KERNEL32.dll
 0002:000000f8       __imp__HeapValidate@12     1006e0f8     kernel32:KERNEL32.dll
 0002:000000fc       __imp__IsBadReadPtr@8      1006e0fc     kernel32:KERNEL32.dll
 0002:00000100       __imp__GetCommandLineA@0   1006e100     kernel32:KERNEL32.dll
 0002:00000104       __imp__HeapFree@12         1006e104     kernel32:KERNEL32.dll
 0002:00000108       __imp__GetVersionExA@4     1006e108     kernel32:KERNEL32.dll
 0002:0000010c       __imp__HeapAlloc@12        1006e10c     kernel32:KERNEL32.dll
 0002:00000110       __imp__GetProcessHeap@0    1006e110     kernel32:KERNEL32.dll
 0002:00000114       __imp__DebugBreak@0        1006e114     kernel32:KERNEL32.dll
 0002:00000118       __imp__WideCharToMultiByte@32 1006e118     kernel32:KERNEL32.dll
 0002:0000011c       __imp__MultiByteToWideChar@24 1006e11c     kernel32:KERNEL32.dll
 0002:00000120       __imp__lstrlenA@4          1006e120     kernel32:KERNEL32.dll
 0002:00000124       __imp__GetProcAddress@8    1006e124     kernel32:KERNEL32.dll
 0002:00000128       __imp__LoadLibraryA@4      1006e128     kernel32:KERNEL32.dll
 0002:0000012c       __imp__GetSystemTimeAsFileTime@4 1006e12c     kernel32:KERNEL32.dll
 0002:00000130       __imp__InterlockedIncrement@4 1006e130     kernel32:KERNEL32.dll
 0002:00000134       __imp__InterlockedDecrement@4 1006e134     kernel32:KERNEL32.dll
 0002:00000138       __imp__GetModuleHandleA@4  1006e138     kernel32:KERNEL32.dll
 0002:0000013c       __imp__ExitProcess@4       1006e13c     kernel32:KERNEL32.dll
 0002:00000140       __imp__SetConsoleCtrlHandler@8 1006e140     kernel32:KERNEL32.dll
 0002:00000144       __imp__LoadLibraryW@4      1006e144     kernel32:KERNEL32.dll
 0002:00000148       __imp__TlsGetValue@4       1006e148     kernel32:KERNEL32.dll
 0002:0000014c       __imp__TlsAlloc@0          1006e14c     kernel32:KERNEL32.dll
 0002:00000150       __imp__TlsSetValue@8       1006e150     kernel32:KERNEL32.dll
 0002:00000154       __imp__TlsFree@4           1006e154     kernel32:KERNEL32.dll
 0002:00000158       __imp__SetLastError@4      1006e158     kernel32:KERNEL32.dll
 0002:0000015c       __imp__FatalAppExitA@8     1006e15c     kernel32:KERNEL32.dll
 0002:00000160       __imp__OutputDebugStringW@4 1006e160     kernel32:KERNEL32.dll
 0002:00000164       __imp__HeapReAlloc@16      1006e164     kernel32:KERNEL32.dll
 0002:00000168       __imp__HeapDestroy@4       1006e168     kernel32:KERNEL32.dll
 0002:0000016c       __imp__HeapCreate@12       1006e16c     kernel32:KERNEL32.dll
 0002:00000170       __imp__VirtualFree@12      1006e170     kernel32:KERNEL32.dll
 0002:00000174       __imp__VirtualAlloc@16     1006e174     kernel32:KERNEL32.dll
 0002:00000178       __imp__GetACP@0            1006e178     kernel32:KERNEL32.dll
 0002:0000017c       __imp__GetOEMCP@0          1006e17c     kernel32:KERNEL32.dll
 0002:00000180       __imp__GetCPInfo@8         1006e180     kernel32:KERNEL32.dll
 0002:00000184       __imp__IsValidCodePage@4   1006e184     kernel32:KERNEL32.dll
 0002:00000188       __imp__SetHandleCount@4    1006e188     kernel32:KERNEL32.dll
 0002:0000018c       __imp__GetStartupInfoA@4   1006e18c     kernel32:KERNEL32.dll
 0002:00000190       __imp__FreeEnvironmentStringsA@4 1006e190     kernel32:KERNEL32.dll
 0002:00000194       __imp__GetEnvironmentStrings@0 1006e194     kernel32:KERNEL32.dll
 0002:00000198       __imp__FreeEnvironmentStringsW@4 1006e198     kernel32:KERNEL32.dll
 0002:0000019c       __imp__GetEnvironmentStringsW@0 1006e19c     kernel32:KERNEL32.dll
 0002:000001a0       __imp__QueryPerformanceCounter@4 1006e1a0     kernel32:KERNEL32.dll
 0002:000001a4       __imp__VirtualQuery@12     1006e1a4     kernel32:KERNEL32.dll
 0002:000001a8       __imp__FreeLibrary@4       1006e1a8     kernel32:KERNEL32.dll
 0002:000001ac       __imp__SetEnvironmentVariableA@8 1006e1ac     kernel32:KERNEL32.dll
 0002:000001b0       \177KERNEL32_NULL_THUNK_DATA 1006e1b0     kernel32:KERNEL32.dll
 0002:000001b4       __imp__MessageBoxA@16      1006e1b4     user32:USER32.dll
 0002:000001b8       __imp__LoadStringA@16      1006e1b8     user32:USER32.dll
 0002:000001bc       \177USER32_NULL_THUNK_DATA 1006e1bc     user32:USER32.dll
 0002:000001c0       __imp__HttpSendRequestExA@20 1006e1c0     wininet:WININET.dll
 0002:000001c4       __imp__InternetWriteFile@16 1006e1c4     wininet:WININET.dll
 0002:000001c8       __imp__HttpEndRequestA@16  1006e1c8     wininet:WININET.dll
 0002:000001cc       __imp__HttpQueryInfoA@20   1006e1cc     wininet:WININET.dll
 0002:000001d0       __imp__HttpAddRequestHeadersA@16 1006e1d0     wininet:WININET.dll
 0002:000001d4       __imp__InternetReadFile@16 1006e1d4     wininet:WININET.dll
 0002:000001d8       __imp__InternetOpenA@20    1006e1d8     wininet:WININET.dll
 0002:000001dc       __imp__InternetConnectA@32 1006e1dc     wininet:WININET.dll
 0002:000001e0       __imp__HttpOpenRequestA@32 1006e1e0     wininet:WININET.dll
 0002:000001e4       __imp__HttpSendRequestA@20 1006e1e4     wininet:WININET.dll
 0002:000001e8       __imp__InternetCloseHandle@4 1006e1e8     wininet:WININET.dll
 0002:000001ec       __imp__InternetQueryDataAvailable@16 1006e1ec     wininet:WININET.dll
 0002:000001f0       \177WININET_NULL_THUNK_DATA 1006e1f0     wininet:WININET.dll
 0002:000001f4       __imp__MiniDumpWriteDump@28 1006e1f4     dbghelp:dbghelp.dll
 0002:000001f8       __imp__StackWalk@36        1006e1f8     dbghelp:dbghelp.dll
 0002:000001fc       __imp__EnumerateLoadedModules@12 1006e1fc     dbghelp:dbghelp.dll
 0002:00000200       \177dbghelp_NULL_THUNK_DATA 1006e200     dbghelp:dbghelp.dll
 0002:00000204       __imp__CheckSumMappedFile@16 1006e204     imagehlp:imagehlp.dll
 0002:00000208       \177imagehlp_NULL_THUNK_DATA 1006e208     imagehlp:imagehlp.dll
 0002:0000020c       ___xc_a                    1006e20c     LIBCMTD:crt0init.obj
 0002:00000240       ___xc_z                    1006e240     LIBCMTD:crt0init.obj
 0002:00000244       ___xi_a                    1006e244     LIBCMTD:crt0init.obj
 0002:0000025c       ___xi_z                    1006e25c     LIBCMTD:crt0init.obj
 0002:00000260       ___xp_a                    1006e260     LIBCMTD:crt0init.obj
 0002:00000270       ___xp_z                    1006e270     LIBCMTD:crt0init.obj
 0002:00000274       ___xt_a                    1006e274     LIBCMTD:crt0init.obj
 0002:00000278       ___xt_z                    1006e278     LIBCMTD:crt0init.obj
 0002:0000029c       ??_C@_0P@GHFPNOJB@bad?5allocation?$AA@ 1006e29c     HanReportForClientImpl.obj
 0002:000002ac       ?collate@?$_Locbase@H@std@@2HB 1006e2ac     HanReportForClientImpl.obj
 0002:000002b0       ?ctype@?$_Locbase@H@std@@2HB 1006e2b0     HanReportForClientImpl.obj
 0002:000002b4       ?monetary@?$_Locbase@H@std@@2HB 1006e2b4     HanReportForClientImpl.obj
 0002:000002b8       ?numeric@?$_Locbase@H@std@@2HB 1006e2b8     HanReportForClientImpl.obj
 0002:000002bc       ?time@?$_Locbase@H@std@@2HB 1006e2bc     HanReportForClientImpl.obj
 0002:000002c0       ?messages@?$_Locbase@H@std@@2HB 1006e2c0     HanReportForClientImpl.obj
 0002:000002c4       ?all@?$_Locbase@H@std@@2HB 1006e2c4     HanReportForClientImpl.obj
 0002:000002c8       ?none@?$_Locbase@H@std@@2HB 1006e2c8     HanReportForClientImpl.obj
 0002:000002cc       ?table_size@?$ctype@D@std@@2IB 1006e2cc     HanReportForClientImpl.obj
 0002:000002d0       ?skipws@?$_Iosb@H@std@@2W4_Fmtflags@12@B 1006e2d0     HanReportForClientImpl.obj
 0002:000002d4       ?unitbuf@?$_Iosb@H@std@@2W4_Fmtflags@12@B 1006e2d4     HanReportForClientImpl.obj
 0002:000002d8       ?uppercase@?$_Iosb@H@std@@2W4_Fmtflags@12@B 1006e2d8     HanReportForClientImpl.obj
 0002:000002dc       ?showbase@?$_Iosb@H@std@@2W4_Fmtflags@12@B 1006e2dc     HanReportForClientImpl.obj
 0002:000002e0       ?showpoint@?$_Iosb@H@std@@2W4_Fmtflags@12@B 1006e2e0     HanReportForClientImpl.obj
 0002:000002e4       ?showpos@?$_Iosb@H@std@@2W4_Fmtflags@12@B 1006e2e4     HanReportForClientImpl.obj
 0002:000002e8       ?left@?$_Iosb@H@std@@2W4_Fmtflags@12@B 1006e2e8     HanReportForClientImpl.obj
 0002:000002ec       ?right@?$_Iosb@H@std@@2W4_Fmtflags@12@B 1006e2ec     HanReportForClientImpl.obj
 0002:000002f0       ?internal@?$_Iosb@H@std@@2W4_Fmtflags@12@B 1006e2f0     HanReportForClientImpl.obj
 0002:000002f4       ?dec@?$_Iosb@H@std@@2W4_Fmtflags@12@B 1006e2f4     HanReportForClientImpl.obj
 0002:000002f8       ?oct@?$_Iosb@H@std@@2W4_Fmtflags@12@B 1006e2f8     HanReportForClientImpl.obj
 0002:000002fc       ?hex@?$_Iosb@H@std@@2W4_Fmtflags@12@B 1006e2fc     HanReportForClientImpl.obj
 0002:00000300       ?scientific@?$_Iosb@H@std@@2W4_Fmtflags@12@B 1006e300     HanReportForClientImpl.obj
 0002:00000304       ?fixed@?$_Iosb@H@std@@2W4_Fmtflags@12@B 1006e304     HanReportForClientImpl.obj
 0002:00000308       ?boolalpha@?$_Iosb@H@std@@2W4_Fmtflags@12@B 1006e308     HanReportForClientImpl.obj
 0002:0000030c       ?_Stdio@?$_Iosb@H@std@@2W4_Fmtflags@12@B 1006e30c     HanReportForClientImpl.obj
 0002:00000310       ?adjustfield@?$_Iosb@H@std@@2W4_Fmtflags@12@B 1006e310     HanReportForClientImpl.obj
 0002:00000314       ?basefield@?$_Iosb@H@std@@2W4_Fmtflags@12@B 1006e314     HanReportForClientImpl.obj
 0002:00000318       ?floatfield@?$_Iosb@H@std@@2W4_Fmtflags@12@B 1006e318     HanReportForClientImpl.obj
 0002:0000031c       ?goodbit@?$_Iosb@H@std@@2W4_Iostate@12@B 1006e31c     HanReportForClientImpl.obj
 0002:00000320       ?eofbit@?$_Iosb@H@std@@2W4_Iostate@12@B 1006e320     HanReportForClientImpl.obj
 0002:00000324       ?failbit@?$_Iosb@H@std@@2W4_Iostate@12@B 1006e324     HanReportForClientImpl.obj
 0002:00000328       ?badbit@?$_Iosb@H@std@@2W4_Iostate@12@B 1006e328     HanReportForClientImpl.obj
 0002:0000032c       ?_Hardfail@?$_Iosb@H@std@@2W4_Iostate@12@B 1006e32c     HanReportForClientImpl.obj
 0002:00000330       ?in@?$_Iosb@H@std@@2W4_Openmode@12@B 1006e330     HanReportForClientImpl.obj
 0002:00000334       ?out@?$_Iosb@H@std@@2W4_Openmode@12@B 1006e334     HanReportForClientImpl.obj
 0002:00000338       ?ate@?$_Iosb@H@std@@2W4_Openmode@12@B 1006e338     HanReportForClientImpl.obj
 0002:0000033c       ?app@?$_Iosb@H@std@@2W4_Openmode@12@B 1006e33c     HanReportForClientImpl.obj
 0002:00000340       ?trunc@?$_Iosb@H@std@@2W4_Openmode@12@B 1006e340     HanReportForClientImpl.obj
 0002:00000344       ?_Nocreate@?$_Iosb@H@std@@2W4_Openmode@12@B 1006e344     HanReportForClientImpl.obj
 0002:00000348       ?_Noreplace@?$_Iosb@H@std@@2W4_Openmode@12@B 1006e348     HanReportForClientImpl.obj
 0002:0000034c       ?binary@?$_Iosb@H@std@@2W4_Openmode@12@B 1006e34c     HanReportForClientImpl.obj
 0002:00000350       ?beg@?$_Iosb@H@std@@2W4_Seekdir@12@B 1006e350     HanReportForClientImpl.obj
 0002:00000354       ?cur@?$_Iosb@H@std@@2W4_Seekdir@12@B 1006e354     HanReportForClientImpl.obj
 0002:00000358       ?end@?$_Iosb@H@std@@2W4_Seekdir@12@B 1006e358     HanReportForClientImpl.obj
 0002:0000035c       ??_C@_0BB@LGIOBHKN@Error?5Log?5System?$AA@ 1006e35c     HanReportForClientImpl.obj
 0002:00000370       ??_C@_1CK@MJAJIKLE@?$AAs?$AAz?$AAG?$AAa?$AAm?$AAe?$AAS?$AAt?$AAr?$AAi?$AAn?$AAg?$AA?5?$AA?$CB?$AA?$DN?$AA?5?$AAN?$AAU?$AAL?$AAL?$AA?$AA@ 1006e370     HanReportForClientImpl.obj
 0002:000003a0       ??_C@_1NO@EIJKMNDC@?$AAd?$AA?3?$AA?2?$AAm?$AAy?$AA?5?$AAd?$AAo?$AAc?$AAu?$AAm?$AAe?$AAn?$AAt?$AAs?$AA?2?$AAn?$AAh?$AAn?$AA?2?$AAs?$AAo?$AAu?$AAr?$AAc?$AAe?$AA?2?$AAp?$AAu?$AAb?$AAl?$AAi@ 1006e3a0     HanReportForClientImpl.obj
 0002:00000480       ??_C@_0L@CGGFMKFF@?2wbers?4dat?$AA@ 1006e480     HanReportForClientImpl.obj
 0002:0000048c       ??_C@_0N@EJBJFCDN@lb_exception?$AA@ 1006e48c     HanReportForClientImpl.obj
 0002:0000049c       ??_C@_0BE@GLGKAN@beta?9wbers?4ijji?4com?$AA@ 1006e49c     HanReportForClientImpl.obj
 0002:000004b0       ??_C@_0BH@IEJKCBIE@stabidx?9dev?4nhncorp?4cn?$AA@ 1006e4b0     HanReportForClientImpl.obj
 0002:000004c8       ??_C@_0BN@JMFAJBLB@alpha?9pubwbers?4hangame?4co?4jp?$AA@ 1006e4c8     HanReportForClientImpl.obj
 0002:000004e8       ??_C@_0BF@LECDAHHJ@alpha?9wbers?4ijji?4com?$AA@ 1006e4e8     HanReportForClientImpl.obj
 0002:00000500       ??_C@_0BB@DGCFNKMA@stabIdxPost?4nhn?$DP?$AA@ 1006e500     HanReportForClientImpl.obj
 0002:00000514       ??_C@_0BD@PPFEAMNJ@stabidx?4nhncorp?4cn?$AA@ 1006e514     HanReportForClientImpl.obj
 0002:00000528       ??_C@_0BH@ECCCKDEE@pubwbers?4hangame?4co?4jp?$AA@ 1006e528     HanReportForClientImpl.obj
 0002:00000540       ??_C@_0BB@PLNCAAEC@?1wbers?1post?4php?$DP?$AA@ 1006e540     HanReportForClientImpl.obj
 0002:00000554       ??_C@_0P@EAFHIFFH@wbers?4ijji?4com?$AA@ 1006e554     HanReportForClientImpl.obj
 0002:00000564       ??_C@_0L@PILOIFKN@?1post?4php?$DP?$AA@ 1006e564     HanReportForClientImpl.obj
 0002:00000570       ??_C@_0BG@GHPOOFBK@wbersbeta?4hangame?4com?$AA@ 1006e570     HanReportForClientImpl.obj
 0002:00000588       ??_C@_09JKECPFEC@lb_poslog?$AA@ 1006e588     HanReportForClientImpl.obj
 0002:00000594       ??_C@_1CC@GHGIEOMP@?$AAs?$AAz?$AAG?$AAa?$AAm?$AAe?$AAI?$AAd?$AA?5?$AA?$CB?$AA?$DN?$AA?5?$AAN?$AAU?$AAL?$AAL?$AA?$AA@ 1006e594     HanReportForClientImpl.obj
 0002:000005b8       ??_C@_01HNPIGOCE@?$CG?$AA@ 1006e5b8     HanReportForClientImpl.obj
 0002:000005bc       ??_C@_01NEMOKFLO@?$DN?$AA@ 1006e5bc     HanReportForClientImpl.obj
 0002:000005c0       ??_C@_1CO@KAAKLGBP@?$AAs?$AAz?$AAR?$AAe?$AAp?$AAo?$AAr?$AAt?$AAS?$AAt?$AAr?$AAi?$AAn?$AAg?$AA?5?$AA?$CB?$AA?$DN?$AA?5?$AAN?$AAU?$AAL?$AAL?$AA?$AA@ 1006e5c0     HanReportForClientImpl.obj
 0002:000005f0       ??_C@_1CE@NMCFNEAD@?$AAs?$AAz?$AAS?$AAu?$AAb?$AAj?$AAe?$AAc?$AAt?$AA?5?$AA?$CB?$AA?$DN?$AA?5?$AAN?$AAU?$AAL?$AAL?$AA?$AA@ 1006e5f0     HanReportForClientImpl.obj
 0002:00000614       ??_C@_07NIFLOGLL@id?$DN?$CFs?$CFs?$AA@ 1006e614     HanReportForClientImpl.obj
 0002:0000061c       ??_C@_03LNKDLDCI@id?$DN?$AA@ 1006e61c     HanReportForClientImpl.obj
 0002:00000620       ??_C@_05MFEJDJP@value?$AA@ 1006e620     HanReportForClientImpl.obj
 0002:00000628       ??_C@_09JBLACCIE@eventcode?$AA@ 1006e628     HanReportForClientImpl.obj
 0002:00000634       ??_C@_02EGCJHIOB@id?$AA@   1006e634     HanReportForClientImpl.obj
 0002:00000638       ??_C@_06IHAGGOEE@userid?$AA@ 1006e638     HanReportForClientImpl.obj
 0002:00000640       ??_C@_0L@NBMLJOAJ@?$CGvalue?$DN230?$AA@ 1006e640     HanReportForClientImpl.obj
 0002:0000064c       ??_C@_1CE@OAACCICA@?$AAp?$AAN?$AAa?$AAt?$AAi?$AAo?$AAn?$AAC?$AAo?$AAd?$AAe?$AA?$CB?$AA?$DN?$AAN?$AAU?$AAL?$AAL?$AA?$AA@ 1006e64c     HanReportForClientImpl.obj
 0002:00000670       ??_C@_1CG@MNCJNGOJ@?$AAs?$AAz?$AAG?$AAa?$AAm?$AAe?$AAS?$AAt?$AAr?$AAi?$AAn?$AAg?$AA?$CB?$AA?$DN?$AAN?$AAU?$AAL?$AAL?$AA?$AA@ 1006e670     HanReportForClientImpl.obj
 0002:00000698       ??_C@_1CO@PDMLJNCH@?$AAp?$AAS?$AAe?$AAr?$AAv?$AAi?$AAc?$AAe?$AAT?$AAy?$AAp?$AAe?$AAC?$AAo?$AAd?$AAe?$AA?$CB?$AA?$DN?$AAN?$AAU?$AAL?$AAL?$AA?$AA@ 1006e698     HanReportForClientImpl.obj
 0002:000006c8       ??_C@_1CA@NFBLFBBD@?$AAp?$AAS?$AAi?$AAt?$AAe?$AAC?$AAo?$AAd?$AAe?$AA?$CB?$AA?$DN?$AAN?$AAU?$AAL?$AAL?$AA?$AA@ 1006e6c8     HanReportForClientImpl.obj
 0002:000006e8       ??_C@_04NOJCDH@?$CF02x?$AA@ 1006e6e8     HanReportForClientImpl.obj
 0002:000006f0       ?npos@?$basic_string@DU?$char_traits@D@std@@V?$allocator@D@2@@std@@2IB 1006e6f0     HanReportForClientImpl.obj
 0002:000006f4       ??_C@_1BO@MEPPHOO@?$AA?$CC?$AAo?$AAu?$AAt?$AA?5?$AAo?$AAf?$AA?5?$AAr?$AAa?$AAn?$AAg?$AAe?$AA?$CC?$AA?$AA@ 1006e6f4     HanReportForClientImpl.obj
 0002:00000718       ??_C@_1LO@NPPEKPAI@?$AAs?$AAt?$AAd?$AA?3?$AA?3?$AAb?$AAa?$AAs?$AAi?$AAc?$AA_?$AAs?$AAt?$AAr?$AAi?$AAn?$AAg?$AA?$DM?$AAc?$AAh?$AAa?$AAr?$AA?0?$AAs?$AAt?$AAr?$AAu?$AAc?$AAt?$AA?5?$AAs?$AAt@ 1006e718     HanReportForClientImpl.obj
 0002:000007d8       ??_C@_1FG@CMLDHNON@?$AA?$CI?$AA?$CC?$AAS?$AAt?$AAa?$AAn?$AAd?$AAa?$AAr?$AAd?$AA?5?$AAC?$AA?$CL?$AA?$CL?$AA?5?$AAL?$AAi?$AAb?$AAr?$AAa?$AAr?$AAi?$AAe?$AAs?$AA?5?$AAO?$AAu?$AAt?$AA?5?$AAo?$AAf?$AA?5@ 1006e7d8     HanReportForClientImpl.obj
 0002:00000830       ??_C@_1DM@GMPLOCPK@?$AAs?$AAt?$AAr?$AAi?$AAn?$AAg?$AA?5?$AAs?$AAu?$AAb?$AAs?$AAc?$AAr?$AAi?$AAp?$AAt?$AA?5?$AAo?$AAu?$AAt?$AA?5?$AAo?$AAf?$AA?5?$AAr?$AAa?$AAn?$AAg?$AAe?$AA?$AA@ 1006e830     HanReportForClientImpl.obj
 0002:00000870       ??_C@_1HM@LNGKEPMM@?$AAc?$AA?3?$AA?2?$AAp?$AAr?$AAo?$AAg?$AAr?$AAa?$AAm?$AA?5?$AAf?$AAi?$AAl?$AAe?$AAs?$AA?2?$AAm?$AAi?$AAc?$AAr?$AAo?$AAs?$AAo?$AAf?$AAt?$AA?5?$AAv?$AAi?$AAs?$AAu?$AAa@ 1006e870     HanReportForClientImpl.obj
 0002:000008ec       ??_C@_0DN@FNDCFGEL@c?3?2program?5files?2microsoft?5visua@ 1006e8ec     HanReportForClientImpl.obj
 0002:00000930       ??_7bad_alloc@std@@6B@     1006e930     HanReportForClientImpl.obj
 0002:00000938       ??_C@_1CK@EOPGIILJ@?$AAi?$AAn?$AAv?$AAa?$AAl?$AAi?$AAd?$AA?5?$AAn?$AAu?$AAl?$AAl?$AA?5?$AAp?$AAo?$AAi?$AAn?$AAt?$AAe?$AAr?$AA?$AA@ 1006e938     HanReportForClientImpl.obj
 0002:000009b0       ??_7CMD5@@6B@              1006e9b0     MD5.obj
 0002:000009b4       ??_C@_09OPCJMEJI@10F00EAAC?$AA@ 1006e9b4     MetpParserD:MetpParser.obj
 0002:000009c4       ??_7CMetpParser@hgx@@6B@   1006e9c4     MetpParserD:MetpParser.obj
 0002:000009cc       ??_C@_1BO@BHDECDCD@?$AAm?$AA_?$AAp?$AAs?$AAz?$AAI?$AAP?$AAA?$AAd?$AAd?$AAr?$AAe?$AAs?$AAs?$AA?$AA@ 1006e9cc     MetpParserD:MetpParser.obj
 0002:000009ec       ??_C@_1BI@NPGGKNPD@?$AAm?$AA_?$AAp?$AAs?$AAz?$AAT?$AAa?$AAr?$AAg?$AAe?$AAt?$AA?$AA@ 1006e9ec     MetpParserD:MetpParser.obj
 0002:00000a04       ??_C@_1BK@POELAPKI@?$AAm?$AA_?$AAp?$AAs?$AAz?$AAS?$AAe?$AAr?$AAv?$AAi?$AAc?$AAe?$AA?$AA@ 1006ea04     MetpParserD:MetpParser.obj
 0002:00000a20       ??_C@_1MG@MNGNMDML@?$AAd?$AA?3?$AA?2?$AAm?$AAy?$AA?5?$AAd?$AAo?$AAc?$AAu?$AAm?$AAe?$AAn?$AAt?$AAs?$AA?2?$AAn?$AAh?$AAn?$AA?2?$AAs?$AAo?$AAu?$AAr?$AAc?$AAe?$AA?2?$AAp?$AAu?$AAb?$AAl?$AAi@ 1006ea20     MetpParserD:MetpParser.obj
 0002:00000ae8       ??_C@_1DC@POOIKBAO@?$AAI?$AAT?$AAE?$AAR?$AAA?$AAT?$AAO?$AAR?$AA?5?$AAL?$AAI?$AAS?$AAT?$AA?5?$AAC?$AAO?$AAR?$AAR?$AAU?$AAP?$AAT?$AAE?$AAD?$AA?$CB?$AA?$AA@ 1006eae8     MetpParserD:MetpParser.obj
 0002:00000b20       ??_C@_1HO@NAKOAEEB@?$AAc?$AA?3?$AA?2?$AAp?$AAr?$AAo?$AAg?$AAr?$AAa?$AAm?$AA?5?$AAf?$AAi?$AAl?$AAe?$AAs?$AA?2?$AAm?$AAi?$AAc?$AAr?$AAo?$AAs?$AAo?$AAf?$AAt?$AA?5?$AAv?$AAi?$AAs?$AAu?$AAa@ 1006eb20     MetpParserD:MetpParser.obj
 0002:00000ba0       ??_C@_06FNFBAEBE@binary?$AA@ 1006eba0     MetpParserD:MetpParser.obj
 0002:00000ba8       ??_C@_01ICJEACDI@?$DL?$AA@ 1006eba8     MetpParserD:MetpParser.obj
 0002:00000bac       ??_C@_01JLIPDDHJ@?3?$AA@   1006ebac     MetpParserD:MetpParser.obj
 0002:00000bb0       ??_C@_01KMDKNFGN@?1?$AA@   1006ebb0     MetpParserD:MetpParser.obj
 0002:00000bb4       ??_C@_07KMIJJFF@mebp?3?1?1?$AA@ 1006ebb4     MetpParserD:MetpParser.obj
 0002:00000bbc       ??_C@_07NPEHHIND@metp?3?1?1?$AA@ 1006ebbc     MetpParserD:MetpParser.obj
 0002:00000bc4       ??_C@_1BE@MEICGAHG@?$AAp?$AAs?$AAz?$AAT?$AAm?$AAp?$AAU?$AAR?$AAL?$AA?$AA@ 1006ebc4     MetpParserD:MetpParser.obj
 0002:00000bd8       ??_C@_1BI@CKIFJOFK@?$AAm?$AA_?$AAp?$AAs?$AAz?$AAR?$AAa?$AAw?$AAU?$AAR?$AAL?$AA?$AA@ 1006ebd8     MetpParserD:MetpParser.obj
 0002:00000bf0       ??_C@_02PCIJFNDE@?$AN?6?$AA@ 1006ebf0     MetpParserD:MetpParser.obj
 0002:00000bf4       ??_C@_1BO@NDHJGOOI@?$AAp?$AAs?$AAz?$AAK?$AAe?$AAy?$AA?5?$AA?$CB?$AA?$DN?$AA?5?$AAN?$AAU?$AAL?$AAL?$AA?$AA@ 1006ebf4     MetpParserD:MetpParser.obj
 0002:00000c14       ??_C@_1BM@BKDDLJOG@?$AAm?$AA_?$AAp?$AAB?$AAi?$AAn?$AAa?$AAr?$AAy?$AAD?$AAa?$AAt?$AAa?$AA?$AA@ 1006ec14     MetpParserD:MetpParser.obj
 0002:00000c30       ??_C@_1CI@FGGGJDMC@?$AAm?$AA_?$AAn?$AAM?$AAo?$AAd?$AAe?$AA?5?$AA?$DN?$AA?$DN?$AA?5?$AAM?$AAP?$AAM?$AA_?$AAT?$AAE?$AAX?$AAT?$AA?$AA@ 1006ec30     MetpParserD:MetpParser.obj
 0002:00000c58       ??_C@_1BK@BLGLACKC@?$AAi?$AAt?$AAe?$AAm?$AA?9?$AA?$DO?$AAs?$AAe?$AAc?$AAo?$AAn?$AAd?$AA?$AA@ 1006ec58     MetpParserD:MetpParser.obj
 0002:00000c74       ??_C@_0L@DLGAFMI@?$CFs?$CFs?$CFs?$CFd?$CFs?$AA@ 1006ec74     MetpParserD:MetpParser.obj
 0002:00000c80       ??_C@_08GEINLNIE@?$CFs?$CFs?$CFd?$CFs?$AA@ 1006ec80     MetpParserD:MetpParser.obj
 0002:00000c8c       ??_C@_06DIJPEION@?$CFs?$CFs?$CFs?$AA@ 1006ec8c     MetpParserD:MetpParser.obj
 0002:00000c94       ??_C@_04CFLIKOFM@?$CFs?$CFu?$AA@ 1006ec94     MetpParserD:MetpParser.obj
 0002:00000c9c       ??_C@_08KJEDNCKC@?$CFs?$CFs?$CFs?$CFs?$AA@ 1006ec9c     MetpParserD:MetpParser.obj
 0002:00000ca8       ??_C@_04HDOCAJNK@?$CFs?$CFs?$AA@ 1006eca8     MetpParserD:MetpParser.obj
 0002:00000cb0       ??_C@_0L@NAKLFIMN@?$CFs?$CFs?$CFd?$CFs?$CFs?$AA@ 1006ecb0     MetpParserD:MetpParser.obj
 0002:00000cbc       ??_C@_03LCAAOJEC@zip?$AA@  1006ecbc     MetpParserD:MetpParser.obj
 0002:00000cc0       ??_C@_1CE@KFGLDAJD@?$AAp?$AAs?$AAz?$AAT?$AAm?$AAp?$AAU?$AAR?$AAL?$AA?5?$AA?$CB?$AA?$DN?$AA?5?$AAN?$AAU?$AAL?$AAL?$AA?$AA@ 1006ecc0     MetpParserD:MetpParser.obj
 0002:00000ce4       ??_C@_1BE@FAILPMLF@?$AAp?$AAI?$AAt?$AAe?$AAm?$AAD?$AAa?$AAt?$AAa?$AA?$AA@ 1006ece4     MetpParserD:MetpParser.obj
 0002:00000cf8       ??_C@_1CE@FPGNIAOB@?$AAn?$AAe?$AAw?$AAK?$AAe?$AAy?$AAP?$AAa?$AAi?$AAr?$AA?4?$AAs?$AAe?$AAc?$AAo?$AAn?$AAd?$AA?$AA@ 1006ecf8     MetpParserD:MetpParser.obj
 0002:00000d20       ??_C@_1HI@IOFOAN@?$AAc?$AA?3?$AA?2?$AAp?$AAr?$AAo?$AAg?$AAr?$AAa?$AAm?$AA?5?$AAf?$AAi?$AAl?$AAe?$AAs?$AA?2?$AAm?$AAi?$AAc?$AAr?$AAo?$AAs?$AAo?$AAf?$AAt?$AA?5?$AAv?$AAi?$AAs?$AAu?$AAa@ 1006ed20     MetpParserD:MetpParser.obj
 0002:00000d98       ??_C@_1EK@PPDBPCAN@?$AAm?$AAa?$AAp?$AA?1?$AAs?$AAe?$AAt?$AA?5?$AAe?$AAr?$AAa?$AAs?$AAe?$AA?5?$AAi?$AAt?$AAe?$AAr?$AAa?$AAt?$AAo?$AAr?$AA?5?$AAo?$AAu?$AAt?$AAs?$AAi?$AAd?$AAe?$AA?5?$AAr@ 1006ed98     MetpParserD:MetpParser.obj
 0002:00000de4       ??_C@_0BE@JONHPENG@map?1set?$DMT?$DO?5too?5long?$AA@ 1006ede4     MetpParserD:MetpParser.obj
 0002:00000dfc       ??_7length_error@std@@6B@  1006edfc     MetpParserD:MetpParser.obj
 0002:00000e08       ??_7logic_error@std@@6B@   1006ee08     MetpParserD:MetpParser.obj
 0002:00000e10       ??_C@_1CG@JNLFBNGN@?$AA?$CC?$AAi?$AAn?$AAv?$AAa?$AAl?$AAi?$AAd?$AA?5?$AAa?$AAr?$AAg?$AAu?$AAm?$AAe?$AAn?$AAt?$AA?$CC?$AA?$AA@ 1006ee10     MetpParserD:MetpParser.obj
 0002:00000e38       ??_C@_1DLA@IAANOAIH@?$AAs?$AAt?$AAd?$AA?3?$AA?3?$AA_?$AAT?$AAr?$AAe?$AAe?$AA?$DM?$AAc?$AAl?$AAa?$AAs?$AAs?$AA?5?$AAs?$AAt?$AAd?$AA?3?$AA?3?$AA_?$AAT?$AAm?$AAa?$AAp?$AA_?$AAt?$AAr?$AAa?$AAi@ 1006ee38     MetpParserD:MetpParser.obj
 0002:000011e8       ??_C@_1FO@OCPOOAIA@?$AA?$CI?$AA?$CC?$AAS?$AAt?$AAa?$AAn?$AAd?$AAa?$AAr?$AAd?$AA?5?$AAC?$AA?$CL?$AA?$CL?$AA?5?$AAL?$AAi?$AAb?$AAr?$AAa?$AAr?$AAi?$AAe?$AAs?$AA?5?$AAI?$AAn?$AAv?$AAa?$AAl?$AAi?$AAd@ 1006f1e8     MetpParserD:MetpParser.obj
 0002:00001248       ??_C@_1DO@CFEEPGGJ@?$AAm?$AAa?$AAp?$AA?1?$AAs?$AAe?$AAt?$AA?5?$AAi?$AAt?$AAe?$AAr?$AAa?$AAt?$AAo?$AAr?$AAs?$AA?5?$AAi?$AAn?$AAc?$AAo?$AAm?$AAp?$AAa?$AAt?$AAi?$AAb?$AAl?$AAe?$AA?$AA@ 1006f248     MetpParserD:MetpParser.obj
 0002:00001288       ??_C@_1DKO@PNNJEKEK@?$AAs?$AAt?$AAd?$AA?3?$AA?3?$AA_?$AAT?$AAr?$AAe?$AAe?$AA?$DM?$AAc?$AAl?$AAa?$AAs?$AAs?$AA?5?$AAs?$AAt?$AAd?$AA?3?$AA?3?$AA_?$AAT?$AAm?$AAa?$AAp?$AA_?$AAt?$AAr?$AAa?$AAi@ 1006f288     MetpParserD:MetpParser.obj
 0002:00001638       ??_C@_1EI@FHEHNNNM@?$AAm?$AAa?$AAp?$AA?1?$AAs?$AAe?$AAt?$AA?5?$AAi?$AAt?$AAe?$AAr?$AAa?$AAt?$AAo?$AAr?$AA?5?$AAn?$AAo?$AAt?$AA?5?$AAd?$AAe?$AAr?$AAe?$AAf?$AAe?$AAr?$AAe?$AAn?$AAc?$AAa@ 1006f638     MetpParserD:MetpParser.obj
 0002:00001680       ??_C@_1DKC@ICABAGIH@?$AAs?$AAt?$AAd?$AA?3?$AA?3?$AA_?$AAT?$AAr?$AAe?$AAe?$AA?$DM?$AAc?$AAl?$AAa?$AAs?$AAs?$AA?5?$AAs?$AAt?$AAd?$AA?3?$AA?3?$AA_?$AAT?$AAm?$AAa?$AAp?$AA_?$AAt?$AAr?$AAa?$AAi@ 1006f680     MetpParserD:MetpParser.obj
 0002:00001a28       ??_C@_1EG@EHJFMBHJ@?$AAm?$AAa?$AAp?$AA?1?$AAs?$AAe?$AAt?$AA?5?$AAi?$AAt?$AAe?$AAr?$AAa?$AAt?$AAo?$AAr?$AA?5?$AAn?$AAo?$AAt?$AA?5?$AAi?$AAn?$AAc?$AAr?$AAe?$AAm?$AAe?$AAn?$AAt?$AAa?$AAb@ 1006fa28     MetpParserD:MetpParser.obj
 0002:00001a70       ??_C@_1DKC@HDMDODJF@?$AAs?$AAt?$AAd?$AA?3?$AA?3?$AA_?$AAT?$AAr?$AAe?$AAe?$AA?$DM?$AAc?$AAl?$AAa?$AAs?$AAs?$AA?5?$AAs?$AAt?$AAd?$AA?3?$AA?3?$AA_?$AAT?$AAm?$AAa?$AAp?$AA_?$AAt?$AAr?$AAa?$AAi@ 1006fa70     MetpParserD:MetpParser.obj
 0002:00001e18       ??_C@_1EG@OKCGOALM@?$AAm?$AAa?$AAp?$AA?1?$AAs?$AAe?$AAt?$AA?5?$AAi?$AAt?$AAe?$AAr?$AAa?$AAt?$AAo?$AAr?$AA?5?$AAn?$AAo?$AAt?$AA?5?$AAd?$AAe?$AAc?$AAr?$AAe?$AAm?$AAe?$AAn?$AAt?$AAa?$AAb@ 1006fe18     MetpParserD:MetpParser.obj
 0002:00001e60       ??_C@_1IA@PDBHGJAP@?$AAc?$AA?3?$AA?2?$AAp?$AAr?$AAo?$AAg?$AAr?$AAa?$AAm?$AA?5?$AAf?$AAi?$AAl?$AAe?$AAs?$AA?2?$AAm?$AAi?$AAc?$AAr?$AAo?$AAs?$AAo?$AAf?$AAt?$AA?5?$AAv?$AAi?$AAs?$AAu?$AAa@ 1006fe60     MetpParserD:MetpParser.obj
 0002:00001ee0       ??_C@_1CE@IGJMOCCK@?$AAi?$AAn?$AAv?$AAa?$AAl?$AAi?$AAd?$AA?5?$AAo?$AAp?$AAe?$AAr?$AAa?$AAt?$AAo?$AAr?$AA?$DM?$AA?$AA@ 1006fee0     MetpParserD:MetpParser.obj
 0002:00001f08       ??_7CLibDocZip@@6B@        1006ff08     MetpParserD:LibDocZip.obj
 0002:00001f0c       ??_C@_05GDHACFMB@1?42?43?$AA@ 1006ff0c     MetpParserD:compress.obj
 0002:00001f18       _deflate_copyright         1006ff18     MetpParserD:deflate.obj
 0002:00002878       ??_C@_0BH@FGKKJGOC@incorrect?5length?5check?$AA@ 10070878     MetpParserD:inflate.obj
 0002:00002890       ??_C@_0BF@MEIGEHBE@incorrect?5data?5check?$AA@ 10070890     MetpParserD:inflate.obj
 0002:000028a8       ??_C@_0BO@ECPMAOGG@invalid?5distance?5too?5far?5back?$AA@ 100708a8     MetpParserD:inflate.obj
 0002:000028c8       ??_C@_0BG@LBKINIKP@invalid?5distance?5code?$AA@ 100708c8     MetpParserD:inflate.obj
 0002:000028e0       ??_C@_0BM@FFFLPBBC@invalid?5literal?1length?5code?$AA@ 100708e0     MetpParserD:inflate.obj
 0002:000028fc       ??_C@_0BG@GMDFCBGP@invalid?5distances?5set?$AA@ 100708fc     MetpParserD:inflate.obj
 0002:00002914       ??_C@_0BK@BMMPFBBH@invalid?5bit?5length?5repeat?$AA@ 10070914     MetpParserD:inflate.obj
 0002:00002930       ??_C@_0BM@IIMGAINC@invalid?5literal?1lengths?5set?$AA@ 10070930     MetpParserD:inflate.obj
 0002:0000294c       ??_C@_0CE@GMIGFPBB@too?5many?5length?5or?5distance?5symb@ 1007094c     MetpParserD:inflate.obj
 0002:00002970       ??_C@_0BJ@HDEPPGOH@invalid?5code?5lengths?5set?$AA@ 10070970     MetpParserD:inflate.obj
 0002:0000298c       ??_C@_0BN@LGAADGOK@invalid?5stored?5block?5lengths?$AA@ 1007098c     MetpParserD:inflate.obj
 0002:000029ac       ??_C@_0BD@PJCBIDD@invalid?5block?5type?$AA@ 100709ac     MetpParserD:inflate.obj
 0002:000029c0       ??_C@_0BE@GONKLEPM@header?5crc?5mismatch?$AA@ 100709c0     MetpParserD:inflate.obj
 0002:000029d4       ??_C@_0BJ@BLBBCOMO@unknown?5header?5flags?5set?$AA@ 100709d4     MetpParserD:inflate.obj
 0002:000029f0       ??_C@_0BH@LIBMMIGA@incorrect?5header?5check?$AA@ 100709f0     MetpParserD:inflate.obj
 0002:00002a08       ??_C@_0BE@EMOGCLGO@invalid?5window?5size?$AA@ 10070a08     MetpParserD:inflate.obj
 0002:00002a1c       ??_C@_0BL@IHKGDAEE@unknown?5compression?5method?$AA@ 10070a1c     MetpParserD:inflate.obj
 0002:00003080       __dist_code                10071080     MetpParserD:trees.obj
 0002:00003280       __length_code              10071280     MetpParserD:trees.obj
 0002:00005470       ??_C@_0BF@CJFPCCEG@incompatible?5version?$AA@ 10073470     MetpParserD:zutil.obj
 0002:00005488       ??_C@_0N@DFPGLBGC@buffer?5error?$AA@ 10073488     MetpParserD:zutil.obj
 0002:00005498       ??_C@_0BE@OGGJBMCE@insufficient?5memory?$AA@ 10073498     MetpParserD:zutil.obj
 0002:000054ac       ??_C@_0L@HAHMBNLP@data?5error?$AA@ 100734ac     MetpParserD:zutil.obj
 0002:000054b8       ??_C@_0N@MKKNPMJD@stream?5error?$AA@ 100734b8     MetpParserD:zutil.obj
 0002:000054c8       ??_C@_0L@KIJFAKBJ@file?5error?$AA@ 100734c8     MetpParserD:zutil.obj
 0002:000054d3       ??_C@_00CNPNBAHC@?$AA@     100734d3     MetpParserD:zutil.obj
 0002:000054d4       ??_C@_0L@FNAOCBOG@stream?5end?$AA@ 100734d4     MetpParserD:zutil.obj
 0002:000054e0       ??_C@_0BA@MOKMMFOD@need?5dictionary?$AA@ 100734e0     MetpParserD:zutil.obj
 0002:000054f0       _z_errmsg                  100734f0     MetpParserD:zutil.obj
 0002:00005518       _inflate_copyright         10073518     MetpParserD:inftrees.obj
 0002:00005648       ??_C@_04LCHINAII@k22e?$AA@ 10073648     PubProtocolD:PubProtocol.obj
 0002:00005650       ??_C@_03MDLJEMK@k3e?$AA@   10073650     PubProtocolD:PubProtocol.obj
 0002:00005654       ??_C@_03CKNEBPHI@m1e?$AA@  10073654     PubProtocolD:PubProtocol.obj
 0002:00005658       ??_C@_06EDFCMHHE@pub11e?$AA@ 10073658     PubProtocolD:PubProtocol.obj
 0002:00005660       ??_C@_06ECJAKNED@pub10e?$AA@ 10073660     PubProtocolD:PubProtocol.obj
 0002:00005668       ??_C@_05NGDCECFH@pub9e?$AA@ 10073668     PubProtocolD:PubProtocol.obj
 0002:00005670       ??_C@_05NHPACIGA@pub8e?$AA@ 10073670     PubProtocolD:PubProtocol.obj
 0002:00005678       ??_C@_05NMKMGPFN@pub7e?$AA@ 10073678     PubProtocolD:PubProtocol.obj
 0002:00005680       ??_C@_05NNGOAFGK@pub6e?$AA@ 10073680     PubProtocolD:PubProtocol.obj
 0002:00005688       ??_C@_05NPCILLDD@pub5e?$AA@ 10073688     PubProtocolD:PubProtocol.obj
 0002:00005690       ??_C@_05NOOKNBAE@pub4e?$AA@ 10073690     PubProtocolD:PubProtocol.obj
 0002:00005698       ??_C@_05NLKFMHIB@pub3e?$AA@ 10073698     PubProtocolD:PubProtocol.obj
 0002:000056a0       ??_C@_05NKGHKNLG@pub2e?$AA@ 100736a0     PubProtocolD:PubProtocol.obj
 0002:000056a8       ??_C@_05NICBBDOP@pub1e?$AA@ 100736a8     PubProtocolD:PubProtocol.obj
 0002:000056b0       ??_C@_05IHHBPLHN@_?$CF08x?$AA@ 100736b0     WbersClientLibD:SEHError.obj
 0002:000056b8       ??_C@_0N@NMLPILGG@?$CF02d?$CF02d?$CF02d?$AA@ 100736b8     WbersClientLibD:SEHError.obj
 0002:000056c8       ??_C@_04JMFINIFG@?4dmp?$AA@ 100736c8     WbersClientLibD:SEHError.obj
 0002:000056d0       ??_C@_02DPKJAMEF@?$CFd?$AA@ 100736d0     WbersClientLibD:SEHError.obj
 0002:000056d4       ??_C@_06NBOMOOPM@poslog?$AA@ 100736d4     WbersClientLibD:SEHError.obj
 0002:000056dc       ??_C@_08LCLOECLF@LASPOKER?$AA@ 100736dc     WbersClientLibD:SEHError.obj
 0002:000056e8       ??_C@_06MDJOOKDC@POKER7?$AA@ 100736e8     WbersClientLibD:SEHError.obj
 0002:000056f0       ??_C@_01KICIPPFI@?2?$AA@   100736f0     WbersClientLibD:SEHError.obj
 0002:000056f4       ??_C@_01LFCBOECM@?4?$AA@   100736f4     WbersClientLibD:SEHError.obj
 0002:000056f8       ??_C@_0DA@HIOABKEH@?$FLSEHError?3?3WriteMiniDump?$FN?5file?5c@ 100736f8     WbersClientLibD:SEHError.obj
 0002:00005728       ??_C@_0DE@BAILKDGF@?$FLSEHError?3?3WriteMiniDump?$FN?5MiniDu@ 10073728     WbersClientLibD:SEHError.obj
 0002:0000575c       ??_C@_07NOEMLBEK@modinfo?$AA@ 1007375c     WbersClientLibD:SEHError.obj
 0002:00005764       ??_C@_07CPCPJPKL@version?$AA@ 10073764     WbersClientLibD:SEHError.obj
 0002:0000576c       ??_C@_08DHHIDNEP@register?$AA@ 1007376c     WbersClientLibD:SEHError.obj
 0002:00005778       ??_C@_0DM@IENPJAEP@?$CF08X?$HM?$CF08X?$HM?$CF08X?$HM?$CF08X?$HM?$CF08X?$HM?$CF08X?$HM?$CF0@ 10073778     WbersClientLibD:SEHError.obj
 0002:000057b4       ??_C@_09GIAJEAGL@callstack?$AA@ 100737b4     WbersClientLibD:SEHError.obj
 0002:000057c0       ??_C@_05HKMJPJLL@?$CF08X?5?$AA@ 100737c0     WbersClientLibD:SEHError.obj
 0002:000057c8       ??_C@_06DJIHEMFI@status?$AA@ 100737c8     WbersClientLibD:SEHError.obj
 0002:000057d0       ??_C@_06CEHAOENB@reason?$AA@ 100737d0     WbersClientLibD:SEHError.obj
 0002:000057d8       ??_C@_07LHEPONKL@address?$AA@ 100737d8     WbersClientLibD:SEHError.obj
 0002:000057e0       ??_C@_04JIMNDDED@?$CF08X?$AA@ 100737e0     WbersClientLibD:SEHError.obj
 0002:000057e8       ??_C@_07JNNGEGGO@subject?$AA@ 100737e8     WbersClientLibD:SEHError.obj
 0002:000057f0       ??_C@_07NBCGADJA@Unknown?$AA@ 100737f0     WbersClientLibD:SEHError.obj
 0002:000057f8       ??_C@_0BJ@BKJLBIPE@EXCEPTION_INVALID_HANDLE?$AA@ 100737f8     WbersClientLibD:SEHError.obj
 0002:00005814       ??_C@_0BF@BLPCMAHP@EXCEPTION_GUARD_PAGE?$AA@ 10073814     WbersClientLibD:SEHError.obj
 0002:0000582c       ??_C@_0BO@GJKCLCLP@EXCEPTION_INVALID_DISPOSITION?$AA@ 1007382c     WbersClientLibD:SEHError.obj
 0002:0000584c       ??_C@_0BJ@FNEOPPMM@EXCEPTION_STACK_OVERFLOW?$AA@ 1007384c     WbersClientLibD:SEHError.obj
 0002:00005868       ??_C@_0CD@JGPJMHJA@EXCEPTION_NONCONTINUABLE_EXCEPTI@ 10073868     WbersClientLibD:SEHError.obj
 0002:0000588c       ??_C@_0BO@DLLOIENN@EXCEPTION_ILLEGAL_INSTRUCTION?$AA@ 1007388c     WbersClientLibD:SEHError.obj
 0002:000058ac       ??_C@_0BI@BNDIILLI@EXCEPTION_IN_PAGE_ERROR?$AA@ 100738ac     WbersClientLibD:SEHError.obj
 0002:000058c4       ??_C@_0BL@HJPDFKEO@EXCEPTION_PRIV_INSTRUCTION?$AA@ 100738c4     WbersClientLibD:SEHError.obj
 0002:000058e0       ??_C@_0BH@HNBKDLPO@EXCEPTION_INT_OVERFLOW?$AA@ 100738e0     WbersClientLibD:SEHError.obj
 0002:000058f8       ??_C@_0BN@LBLGDPIG@EXCEPTION_INT_DIVIDE_BY_ZERO?$AA@ 100738f8     WbersClientLibD:SEHError.obj
 0002:00005918       ??_C@_0BI@CHKFJJC@EXCEPTION_FLT_UNDERFLOW?$AA@ 10073918     WbersClientLibD:SEHError.obj
 0002:00005930       ??_C@_0BK@COBCCPEI@EXCEPTION_FLT_STACK_CHECK?$AA@ 10073930     WbersClientLibD:SEHError.obj
 0002:0000594c       ??_C@_0BH@LGFBHAFE@EXCEPTION_FLT_OVERFLOW?$AA@ 1007394c     WbersClientLibD:SEHError.obj
 0002:00005964       ??_C@_0CA@JJDIIMDB@EXCEPTION_FLT_INVALID_OPERATION?$AA@ 10073964     WbersClientLibD:SEHError.obj
 0002:00005984       ??_C@_0BN@KLCBBCKL@EXCEPTION_FLT_INEXACT_RESULT?$AA@ 10073984     WbersClientLibD:SEHError.obj
 0002:000059a4       ??_C@_0BN@PHPNMCML@EXCEPTION_FLT_DIVIDE_BY_ZERO?$AA@ 100739a4     WbersClientLibD:SEHError.obj
 0002:000059c4       ??_C@_0BP@NMNHALMC@EXCEPTION_FLT_DENORMAL_OPERAND?$AA@ 100739c4     WbersClientLibD:SEHError.obj
 0002:000059e4       ??_C@_0CA@JNIHFDGO@EXCEPTION_ARRAY_BOUNDS_EXCEEDED?$AA@ 100739e4     WbersClientLibD:SEHError.obj
 0002:00005a04       ??_C@_0BG@HPCFEJHG@EXCEPTION_SINGLE_STEP?$AA@ 10073a04     WbersClientLibD:SEHError.obj
 0002:00005a1c       ??_C@_0BF@FLLDOCJP@EXCEPTION_BREAKPOINT?$AA@ 10073a1c     WbersClientLibD:SEHError.obj
 0002:00005a34       ??_C@_0CA@LEJEDDLG@EXCEPTION_DATATYPE_MISALIGNMENT?$AA@ 10073a34     WbersClientLibD:SEHError.obj
 0002:00005a54       ??_C@_0BL@CMOMFGDN@EXCEPTION_ACCESS_VIOLATION?$AA@ 10073a54     WbersClientLibD:SEHError.obj
 0002:00005a70       ??_C@_0BC@CFHGJNN@c?3?2hangamelog?4txt?$AA@ 10073a70     WbersClientLibD:SEHError.obj
 0002:00005a84       ??_C@_07DLHCIBDH@default?$AA@ 10073a84     WbersClientLibD:SEHError.obj
 0002:00005a90       ??_7Wbers@@6B@             10073a90     WbersClientLibD:Wbers.obj
 0002:00005a94       ??_C@_03HAPOJHBM@GET?$AA@  10073a94     WbersClientLibD:Wbers.obj
 0002:00005a98       ??_C@_08EOIKDEH@WbersLog?$AA@ 10073a98     WbersClientLibD:Wbers.obj
 0002:00005aa4       ??_C@_08JCOAIGLL@project?$DN?$AA@ 10073aa4     WbersClientLibD:Wbers.obj
 0002:00005ab0       ??_C@_07GKGAGMNN@project?$AA@ 10073ab0     WbersClientLibD:LogBuilder.obj
 0002:00005ab8       ??_C@_06BPDIKMPP@?$CG?$CFs?$DN?$CFs?$AA@ 10073ab8     WbersClientLibD:LogBuilder.obj
 0002:00005ac0       ??_C@_04NMOPBDPN@?$CG?$CFs?$DN?$AA@ 10073ac0     WbersClientLibD:LogBuilder.obj
 0002:00005ac8       ??_C@_0N@HKEKNGNG@?$HM?$CFs_?$CF08x?$CF08x?$AA@ 10073ac8     WbersClientLibD:CheckSum.obj
 0002:00005ad8       ??_C@_0M@COKFJDEE@?$CFs_?$CF08x?$CF08x?$AA@ 10073ad8     WbersClientLibD:CheckSum.obj
 0002:00005ae8       ??_C@_1EG@NKJAFFPF@?$AAd?$AAw?$AAR?$AAe?$AAt?$AA?5?$AA?$DN?$AA?$DN?$AA?5?$AA?$CI?$AAD?$AAW?$AAO?$AAR?$AAD?$AA?$CJ?$AAr?$AAe?$AAq?$AAu?$AAe?$AAs?$AAt?$AAT?$AAa?$AAi?$AAl?$AA?4?$AAs?$AAi?$AAz?$AAe@ 10073ae8     WbersClientLibD:InetPost.obj
 0002:00005b30       ??_C@_1DG@LFBOHIED@?$AAd?$AAw?$AAR?$AAe?$AAt?$AA?5?$AA?$DN?$AA?$DN?$AA?5?$AAf?$AAi?$AAl?$AAe?$AA_?$AAc?$AAo?$AAn?$AAt?$AAe?$AAn?$AAt?$AA_?$AAs?$AAi?$AAz?$AAe?$AA?$AA@ 10073b30     WbersClientLibD:InetPost.obj
 0002:00005b68       ??_C@_1EG@KCHMDPEK@?$AAd?$AAw?$AAR?$AAe?$AAt?$AA?5?$AA?$DN?$AA?$DN?$AA?5?$AA?$CI?$AAD?$AAW?$AAO?$AAR?$AAD?$AA?$CJ?$AAr?$AAe?$AAq?$AAu?$AAe?$AAs?$AAt?$AAB?$AAo?$AAd?$AAy?$AA?4?$AAs?$AAi?$AAz?$AAe@ 10073b68     WbersClientLibD:InetPost.obj
 0002:00005bb0       ??_C@_1MK@KJIPEBNF@?$AAd?$AA?3?$AA?2?$AAm?$AAy?$AA?5?$AAd?$AAo?$AAc?$AAu?$AAm?$AAe?$AAn?$AAt?$AAs?$AA?2?$AAn?$AAh?$AAn?$AA?2?$AAs?$AAo?$AAu?$AAr?$AAc?$AAe?$AA?2?$AAp?$AAu?$AAb?$AAl?$AAi@ 10073bb0     WbersClientLibD:InetPost.obj
 0002:00005c7c       ??_C@_0CN@GAJOPHGG@Content?9Type?3?5multipart?1form?9dat@ 10073c7c     WbersClientLibD:InetPost.obj
 0002:00005cac       ??_C@_04HCJEIHPL@POST?$AA@ 10073cac     WbersClientLibD:InetPost.obj
 0002:00005cb4       ??_C@_0M@KFKIHHBB@WBERSPOSTER?$AA@ 10073cb4     WbersClientLibD:InetPost.obj
 0002:00005cc0       ??_C@_0N@CBNDNEDC@?$CF04X?$CF04X?$CF04X?$AA@ 10073cc0     WbersClientLibD:InetPost.obj
 0002:00005cd0       ??_C@_1CE@DPLGIBDK@?$AAr?$AAe?$AAt?$AA?5?$AA?$CB?$AA?$DN?$AA?5?$AAd?$AAw?$AAF?$AAi?$AAl?$AAe?$AAS?$AAi?$AAz?$AAe?$AA?$AA@ 10073cd0     WbersClientLibD:InetPost.obj
 0002:00005cf4       ??_C@_1DM@JBPPHIPA@?$AAh?$AAF?$AAi?$AAl?$AAe?$AA?5?$AA?$CB?$AA?$DN?$AA?5?$AAI?$AAN?$AAV?$AAA?$AAL?$AAI?$AAD?$AA_?$AAH?$AAA?$AAN?$AAD?$AAL?$AAE?$AA_?$AAV?$AAA?$AAL?$AAU?$AAE?$AA?$AA@ 10073cf4     WbersClientLibD:InetPost.obj
 0002:00005d30       ??_C@_02BAABKJLB@?9?9?$AA@ 10073d30     WbersClientLibD:InetPost.obj
 0002:00005d34       ??_C@_0CH@DJCGDEEN@Content?9Type?3?5application?1octet?9@ 10073d34     WbersClientLibD:InetPost.obj
 0002:00005d5c       ??_C@_0CH@OHOJPEDO@Content?9Disposition?3?5form?9data?$DL?5@ 10073d5c     WbersClientLibD:InetPost.obj
 0002:00005d84       ??_C@_0O@LDHKHDPO@?$CC?$DL?5filename?$DN?$CC?$AA@ 10073d84     WbersClientLibD:InetPost.obj
 0002:00005d94       ??_C@_01BJJEKLCA@?$CC?$AA@ 10073d94     WbersClientLibD:InetPost.obj
 0002:00005d98       ??_C@_08BEJBBDCL@dumpfile?$AA@ 10073d98     WbersClientLibD:InetPost.obj
 0002:00005da4       ??_C@_04KAODOPGN@?9?9?$AN?6?$AA@ 10073da4     WbersClientLibD:InetPost.obj
 0002:00005db0       ??_7SyncObject@@6B@        10073db0     CommLibForSvr:Sync.obj
 0002:00005dbc       ??_7HanCriticalSection@@6B@ 10073dbc     CommLibForSvr:Sync.obj
 0002:00005dcc       ??_7HanLock@@6B@           10073dcc     CommLibForSvr:Sync.obj
 0002:00005dd0       ??_C@_15IABLJNFO@?$AA?6?$AA?6?$AA?$AA@ 10073dd0     LIBCMTD:wassert.obj
 0002:00005dd8       ??_C@_13LBAGMAIH@?$AA?6?$AA?$AA@ 10073dd8     LIBCMTD:wassert.obj
 0002:00005ddc       ??_C@_17LGKOMLJ@?$AA?4?$AA?4?$AA?4?$AA?$AA@ 10073ddc     LIBCMTD:wassert.obj
 0002:00005de8       ??_C@_1EK@MBDPDCGA@?$AAM?$AAi?$AAc?$AAr?$AAo?$AAs?$AAo?$AAf?$AAt?$AA?5?$AAV?$AAi?$AAs?$AAu?$AAa?$AAl?$AA?5?$AAC?$AA?$CL?$AA?$CL?$AA?5?$AAR?$AAu?$AAn?$AAt?$AAi?$AAm?$AAe?$AA?5?$AAL?$AAi?$AAb@ 10073de8     LIBCMTD:wassert.obj
 0002:00005e38       ??_C@_1HK@POCJMFGK@?$AA?$CI?$AAP?$AAr?$AAe?$AAs?$AAs?$AA?5?$AAR?$AAe?$AAt?$AAr?$AAy?$AA?5?$AAt?$AAo?$AA?5?$AAd?$AAe?$AAb?$AAu?$AAg?$AA?5?$AAt?$AAh?$AAe?$AA?5?$AAa?$AAp?$AAp?$AAl?$AAi?$AAc@ 10073e38     LIBCMTD:wassert.obj
 0002:00005eb8       ??_C@_1LO@HBAMOOPN@?$AAw?$AAc?$AAs?$AAc?$AAa?$AAt?$AA_?$AAs?$AA?$CI?$AAa?$AAs?$AAs?$AAe?$AAr?$AAt?$AAb?$AAu?$AAf?$AA?0?$AA?5?$AA?$CI?$AA6?$AA0?$AA?5?$AA?$CK?$AA?5?$AA9?$AA?$CJ?$AA?0?$AA?5?$AAL?$AA?$CC@ 10073eb8     LIBCMTD:wassert.obj
 0002:00005f78       ??_C@_1FG@GMPCGFKH@?$AAw?$AAc?$AAs?$AAc?$AAa?$AAt?$AA_?$AAs?$AA?$CI?$AAa?$AAs?$AAs?$AAe?$AAr?$AAt?$AAb?$AAu?$AAf?$AA?0?$AA?5?$AA?$CI?$AA6?$AA0?$AA?5?$AA?$CK?$AA?5?$AA9?$AA?$CJ?$AA?0?$AA?5?$AAd?$AAb@ 10073f78     LIBCMTD:wassert.obj
 0002:00005fd0       ??_C@_1OA@EGMLFBHJ@?$AAF?$AAo?$AAr?$AA?5?$AAi?$AAn?$AAf?$AAo?$AAr?$AAm?$AAa?$AAt?$AAi?$AAo?$AAn?$AA?5?$AAo?$AAn?$AA?5?$AAh?$AAo?$AAw?$AA?5?$AAy?$AAo?$AAu?$AAr?$AA?5?$AAp?$AAr?$AAo?$AAg@ 10073fd0     LIBCMTD:wassert.obj
 0002:000060b0       ??_C@_1BCO@FMFFDPPF@?$AAw?$AAc?$AAs?$AAc?$AAa?$AAt?$AA_?$AAs?$AA?$CI?$AAa?$AAs?$AAs?$AAe?$AAr?$AAt?$AAb?$AAu?$AAf?$AA?0?$AA?5?$AA?$CI?$AA6?$AA0?$AA?5?$AA?$CK?$AA?5?$AA9?$AA?$CJ?$AA?0?$AA?5?$AAL?$AA?$CC@ 100740b0     LIBCMTD:wassert.obj
 0002:000061e0       ??_C@_1EM@MBEKCGIC@?$AAw?$AAc?$AAs?$AAc?$AAa?$AAt?$AA_?$AAs?$AA?$CI?$AA?5?$AAa?$AAs?$AAs?$AAe?$AAr?$AAt?$AAb?$AAu?$AAf?$AA?0?$AA?5?$AA?$CI?$AA6?$AA0?$AA?5?$AA?$CK?$AA?5?$AA9?$AA?$CJ?$AA?0?$AA?5?$AAe@ 100741e0     LIBCMTD:wassert.obj
 0002:00006230       ??_C@_1CHM@CEIMNDLH@?$AAw?$AAc?$AAs?$AAn?$AAc?$AAa?$AAt?$AA_?$AAs?$AA?$CI?$AA?5?$AAa?$AAs?$AAs?$AAe?$AAr?$AAt?$AAb?$AAu?$AAf?$AA?0?$AA?5?$AA?$CI?$AA6?$AA0?$AA?5?$AA?$CK?$AA?5?$AA9?$AA?$CJ?$AA?0?$AA?5@ 10074230     LIBCMTD:wassert.obj
 0002:000064ac       ??_C@_1BK@PEDCIPMA@?$AAE?$AAx?$AAp?$AAr?$AAe?$AAs?$AAs?$AAi?$AAo?$AAn?$AA?3?$AA?5?$AA?$AA@ 100744ac     LIBCMTD:wassert.obj
 0002:000064c8       ??_C@_1GC@HOBBPFHJ@?$AAw?$AAc?$AAs?$AAc?$AAa?$AAt?$AA_?$AAs?$AA?$CI?$AA?5?$AAa?$AAs?$AAs?$AAe?$AAr?$AAt?$AAb?$AAu?$AAf?$AA?0?$AA?5?$AA?$CI?$AA6?$AA0?$AA?5?$AA?$CK?$AA?5?$AA9?$AA?$CJ?$AA?0?$AA?5?$AAL@ 100744c8     LIBCMTD:wassert.obj
 0002:00006530       ??_C@_1KG@CFEIMPNH@?$AA_?$AAi?$AAt?$AAo?$AAw?$AA_?$AAs?$AA?$CI?$AA?5?$AAl?$AAi?$AAn?$AAe?$AAn?$AAo?$AA?0?$AA?5?$AAa?$AAs?$AAs?$AAe?$AAr?$AAt?$AAb?$AAu?$AAf?$AA?5?$AA?$CL?$AA?5?$AAw?$AAc?$AAs@ 10074530     LIBCMTD:wassert.obj
 0002:000065d8       ??_C@_1O@KCAFKHJE@?$AAL?$AAi?$AAn?$AAe?$AA?3?$AA?5?$AA?$AA@ 100745d8     LIBCMTD:wassert.obj
 0002:000065e8       ??_C@_1FG@NHDGJLMI@?$AAw?$AAc?$AAs?$AAc?$AAa?$AAt?$AA_?$AAs?$AA?$CI?$AA?5?$AAa?$AAs?$AAs?$AAe?$AAr?$AAt?$AAb?$AAu?$AAf?$AA?0?$AA?5?$AA?$CI?$AA6?$AA0?$AA?5?$AA?$CK?$AA?5?$AA9?$AA?$CJ?$AA?0?$AA?5?$AAL@ 100745e8     LIBCMTD:wassert.obj
 0002:00006640       ??_C@_1FE@IIFBBPFI@?$AAw?$AAc?$AAs?$AAc?$AAa?$AAt?$AA_?$AAs?$AA?$CI?$AA?5?$AAa?$AAs?$AAs?$AAe?$AAr?$AAt?$AAb?$AAu?$AAf?$AA?0?$AA?5?$AA?$CI?$AA6?$AA0?$AA?5?$AA?$CK?$AA?5?$AA9?$AA?$CJ?$AA?0?$AA?5?$AAf@ 10074640     LIBCMTD:wassert.obj
 0002:00006698       ??_C@_1IC@CFFJBMAD@?$AAw?$AAc?$AAs?$AAc?$AAa?$AAt?$AA_?$AAs?$AA?$CI?$AA?5?$AAa?$AAs?$AAs?$AAe?$AAr?$AAt?$AAb?$AAu?$AAf?$AA?0?$AA?5?$AA?$CI?$AA6?$AA0?$AA?5?$AA?$CK?$AA?5?$AA9?$AA?$CJ?$AA?0?$AA?5?$AAp@ 10074698     LIBCMTD:wassert.obj
 0002:00006720       ??_C@_1HG@OJJMBIKO@?$AAw?$AAc?$AAs?$AAn?$AAc?$AAa?$AAt?$AA_?$AAs?$AA?$CI?$AA?5?$AAa?$AAs?$AAs?$AAe?$AAr?$AAt?$AAb?$AAu?$AAf?$AA?0?$AA?5?$AA?$CI?$AA6?$AA0?$AA?5?$AA?$CK?$AA?5?$AA9?$AA?$CJ?$AA?0?$AA?5@ 10074720     LIBCMTD:wassert.obj
 0002:00006798       ??_C@_1GO@BIHLMMND@?$AAw?$AAc?$AAs?$AAn?$AAc?$AAa?$AAt?$AA_?$AAs?$AA?$CI?$AA?5?$AAa?$AAs?$AAs?$AAe?$AAr?$AAt?$AAb?$AAu?$AAf?$AA?0?$AA?5?$AA?$CI?$AA6?$AA0?$AA?5?$AA?$CK?$AA?5?$AA9?$AA?$CJ?$AA?0?$AA?5@ 10074798     LIBCMTD:wassert.obj
 0002:00006808       ??_C@_1FO@IJLLDBEB@?$AAw?$AAc?$AAs?$AAc?$AAa?$AAt?$AA_?$AAs?$AA?$CI?$AA?5?$AAa?$AAs?$AAs?$AAe?$AAr?$AAt?$AAb?$AAu?$AAf?$AA?0?$AA?5?$AA?$CI?$AA6?$AA0?$AA?5?$AA?$CK?$AA?5?$AA9?$AA?$CJ?$AA?0?$AA?5?$AAp@ 10074808     LIBCMTD:wassert.obj
 0002:00006868       ??_C@_1FG@CLEECKIJ@?$AAw?$AAc?$AAs?$AAc?$AAa?$AAt?$AA_?$AAs?$AA?$CI?$AA?5?$AAa?$AAs?$AAs?$AAe?$AAr?$AAt?$AAb?$AAu?$AAf?$AA?0?$AA?5?$AA?$CI?$AA6?$AA0?$AA?5?$AA?$CK?$AA?5?$AA9?$AA?$CJ?$AA?0?$AA?5?$AAd@ 10074868     LIBCMTD:wassert.obj
 0002:000068c0       ??_C@_1GG@PMHOPJKA@?$AAw?$AAc?$AAs?$AAn?$AAc?$AAa?$AAt?$AA_?$AAs?$AA?$CI?$AA?5?$AAa?$AAs?$AAs?$AAe?$AAr?$AAt?$AAb?$AAu?$AAf?$AA?0?$AA?5?$AA?$CI?$AA6?$AA0?$AA?5?$AA?$CK?$AA?5?$AA9?$AA?$CJ?$AA?0?$AA?5@ 100748c0     LIBCMTD:wassert.obj
 0002:00006928       ??_C@_1O@HEMHKNDC@?$AAF?$AAi?$AAl?$AAe?$AA?3?$AA?5?$AA?$AA@ 10074928     LIBCMTD:wassert.obj
 0002:00006938       ??_C@_1FG@HIDBOJF@?$AAw?$AAc?$AAs?$AAc?$AAa?$AAt?$AA_?$AAs?$AA?$CI?$AA?5?$AAa?$AAs?$AAs?$AAe?$AAr?$AAt?$AAb?$AAu?$AAf?$AA?0?$AA?5?$AA?$CI?$AA6?$AA0?$AA?5?$AA?$CK?$AA?5?$AA9?$AA?$CJ?$AA?0?$AA?5?$AAL@ 10074938     LIBCMTD:wassert.obj
 0002:00006990       ??_C@_1FC@FFKGGIKO@?$AAw?$AAc?$AAs?$AAc?$AAa?$AAt?$AA_?$AAs?$AA?$CI?$AA?5?$AAa?$AAs?$AAs?$AAe?$AAr?$AAt?$AAb?$AAu?$AAf?$AA?0?$AA?5?$AA?$CI?$AA6?$AA0?$AA?5?$AA?$CK?$AA?5?$AA9?$AA?$CJ?$AA?0?$AA?5?$AAn@ 10074990     LIBCMTD:wassert.obj
 0002:000069e8       ??_C@_1EK@BDNABPEK@?$AAw?$AAc?$AAs?$AAc?$AAa?$AAt?$AA_?$AAs?$AA?$CI?$AA?5?$AAa?$AAs?$AAs?$AAe?$AAr?$AAt?$AAb?$AAu?$AAf?$AA?0?$AA?5?$AA?$CI?$AA6?$AA0?$AA?5?$AA?$CK?$AA?5?$AA9?$AA?$CJ?$AA?0?$AA?5?$AAp@ 100749e8     LIBCMTD:wassert.obj
 0002:00006a38       ??_C@_1HK@JKBDGMGN@?$AAw?$AAc?$AAs?$AAn?$AAc?$AAp?$AAy?$AA_?$AAs?$AA?$CI?$AA?5?$AAp?$AAc?$AAh?$AA?0?$AA?5?$AA?$CI?$AA2?$AA6?$AA0?$AA?5?$AA?$CL?$AA?5?$AA1?$AA?$CJ?$AA?5?$AA?9?$AA?5?$AA?$CI?$AAp?$AAc?$AAh@ 10074a38     LIBCMTD:wassert.obj
 0002:00006ab4       ??_C@_1CO@EAEJAADC@?$AA?$DM?$AAp?$AAr?$AAo?$AAg?$AAr?$AAa?$AAm?$AA?5?$AAn?$AAa?$AAm?$AAe?$AA?5?$AAu?$AAn?$AAk?$AAn?$AAo?$AAw?$AAn?$AA?$DO?$AA?$AA@ 10074ab4     LIBCMTD:wassert.obj
 0002:00006ae8       ??_C@_1HA@EPFCONEE@?$AAw?$AAc?$AAs?$AAc?$AAp?$AAy?$AA_?$AAs?$AA?$CI?$AA?5?$AAp?$AAr?$AAo?$AAg?$AAn?$AAa?$AAm?$AAe?$AA?0?$AA?5?$AA2?$AA6?$AA0?$AA?5?$AA?$CL?$AA?5?$AA1?$AA?0?$AA?5?$AAL?$AA?$CC?$AA?$DM@ 10074ae8     LIBCMTD:wassert.obj
 0002:00006b58       ??_C@_1BE@PHKBBGE@?$AAP?$AAr?$AAo?$AAg?$AAr?$AAa?$AAm?$AA?3?$AA?5?$AA?$AA@ 10074b58     LIBCMTD:wassert.obj
 0002:00006b70       ??_C@_1FM@LKICECBD@?$AAw?$AAc?$AAs?$AAc?$AAa?$AAt?$AA_?$AAs?$AA?$CI?$AA?5?$AAa?$AAs?$AAs?$AAe?$AAr?$AAt?$AAb?$AAu?$AAf?$AA?0?$AA?5?$AA?$CI?$AA6?$AA0?$AA?5?$AA?$CK?$AA?5?$AA9?$AA?$CJ?$AA?0?$AA?5?$AAL@ 10074b70     LIBCMTD:wassert.obj
 0002:00006bd0       ??_C@_1FI@JIGMFG@?$AAw?$AAc?$AAs?$AAc?$AAa?$AAt?$AA_?$AAs?$AA?$CI?$AA?5?$AAa?$AAs?$AAs?$AAe?$AAr?$AAt?$AAb?$AAu?$AAf?$AA?0?$AA?5?$AA?$CI?$AA6?$AA0?$AA?5?$AA?$CK?$AA?5?$AA9?$AA?$CJ?$AA?0?$AA?5?$AAd@ 10074bd0     LIBCMTD:wassert.obj
 0002:00006c28       ??_C@_1CE@OJBNHDMO@?$AAA?$AAs?$AAs?$AAe?$AAr?$AAt?$AAi?$AAo?$AAn?$AA?5?$AAf?$AAa?$AAi?$AAl?$AAe?$AAd?$AA?$CB?$AA?$AA@ 10074c28     LIBCMTD:wassert.obj
 0002:00006c50       ??_C@_1GM@EFCJNBAA@?$AAw?$AAc?$AAs?$AAc?$AAp?$AAy?$AA_?$AAs?$AA?$CI?$AA?5?$AAa?$AAs?$AAs?$AAe?$AAr?$AAt?$AAb?$AAu?$AAf?$AA?0?$AA?5?$AA?$CI?$AA6?$AA0?$AA?5?$AA?$CK?$AA?5?$AA9?$AA?$CJ?$AA?0?$AA?5?$AAL@ 10074c50     LIBCMTD:wassert.obj
 0002:00006cbc       ??_C@_0CG@KNFFOMBO@Filename?5cannot?5be?5displayed?5on?5@ 10074cbc     LIBCMTD:wassert.obj
 0002:00006ce8       ??_C@_1IG@IGPDOJOE@?$AAs?$AAt?$AAr?$AAc?$AAp?$AAy?$AA_?$AAs?$AA?$CI?$AAa?$AAe?$AAx?$AAp?$AAr?$AA?0?$AA?5?$AA?$CI?$AA6?$AA0?$AA?5?$AA?$CK?$AA?5?$AA9?$AA?$CJ?$AA?0?$AA?5?$AA?$CC?$AAF?$AAi?$AAl?$AAe?$AAn@ 10074ce8     LIBCMTD:wassert.obj
 0002:00006d70       ??_C@_1EK@EDAIPDBP@?$AAs?$AAt?$AAr?$AAc?$AAa?$AAt?$AA_?$AAs?$AA?$CI?$AAa?$AAf?$AAi?$AAl?$AAe?$AAn?$AAa?$AAm?$AAe?$AA?0?$AA?5?$AA?$CI?$AA6?$AA0?$AA?5?$AA?$CK?$AA?5?$AA9?$AA?$CJ?$AA?0?$AA?5?$AA?$CC?$AA?4@ 10074d70     LIBCMTD:wassert.obj
 0002:00006dc0       ??_C@_1IK@MDEEAGJC@?$AAw?$AAc?$AAs?$AAt?$AAo?$AAm?$AAb?$AAs?$AA_?$AAs?$AA?$CI?$AA?$CI?$AA?$CI?$AAv?$AAo?$AAi?$AAd?$AA?5?$AA?$CK?$AA?$CJ?$AA0?$AA?$CJ?$AA?0?$AA?5?$AAa?$AAf?$AAi?$AAl?$AAe?$AAn?$AAa?$AAm@ 10074dc0     LIBCMTD:wassert.obj
 0002:00006e4c       ??_C@_0CI@FDIHEIE@Expression?5cannot?5be?5displayed?5o@ 10074e4c     LIBCMTD:wassert.obj
 0002:00006e78       ??_C@_1IK@ONGNJJEH@?$AAs?$AAt?$AAr?$AAc?$AAp?$AAy?$AA_?$AAs?$AA?$CI?$AAa?$AAe?$AAx?$AAp?$AAr?$AA?0?$AA?5?$AA?$CI?$AA6?$AA0?$AA?5?$AA?$CK?$AA?5?$AA9?$AA?$CJ?$AA?0?$AA?5?$AA?$CC?$AAE?$AAx?$AAp?$AAr?$AAe@ 10074e78     LIBCMTD:wassert.obj
 0002:00006f04       ??_C@_03KHICJKCI@?4?4?4?$AA@ 10074f04     LIBCMTD:wassert.obj
 0002:00006f08       ??_C@_1EC@IFDALDOK@?$AAs?$AAt?$AAr?$AAc?$AAa?$AAt?$AA_?$AAs?$AA?$CI?$AAa?$AAe?$AAx?$AAp?$AAr?$AA?0?$AA?5?$AA?$CI?$AA6?$AA0?$AA?5?$AA?$CK?$AA?5?$AA9?$AA?$CJ?$AA?0?$AA?5?$AA?$CC?$AA?4?$AA?4?$AA?4?$AA?$CC?$AA?$CJ@ 10074f08     LIBCMTD:wassert.obj
 0002:00006f50       ??_C@_1HK@ENOPLEGF@?$AAw?$AAc?$AAs?$AAt?$AAo?$AAm?$AAb?$AAs?$AA_?$AAs?$AA?$CI?$AA?$CI?$AA?$CI?$AAv?$AAo?$AAi?$AAd?$AA?5?$AA?$CK?$AA?$CJ?$AA0?$AA?$CJ?$AA?0?$AA?5?$AAa?$AAe?$AAx?$AAp?$AAr?$AA?0?$AA?5?$AA?$CI@ 10074f50     LIBCMTD:wassert.obj
 0002:00006fcc       ??_C@_1BC@LNOOMFNA@?$AA_?$AAw?$AAa?$AAs?$AAs?$AAe?$AAr?$AAt?$AA?$AA@ 10074fcc     LIBCMTD:wassert.obj
 0002:00006fe0       ??_C@_1GA@PJFCHOLB@?$AAf?$AA?3?$AA?2?$AAs?$AAp?$AA?2?$AAv?$AAc?$AAt?$AAo?$AAo?$AAl?$AAs?$AA?2?$AAc?$AAr?$AAt?$AA_?$AAb?$AAl?$AAd?$AA?2?$AAs?$AAe?$AAl?$AAf?$AA_?$AAx?$AA8?$AA6?$AA?2?$AAc@ 10074fe0     LIBCMTD:wassert.obj
 0002:00007040       ?ProcessDetach@NativeDll@<CrtImplementationDetails>@@0IB 10075040     LIBCMTD:trnsctrl.obj
 0002:00007044       ?ProcessAttach@NativeDll@<CrtImplementationDetails>@@0IB 10075044     LIBCMTD:trnsctrl.obj
 0002:00007048       ?ThreadAttach@NativeDll@<CrtImplementationDetails>@@0IB 10075048     LIBCMTD:trnsctrl.obj
 0002:0000704c       ?ThreadDetach@NativeDll@<CrtImplementationDetails>@@0IB 1007504c     LIBCMTD:trnsctrl.obj
 0002:00007050       ?ProcessVerifier@NativeDll@<CrtImplementationDetails>@@0IB 10075050     LIBCMTD:trnsctrl.obj
 0002:00007054       ??_C@_1CC@OLIJCKA@?$AA?$CI?$AAs?$AAt?$AAr?$AAi?$AAn?$AAg?$AA?5?$AA?$CB?$AA?$DN?$AA?5?$AAN?$AAU?$AAL?$AAL?$AA?$CJ?$AA?$AA@ 10075054     LIBCMTD:sprintf.obj
 0002:00007078       ??_C@_1BA@KBJJGFFE@?$AAs?$AAp?$AAr?$AAi?$AAn?$AAt?$AAf?$AA?$AA@ 10075078     LIBCMTD:sprintf.obj
 0002:00007088       ??_C@_1BE@BPBEAPLI@?$AAs?$AAp?$AAr?$AAi?$AAn?$AAt?$AAf?$AA?4?$AAc?$AA?$AA@ 10075088     LIBCMTD:sprintf.obj
 0002:0000709c       ??_C@_1CC@MGIEJOME@?$AA?$CI?$AAf?$AAo?$AAr?$AAm?$AAa?$AAt?$AA?5?$AA?$CB?$AA?$DN?$AA?5?$AAN?$AAU?$AAL?$AAL?$AA?$CJ?$AA?$AA@ 1007509c     LIBCMTD:sprintf.obj
 0002:000070c0       ??_C@_1CC@CGHMNGDG@?$AAA?$AAs?$AAs?$AAe?$AAr?$AAt?$AAi?$AAo?$AAn?$AA?5?$AAF?$AAa?$AAi?$AAl?$AAe?$AAd?$AA?$AA@ 100750c0     LIBCMTD:dbgrptw.obj
 0002:000070e4       ??_C@_1M@ILHOPKA@?$AAE?$AAr?$AAr?$AAo?$AAr?$AA?$AA@ 100750e4     LIBCMTD:dbgrptw.obj
 0002:000070f0       ??_C@_1BA@GLMCNLEM@?$AAW?$AAa?$AAr?$AAn?$AAi?$AAn?$AAg?$AA?$AA@ 100750f0     LIBCMTD:dbgrptw.obj
 0002:00007100       ??_C@_0DA@HAFNAKMA@f?3?2sp?2vctools?2crt_bld?2self_x86?2c@ 10075100     LIBCMTD:dbgrptw.obj
 0002:00007130       ??_C@_1FI@PHIAFFHM@?$AA?$CI?$AA?$CC?$AAT?$AAh?$AAe?$AA?5?$AAh?$AAo?$AAo?$AAk?$AA?5?$AAf?$AAu?$AAn?$AAc?$AAt?$AAi?$AAo?$AAn?$AA?5?$AAi?$AAs?$AA?5?$AAn?$AAo?$AAt?$AA?5?$AAi?$AAn?$AA?5?$AAt?$AAh@ 10075130     LIBCMTD:dbgrptw.obj
 0002:00007188       ??_C@_1CG@JBJEFOCM@?$AAp?$AAf?$AAn?$AAN?$AAe?$AAw?$AAH?$AAo?$AAo?$AAk?$AA?5?$AA?$CB?$AA?$DN?$AA?5?$AAN?$AAU?$AAL?$AAL?$AA?$AA@ 10075188     LIBCMTD:dbgrptw.obj
 0002:000071b0       ??_C@_1CI@IIHEAKEI@?$AA_?$AAC?$AAr?$AAt?$AAS?$AAe?$AAt?$AAR?$AAe?$AAp?$AAo?$AAr?$AAt?$AAH?$AAo?$AAo?$AAk?$AAW?$AA2?$AA?$AA@ 100751b0     LIBCMTD:dbgrptw.obj
 0002:000071d8       ??_C@_1GA@FGIMNHGA@?$AAf?$AA?3?$AA?2?$AAs?$AAp?$AA?2?$AAv?$AAc?$AAt?$AAo?$AAo?$AAl?$AAs?$AA?2?$AAc?$AAr?$AAt?$AA_?$AAb?$AAl?$AAd?$AA?2?$AAs?$AAe?$AAl?$AAf?$AA_?$AAx?$AA8?$AA6?$AA?2?$AAc@ 100751d8     LIBCMTD:dbgrptw.obj
 0002:00007238       ??_C@_1HI@OFEHGPPC@?$AAm?$AAo?$AAd?$AAe?$AA?5?$AA?$DN?$AA?$DN?$AA?5?$AA_?$AAC?$AAR?$AAT?$AA_?$AAR?$AAP?$AAT?$AAH?$AAO?$AAO?$AAK?$AA_?$AAI?$AAN?$AAS?$AAT?$AAA?$AAL?$AAL?$AA?5?$AA?$HM?$AA?$HM?$AA?5@ 10075238     LIBCMTD:dbgrptw.obj
 0002:000072b0       ??_C@_0DP@GNPEPHJD@_CrtDbgReport?3?5String?5too?5long?5o@ 100752b0     LIBCMTD:dbgrptw.obj
 0002:000072f0       ??_C@_1LI@CIHKNEBA@?$AAs?$AAt?$AAr?$AAc?$AAp?$AAy?$AA_?$AAs?$AA?$CI?$AAs?$AAz?$AAa?$AAF?$AAo?$AAr?$AAm?$AAa?$AAt?$AA?0?$AA?5?$AA4?$AA0?$AA9?$AA6?$AA?0?$AA?5?$AA?$CC?$AA_?$AAC?$AAr?$AAt?$AAD@ 100752f0     LIBCMTD:dbgrptw.obj
 0002:000073a8       ??_C@_1GO@BIBJILHL@?$AAw?$AAc?$AAs?$AAt?$AAo?$AAm?$AAb?$AAs?$AA_?$AAs?$AA?$CI?$AA0?$AA?0?$AA?5?$AAs?$AAz?$AAa?$AAF?$AAo?$AAr?$AAm?$AAa?$AAt?$AA?0?$AA?5?$AA4?$AA0?$AA9?$AA6?$AA?0?$AA?5?$AAs@ 100753a8     LIBCMTD:dbgrptw.obj
 0002:00007418       ??_C@_1IK@NOIOPCJD@?$AAs?$AAt?$AAr?$AAc?$AAp?$AAy?$AA_?$AAs?$AA?$CI?$AAs?$AAz?$AAa?$AAM?$AAo?$AAd?$AAu?$AAl?$AAe?$AA?0?$AA?5?$AA4?$AA0?$AA9?$AA6?$AA?0?$AA?5?$AA?$CC?$AAE?$AAx?$AAp?$AAr?$AAe@ 10075418     LIBCMTD:dbgrptw.obj
 0002:000074a8       ??_C@_1GO@EIJIKMJN@?$AAw?$AAc?$AAs?$AAt?$AAo?$AAm?$AAb?$AAs?$AA_?$AAs?$AA?$CI?$AA0?$AA?0?$AA?5?$AAs?$AAz?$AAa?$AAM?$AAo?$AAd?$AAu?$AAl?$AAe?$AA?0?$AA?5?$AA4?$AA0?$AA9?$AA6?$AA?0?$AA?5?$AAs@ 100754a8     LIBCMTD:dbgrptw.obj
 0002:00007518       ??_C@_1IG@KNLLJKPP@?$AAs?$AAt?$AAr?$AAc?$AAp?$AAy?$AA_?$AAs?$AA?$CI?$AAs?$AAz?$AAa?$AAF?$AAi?$AAl?$AAe?$AA?0?$AA?5?$AA4?$AA0?$AA9?$AA6?$AA?0?$AA?5?$AA?$CC?$AAE?$AAx?$AAp?$AAr?$AAe?$AAs?$AAs@ 10075518     LIBCMTD:dbgrptw.obj
 0002:000075a0       ??_C@_1DO@CNMELOIB@?$AAs?$AAt?$AAr?$AAc?$AAa?$AAt?$AA_?$AAs?$AA?$CI?$AAs?$AAz?$AAa?$AAF?$AAi?$AAl?$AAe?$AA?0?$AA?5?$AA4?$AA0?$AA9?$AA6?$AA?0?$AA?5?$AA?$CC?$AA?4?$AA?4?$AA?4?$AA?$CC?$AA?$CJ?$AA?$AA@ 100755a0     LIBCMTD:dbgrptw.obj
 0002:000075e0       ??_C@_1GG@OHDJJHOI@?$AAw?$AAc?$AAs?$AAt?$AAo?$AAm?$AAb?$AAs?$AA_?$AAs?$AA?$CI?$AA0?$AA?0?$AA?5?$AAs?$AAz?$AAa?$AAF?$AAi?$AAl?$AAe?$AA?0?$AA?5?$AA4?$AA0?$AA9?$AA6?$AA?0?$AA?5?$AAs?$AAz?$AAF@ 100755e0     LIBCMTD:dbgrptw.obj
 0002:00007648       ??_C@_1DK@NLBDKACM@?$AA_?$AAg?$AAe?$AAt?$AA_?$AAo?$AAs?$AAp?$AAl?$AAa?$AAt?$AAf?$AAo?$AAr?$AAm?$AA?$CI?$AA?$CG?$AAo?$AAs?$AAp?$AAl?$AAa?$AAt?$AAf?$AAo?$AAr?$AAm?$AA?$CJ?$AA?$AA@ 10075648     LIBCMTD:dbgrptw.obj
 0002:00007684       ??_C@_1CA@KLAOOAPJ@?$AA_?$AAC?$AAr?$AAt?$AAD?$AAb?$AAg?$AAR?$AAe?$AAp?$AAo?$AAr?$AAt?$AAW?$AAV?$AA?$AA@ 10075684     LIBCMTD:dbgrptw.obj
 0002:000076a8       ??_C@_1EG@PEOEAKBB@?$AAM?$AAi?$AAc?$AAr?$AAo?$AAs?$AAo?$AAf?$AAt?$AA?5?$AAV?$AAi?$AAs?$AAu?$AAa?$AAl?$AA?5?$AAC?$AA?$CL?$AA?$CL?$AA?5?$AAD?$AAe?$AAb?$AAu?$AAg?$AA?5?$AAL?$AAi?$AAb?$AAr?$AAa@ 100756a8     LIBCMTD:dbgrptw.obj
 0002:000076f0       ??_C@_1FG@BBOLDHGF@?$AA_?$AAC?$AAr?$AAt?$AAD?$AAb?$AAg?$AAR?$AAe?$AAp?$AAo?$AAr?$AAt?$AA?3?$AA?5?$AAS?$AAt?$AAr?$AAi?$AAn?$AAg?$AA?5?$AAt?$AAo?$AAo?$AA?5?$AAl?$AAo?$AAn?$AAg?$AA?5?$AAo@ 100756f0     LIBCMTD:dbgrptw.obj
 0002:00007748       ??_C@_1JI@EACPGHID@?$AAw?$AAc?$AAs?$AAc?$AAp?$AAy?$AA_?$AAs?$AA?$CI?$AAs?$AAz?$AAO?$AAu?$AAt?$AAM?$AAe?$AAs?$AAs?$AAa?$AAg?$AAe?$AA?0?$AA?5?$AA4?$AA0?$AA9?$AA6?$AA?0?$AA?5?$AAL?$AA?$CC?$AA_@ 10075748     LIBCMTD:dbgrptw.obj
 0002:000077e0       ??_C@_1BI@KALLJECN@?$AA?$CI?$AA?$CK?$AA_?$AAe?$AAr?$AAr?$AAn?$AAo?$AA?$CI?$AA?$CJ?$AA?$CJ?$AA?$AA@ 100757e0     LIBCMTD:dbgrptw.obj
 0002:000077f8       ??_C@_1KK@MEFMPOLM@?$AAD?$AAe?$AAb?$AAu?$AAg?$AA?5?$AA?$CF?$AAs?$AA?$CB?$AA?6?$AA?6?$AAP?$AAr?$AAo?$AAg?$AAr?$AAa?$AAm?$AA?3?$AA?5?$AA?$CF?$AAs?$AA?$CF?$AAs?$AA?$CF?$AAs?$AA?$CF?$AAs?$AA?$CF?$AAs?$AA?$CF?$AAs@ 100757f8     LIBCMTD:dbgrptw.obj
 0002:000078a4       ??_C@_1BE@CGCJKGHI@?$AA?6?$AAM?$AAo?$AAd?$AAu?$AAl?$AAe?$AA?3?$AA?5?$AA?$AA@ 100758a4     LIBCMTD:dbgrptw.obj
 0002:000078b8       ??_C@_1BA@LNHECFIM@?$AA?6?$AAF?$AAi?$AAl?$AAe?$AA?3?$AA?5?$AA?$AA@ 100758b8     LIBCMTD:dbgrptw.obj
 0002:000078c8       ??_C@_1BA@GLLGCPCK@?$AA?6?$AAL?$AAi?$AAn?$AAe?$AA?3?$AA?5?$AA?$AA@ 100758c8     LIBCMTD:dbgrptw.obj
 0002:000078d8       ??_C@_11LOCGONAA@?$AA?$AA@ 100758d8     LIBCMTD:dbgrptw.obj
 0002:000078e0       ??_C@_1OG@PMPPFHAF@?$AA?6?$AA?6?$AAF?$AAo?$AAr?$AA?5?$AAi?$AAn?$AAf?$AAo?$AAr?$AAm?$AAa?$AAt?$AAi?$AAo?$AAn?$AA?5?$AAo?$AAn?$AA?5?$AAh?$AAo?$AAw?$AA?5?$AAy?$AAo?$AAu?$AAr?$AA?5?$AAp?$AAr@ 100758e0     LIBCMTD:dbgrptw.obj
 0002:000079c8       ??_C@_1JM@GKDPCMEA@?$AAw?$AAc?$AAs?$AAn?$AAc?$AAp?$AAy?$AA_?$AAs?$AA?$CI?$AAs?$AAz?$AAS?$AAh?$AAo?$AAr?$AAt?$AAP?$AAr?$AAo?$AAg?$AAN?$AAa?$AAm?$AAe?$AA?0?$AA?5?$AA2?$AA6?$AA0?$AA?5?$AA?9@ 100759c8     LIBCMTD:dbgrptw.obj
 0002:00007a68       ??_C@_1GI@DEDNNLCI@?$AAw?$AAc?$AAs?$AAc?$AAp?$AAy?$AA_?$AAs?$AA?$CI?$AAs?$AAz?$AAE?$AAx?$AAe?$AAN?$AAa?$AAm?$AAe?$AA?0?$AA?5?$AA2?$AA6?$AA0?$AA?0?$AA?5?$AAL?$AA?$CC?$AA?$DM?$AAp?$AAr?$AAo?$AAg@ 10075a68     LIBCMTD:dbgrptw.obj
 0002:00007ad0       ??_C@_1CI@PGJIFDEK@?$AA_?$AA_?$AAc?$AAr?$AAt?$AAM?$AAe?$AAs?$AAs?$AAa?$AAg?$AAe?$AAW?$AAi?$AAn?$AAd?$AAo?$AAw?$AAW?$AA?$AA@ 10075ad0     LIBCMTD:dbgrptw.obj
 0002:00007b1c       ??_7type_info@@6B@         10075b1c     LIBCMTD:typinfo.obj
 0002:00007b24       ??_7exception@std@@6B@     10075b24     LIBCMTD:stdexcpt.obj
 0002:00007b2c       ??_C@_0BC@EOODALEL@Unknown?5exception?$AA@ 10075b2c     LIBCMTD:stdexcpt.obj
 0002:00007b44       ??_7bad_cast@std@@6B@      10075b44     LIBCMTD:stdexcpt.obj
 0002:00007b50       ??_7bad_typeid@std@@6B@    10075b50     LIBCMTD:stdexcpt.obj
 0002:00007b5c       ??_7__non_rtti_object@std@@6B@ 10075b5c     LIBCMTD:stdexcpt.obj
 0002:00007b64       ??_C@_1BG@NDCBABF@?$AAd?$AAb?$AAg?$AAd?$AAe?$AAl?$AA?4?$AAc?$AAp?$AAp?$AA?$AA@ 10075b64     LIBCMTD:dbgdel.obj
 0002:00007b80       ??_C@_1EO@LHDAJOCM@?$AA_?$AAB?$AAL?$AAO?$AAC?$AAK?$AA_?$AAT?$AAY?$AAP?$AAE?$AA_?$AAI?$AAS?$AA_?$AAV?$AAA?$AAL?$AAI?$AAD?$AA?$CI?$AAp?$AAH?$AAe?$AAa?$AAd?$AA?9?$AA?$DO?$AAn?$AAB?$AAl?$AAo@ 10075b80     LIBCMTD:dbgdel.obj
 0002:00007bd0       ??_C@_06PJIGMIJB@Client?$AA@ 10075bd0     LIBCMTD:dbgheap.obj
 0002:00007bd8       ??_C@_06KMEJCCGM@Ignore?$AA@ 10075bd8     LIBCMTD:dbgheap.obj
 0002:00007be0       ??_C@_03OGPFLFLO@CRT?$AA@  10075be0     LIBCMTD:dbgheap.obj
 0002:00007be4       ??_C@_06EFAGIKOH@Normal?$AA@ 10075be4     LIBCMTD:dbgheap.obj
 0002:00007bec       ??_C@_04HJMOFLDF@Free?$AA@ 10075bec     LIBCMTD:dbgheap.obj
 0002:00007c08       ??_C@_0DC@JEMAGEKG@Error?3?5memory?5allocation?3?5bad?5me@ 10075c08     LIBCMTD:dbgheap.obj
 0002:00007c3c       ??_C@_0CF@BICKFLAF@Invalid?5allocation?5size?3?5?$CFIu?5byt@ 10075c3c     LIBCMTD:dbgheap.obj
 0002:00007c64       ??_C@_02DKCKIIND@?$CFs?$AA@ 10075c64     LIBCMTD:dbgheap.obj
 0002:00007c68       ??_C@_0CB@CCLOLAHO@Client?5hook?5allocation?5failure?4?6@ 10075c68     LIBCMTD:dbgheap.obj
 0002:00007c8c       ??_C@_0DF@BBEGIFEK@Client?5hook?5allocation?5failure?5a@ 10075c8c     LIBCMTD:dbgheap.obj
 0002:00007cc4       ??_C@_1BE@DOFBOBGF@?$AAd?$AAb?$AAg?$AAh?$AAe?$AAa?$AAp?$AA?4?$AAc?$AA?$AA@ 10075cc4     LIBCMTD:dbgheap.obj
 0002:00007cd8       ??_C@_1CE@LJFEPPMP@?$AA_?$AAC?$AAr?$AAt?$AAC?$AAh?$AAe?$AAc?$AAk?$AAM?$AAe?$AAm?$AAo?$AAr?$AAy?$AA?$CI?$AA?$CJ?$AA?$AA@ 10075cd8     LIBCMTD:dbgheap.obj
 0002:00007cfc       ??_C@_1BI@MIPBBENM@?$AA_?$AAc?$AAa?$AAl?$AAl?$AAo?$AAc?$AA_?$AAd?$AAb?$AAg?$AA?$AA@ 10075cfc     LIBCMTD:dbgheap.obj
 0002:00007d14       ??_C@_1DO@MEOGCGBN@?$AA?$CI?$AA_?$AAH?$AAE?$AAA?$AAP?$AA_?$AAM?$AAA?$AAX?$AAR?$AAE?$AAQ?$AA?5?$AA?1?$AA?5?$AAn?$AAN?$AAu?$AAm?$AA?$CJ?$AA?5?$AA?$DO?$AA?$DN?$AA?5?$AAn?$AAS?$AAi?$AAz?$AAe?$AA?$AA@ 10075d14     LIBCMTD:dbgheap.obj
 0002:00007d54       ??_C@_1DE@KOOKLFBB@?$AA_?$AAp?$AAF?$AAi?$AAr?$AAs?$AAt?$AAB?$AAl?$AAo?$AAc?$AAk?$AA?5?$AA?$DN?$AA?$DN?$AA?5?$AAp?$AAO?$AAl?$AAd?$AAB?$AAl?$AAo?$AAc?$AAk?$AA?$AA@ 10075d54     LIBCMTD:dbgheap.obj
 0002:00007d88       ??_C@_1DC@GEFKNOOL@?$AA_?$AAp?$AAL?$AAa?$AAs?$AAt?$AAB?$AAl?$AAo?$AAc?$AAk?$AA?5?$AA?$DN?$AA?$DN?$AA?5?$AAp?$AAO?$AAl?$AAd?$AAB?$AAl?$AAo?$AAc?$AAk?$AA?$AA@ 10075d88     LIBCMTD:dbgheap.obj
 0002:00007dc0       ??_C@_1GE@PCKLOLAO@?$AAf?$AAR?$AAe?$AAa?$AAl?$AAl?$AAo?$AAc?$AA?5?$AA?$HM?$AA?$HM?$AA?5?$AA?$CI?$AA?$CB?$AAf?$AAR?$AAe?$AAa?$AAl?$AAl?$AAo?$AAc?$AA?5?$AA?$CG?$AA?$CG?$AA?5?$AAp?$AAN?$AAe?$AAw?$AAB?$AAl@ 10075dc0     LIBCMTD:dbgheap.obj
 0002:00007e28       ??_C@_1IK@DCPKDGNH@?$AAp?$AAO?$AAl?$AAd?$AAB?$AAl?$AAo?$AAc?$AAk?$AA?9?$AA?$DO?$AAn?$AAL?$AAi?$AAn?$AAe?$AA?5?$AA?$DN?$AA?$DN?$AA?5?$AAI?$AAG?$AAN?$AAO?$AAR?$AAE?$AA_?$AAL?$AAI?$AAN?$AAE?$AA?5@ 10075e28     LIBCMTD:dbgheap.obj
 0002:00007eb8       ??_C@_1EE@GFOPCECE@?$AA_?$AAC?$AAr?$AAt?$AAI?$AAs?$AAV?$AAa?$AAl?$AAi?$AAd?$AAH?$AAe?$AAa?$AAp?$AAP?$AAo?$AAi?$AAn?$AAt?$AAe?$AAr?$AA?$CI?$AAp?$AAU?$AAs?$AAe?$AAr?$AAD?$AAa?$AAt?$AAa@ 10075eb8     LIBCMTD:dbgheap.obj
 0002:00007f00       ??_C@_0EM@LGFLMAGJ@The?5Block?5at?50x?$CFp?5was?5allocated?5@ 10075f00     LIBCMTD:dbgheap.obj
 0002:00007f50       ??_C@_0FA@EFEIGJKG@Error?3?5memory?5allocation?3?5bad?5me@ 10075f50     LIBCMTD:dbgheap.obj
 0002:00007fa0       ??_C@_0ED@GPCPBAGP@Invalid?5allocation?5size?3?5?$CFIu?5byt@ 10075fa0     LIBCMTD:dbgheap.obj
 0002:00007fe4       ??_C@_0CE@DOFMDOL@Client?5hook?5re?9allocation?5failur@ 10075fe4     LIBCMTD:dbgheap.obj
 0002:00008008       ??_C@_0DI@KKJPDPGM@Client?5hook?5re?9allocation?5failur@ 10076008     LIBCMTD:dbgheap.obj
 0002:00008040       ??_C@_1BM@OKFKJCEN@?$AA_?$AAr?$AAe?$AAc?$AAa?$AAl?$AAl?$AAo?$AAc?$AA_?$AAd?$AAb?$AAg?$AA?$AA@ 10076040     LIBCMTD:dbgheap.obj
 0002:0000805c       ??_C@_1DO@GOKJCEHJ@?$AA?$CI?$AA_?$AAH?$AAE?$AAA?$AAP?$AA_?$AAM?$AAA?$AAX?$AAR?$AAE?$AAQ?$AA?5?$AA?1?$AA?5?$AAc?$AAo?$AAu?$AAn?$AAt?$AA?$CJ?$AA?5?$AA?$DO?$AA?$DN?$AA?5?$AAs?$AAi?$AAz?$AAe?$AA?$AA@ 1007605c     LIBCMTD:dbgheap.obj
 0002:0000809c       ??_C@_1BI@HAPNGHDP@?$AA_?$AAe?$AAx?$AAp?$AAa?$AAn?$AAd?$AA_?$AAd?$AAb?$AAg?$AA?$AA@ 1007609c     LIBCMTD:dbgheap.obj
 0002:000080b4       ??_C@_1CE@CJACEFBA@?$AAp?$AAU?$AAs?$AAe?$AAr?$AAD?$AAa?$AAt?$AAa?$AA?5?$AA?$CB?$AA?$DN?$AA?5?$AAN?$AAU?$AAL?$AAL?$AA?$AA@ 100760b4     LIBCMTD:dbgheap.obj
 0002:000080d8       ??_C@_1CM@MMAADDMD@?$AA_?$AAp?$AAF?$AAi?$AAr?$AAs?$AAt?$AAB?$AAl?$AAo?$AAc?$AAk?$AA?5?$AA?$DN?$AA?$DN?$AA?5?$AAp?$AAH?$AAe?$AAa?$AAd?$AA?$AA@ 100760d8     LIBCMTD:dbgheap.obj
 0002:00008104       ??_C@_1CK@DMAGEMBG@?$AA_?$AAp?$AAL?$AAa?$AAs?$AAt?$AAB?$AAl?$AAo?$AAc?$AAk?$AA?5?$AA?$DN?$AA?$DN?$AA?5?$AAp?$AAH?$AAe?$AAa?$AAd?$AA?$AA@ 10076104     LIBCMTD:dbgheap.obj
 0002:00008130       ??_C@_1DM@ODCJIDCP@?$AAp?$AAH?$AAe?$AAa?$AAd?$AA?9?$AA?$DO?$AAn?$AAB?$AAl?$AAo?$AAc?$AAk?$AAU?$AAs?$AAe?$AA?5?$AA?$DN?$AA?$DN?$AA?5?$AAn?$AAB?$AAl?$AAo?$AAc?$AAk?$AAU?$AAs?$AAe?$AA?$AA@ 10076130     LIBCMTD:dbgheap.obj
 0002:00008170       ??_C@_1HK@HPCBMDFG@?$AAp?$AAH?$AAe?$AAa?$AAd?$AA?9?$AA?$DO?$AAn?$AAL?$AAi?$AAn?$AAe?$AA?5?$AA?$DN?$AA?$DN?$AA?5?$AAI?$AAG?$AAN?$AAO?$AAR?$AAE?$AA_?$AAL?$AAI?$AAN?$AAE?$AA?5?$AA?$CG?$AA?$CG?$AA?5?$AAp@ 10076170     LIBCMTD:dbgheap.obj
 0002:000081f0       ??_C@_0IG@LEMBDCJK@HEAP?5CORRUPTION?5DETECTED?3?5after?5@ 100761f0     LIBCMTD:dbgheap.obj
 0002:00008278       ??_C@_0KE@MBMNHHHN@HEAP?5CORRUPTION?5DETECTED?3?5after?5@ 10076278     LIBCMTD:dbgheap.obj
 0002:00008320       ??_C@_0IK@PJCGLBOB@HEAP?5CORRUPTION?5DETECTED?3?5before@ 10076320     LIBCMTD:dbgheap.obj
 0002:000083b0       ??_C@_0KI@JGFOHMEB@HEAP?5CORRUPTION?5DETECTED?3?5before@ 100763b0     LIBCMTD:dbgheap.obj
 0002:00008458       ??_C@_0BL@KEIPLFAC@Client?5hook?5free?5failure?4?6?$AA@ 10076458     LIBCMTD:dbgheap.obj
 0002:00008478       ??_C@_0EJ@HEIBCIMJ@The?5Block?5at?50x?$CFp?5was?5allocated?5@ 10076478     LIBCMTD:dbgheap.obj
 0002:000084c4       ??_C@_1BG@MBKOGDLD@?$AA_?$AAm?$AAs?$AAi?$AAz?$AAe?$AA_?$AAd?$AAb?$AAg?$AA?$AA@ 100764c4     LIBCMTD:dbgheap.obj
 0002:000084dc       ??_C@_0CI@JMLBEDHJ@?$CFhs?5located?5at?50x?$CFp?5is?5?$CFIu?5bytes@ 100764dc     LIBCMTD:dbgheap.obj
 0002:00008508       ??_C@_0EG@DGJMPDBH@?$CFhs?5located?5at?50x?$CFp?5is?5?$CFIu?5bytes@ 10076508     LIBCMTD:dbgheap.obj
 0002:00008550       ??_C@_0IC@BBJIOOJH@HEAP?5CORRUPTION?5DETECTED?3?5on?5top@ 10076550     LIBCMTD:dbgheap.obj
 0002:000085d8       ??_C@_0KA@IHNJJKPL@HEAP?5CORRUPTION?5DETECTED?3?5on?5top@ 100765d8     LIBCMTD:dbgheap.obj
 0002:00008678       ??_C@_07OHKEFPKJ@DAMAGED?$AA@ 10076678     LIBCMTD:dbgheap.obj
 0002:00008680       ??_C@_0CL@HNNNMKMJ@_heapchk?5fails?5with?5unknown?5retu@ 10076680     LIBCMTD:dbgheap.obj
 0002:000086ac       ??_C@_0CC@MFFCHFHO@_heapchk?5fails?5with?5_HEAPBADPTR?4@ 100766ac     LIBCMTD:dbgheap.obj
 0002:000086d0       ??_C@_0CC@MJGLGBDG@_heapchk?5fails?5with?5_HEAPBADEND?4@ 100766d0     LIBCMTD:dbgheap.obj
 0002:000086f4       ??_C@_0CD@CPKEAPBD@_heapchk?5fails?5with?5_HEAPBADNODE@ 100766f4     LIBCMTD:dbgheap.obj
 0002:00008718       ??_C@_0CE@MKKHMBMK@_heapchk?5fails?5with?5_HEAPBADBEGI@ 10076718     LIBCMTD:dbgheap.obj
 0002:0000873c       ??_C@_1BO@GJFDNMNF@?$AA_?$AAC?$AAr?$AAt?$AAS?$AAe?$AAt?$AAD?$AAb?$AAg?$AAF?$AAl?$AAa?$AAg?$AA?$AA@ 1007673c     LIBCMTD:dbgheap.obj
 0002:00008760       ??_C@_1BHO@NNANJNF@?$AA?$CI?$AAf?$AAN?$AAe?$AAw?$AAB?$AAi?$AAt?$AAs?$AA?$DN?$AA?$DN?$AA_?$AAC?$AAR?$AAT?$AAD?$AAB?$AAG?$AA_?$AAR?$AAE?$AAP?$AAO?$AAR?$AAT?$AA_?$AAF?$AAL?$AAA?$AAG?$AA?$CJ?$AA?5@ 10076760     LIBCMTD:dbgheap.obj
 0002:000088e0       ??_C@_1DE@GJCKCKEC@?$AA_?$AAC?$AAr?$AAt?$AAD?$AAo?$AAF?$AAo?$AAr?$AAA?$AAl?$AAl?$AAC?$AAl?$AAi?$AAe?$AAn?$AAt?$AAO?$AAb?$AAj?$AAe?$AAc?$AAt?$AAs?$AA?$AA@ 100768e0     LIBCMTD:dbgheap.obj
 0002:00008914       ??_C@_1BI@CJGCEEDL@?$AAp?$AAf?$AAn?$AA?5?$AA?$CB?$AA?$DN?$AA?5?$AAN?$AAU?$AAL?$AAL?$AA?$AA@ 10076914     LIBCMTD:dbgheap.obj
 0002:0000892c       ??_C@_1CG@DGPPLLPG@?$AA_?$AAg?$AAe?$AAt?$AA_?$AAo?$AAs?$AAv?$AAe?$AAr?$AA?$CI?$AA?$CG?$AAo?$AAs?$AAv?$AAe?$AAr?$AA?$CJ?$AA?$AA@ 1007692c     LIBCMTD:dbgheap.obj
 0002:00008954       ??_C@_1CO@JHPAACDJ@?$AA_?$AAC?$AAr?$AAt?$AAI?$AAs?$AAV?$AAa?$AAl?$AAi?$AAd?$AAH?$AAe?$AAa?$AAp?$AAP?$AAo?$AAi?$AAn?$AAt?$AAe?$AAr?$AA?$AA@ 10076954     LIBCMTD:dbgheap.obj
 0002:00008984       ??_C@_0CB@EAAIGELO@Bad?5memory?5block?5found?5at?50x?$CFp?4?6@ 10076984     LIBCMTD:dbgheap.obj
 0002:000089a8       ??_C@_0DP@LEFMFBOD@Bad?5memory?5block?5found?5at?50x?$CFp?4?6@ 100769a8     LIBCMTD:dbgheap.obj
 0002:000089e8       ??_C@_1CE@NJJKELF@?$AA_?$AAC?$AAr?$AAt?$AAM?$AAe?$AAm?$AAC?$AAh?$AAe?$AAc?$AAk?$AAp?$AAo?$AAi?$AAn?$AAt?$AA?$AA@ 100769e8     LIBCMTD:dbgheap.obj
 0002:00008a0c       ??_C@_1BM@MIMANDHC@?$AAs?$AAt?$AAa?$AAt?$AAe?$AA?5?$AA?$CB?$AA?$DN?$AA?5?$AAN?$AAU?$AAL?$AAL?$AA?$AA@ 10076a0c     LIBCMTD:dbgheap.obj
 0002:00008a28       ??_C@_1CC@DFPEDFBP@?$AAn?$AAe?$AAw?$AAS?$AAt?$AAa?$AAt?$AAe?$AA?5?$AA?$CB?$AA?$DN?$AA?5?$AAN?$AAU?$AAL?$AAL?$AA?$AA@ 10076a28     LIBCMTD:dbgheap.obj
 0002:00008a4c       ??_C@_1CC@DHPFEMMN@?$AAo?$AAl?$AAd?$AAS?$AAt?$AAa?$AAt?$AAe?$AA?5?$AA?$CB?$AA?$DN?$AA?5?$AAN?$AAU?$AAL?$AAL?$AA?$AA@ 10076a4c     LIBCMTD:dbgheap.obj
 0002:00008a70       ??_C@_1CE@PDIENACM@?$AA_?$AAC?$AAr?$AAt?$AAM?$AAe?$AAm?$AAD?$AAi?$AAf?$AAf?$AAe?$AAr?$AAe?$AAn?$AAc?$AAe?$AA?$AA@ 10076a70     LIBCMTD:dbgheap.obj
 0002:00008a94       ??_C@_0BH@GFGKJDCO@Object?5dump?5complete?4?6?$AA@ 10076a94     LIBCMTD:dbgheap.obj
 0002:00008aac       ??_C@_0DA@MDLBNIBM@crt?5block?5at?50x?$CFp?0?5subtype?5?$CFx?0?5?$CF@ 10076aac     LIBCMTD:dbgheap.obj
 0002:00008adc       ??_C@_0CH@FAGDDGPN@normal?5block?5at?50x?$CFp?0?5?$CFIu?5bytes?5@ 10076adc     LIBCMTD:dbgheap.obj
 0002:00008b04       ??_C@_0DD@GHNAAKBB@client?5block?5at?50x?$CFp?0?5subtype?5?$CFx@ 10076b04     LIBCMTD:dbgheap.obj
 0002:00008b38       ??_C@_06PKLGBFGM@?$HL?$CFld?$HN?5?$AA@ 10076b38     LIBCMTD:dbgheap.obj
 0002:00008b40       ??_C@_0L@JMEFFCCJ@?$CFhs?$CI?$CFd?$CJ?5?3?5?$AA@ 10076b40     LIBCMTD:dbgheap.obj
 0002:00008b4c       ??_C@_0BE@OIEFNFL@?$CDFile?5Error?$CD?$CI?$CFd?$CJ?5?3?5?$AA@ 10076b4c     LIBCMTD:dbgheap.obj
 0002:00008b60       ??_C@_0BE@KCIPKCIA@Dumping?5objects?5?9?$DO?6?$AA@ 10076b60     LIBCMTD:dbgheap.obj
 0002:00008b74       ??_C@_0BA@HJBKCELP@?5Data?3?5?$DM?$CFs?$DO?5?$CFs?6?$AA@ 10076b74     LIBCMTD:dbgheap.obj
 0002:00008b84       ??_C@_1CG@LPFIACGM@?$AA_?$AAp?$AAr?$AAi?$AAn?$AAt?$AAM?$AAe?$AAm?$AAB?$AAl?$AAo?$AAc?$AAk?$AAD?$AAa?$AAt?$AAa?$AA?$AA@ 10076b84     LIBCMTD:dbgheap.obj
 0002:00008bac       ??_C@_05MKKEDADM@?$CF?42X?5?$AA@ 10076bac     LIBCMTD:dbgheap.obj
 0002:00008bb4       ??_C@_0BI@JBFPOEJA@Detected?5memory?5leaks?$CB?6?$AA@ 10076bb4     LIBCMTD:dbgheap.obj
 0002:00008bcc       ??_C@_0BP@DEDHGGGI@Total?5allocations?3?5?$CFId?5bytes?4?6?$AA@ 10076bcc     LIBCMTD:dbgheap.obj
 0002:00008bec       ??_C@_0CB@BLHDAFNE@Largest?5number?5used?3?5?$CFId?5bytes?4?6@ 10076bec     LIBCMTD:dbgheap.obj
 0002:00008c10       ??_C@_0BO@DACNIABB@?$CFId?5bytes?5in?5?$CFId?5?$CFhs?5Blocks?4?6?$AA@ 10076c10     LIBCMTD:dbgheap.obj
 0002:00008c30       ??_C@_1CM@MPNIBKGK@?$AA_?$AAC?$AAr?$AAt?$AAM?$AAe?$AAm?$AAD?$AAu?$AAm?$AAp?$AAS?$AAt?$AAa?$AAt?$AAi?$AAs?$AAt?$AAi?$AAc?$AAs?$AA?$AA@ 10076c30     LIBCMTD:dbgheap.obj
 0002:00008c5c       ??_C@_1DK@LFLKFPDA@?$AAo?$AAf?$AAf?$AAs?$AAe?$AAt?$AA?5?$AA?$DN?$AA?$DN?$AA?5?$AA0?$AA?5?$AA?$HM?$AA?$HM?$AA?5?$AAo?$AAf?$AAf?$AAs?$AAe?$AAt?$AA?5?$AA?$DM?$AA?5?$AAs?$AAi?$AAz?$AAe?$AA?$AA@ 10076c5c     LIBCMTD:dbgheap.obj
 0002:00008c98       ??_C@_1DG@DONCJBBJ@?$AA_?$AAa?$AAl?$AAi?$AAg?$AAn?$AAe?$AAd?$AA_?$AAo?$AAf?$AAf?$AAs?$AAe?$AAt?$AA_?$AAm?$AAa?$AAl?$AAl?$AAo?$AAc?$AA_?$AAd?$AAb?$AAg?$AA?$AA@ 10076c98     LIBCMTD:dbgheap.obj
 0002:00008cd0       ??_C@_1CE@NPMGPNNP@?$AAI?$AAS?$AA_?$AA2?$AA_?$AAP?$AAO?$AAW?$AA_?$AAN?$AA?$CI?$AAa?$AAl?$AAi?$AAg?$AAn?$AA?$CJ?$AA?$AA@ 10076cd0     LIBCMTD:dbgheap.obj
 0002:00008cf4       ??_C@_1DI@NINIKFFK@?$AA_?$AAa?$AAl?$AAi?$AAg?$AAn?$AAe?$AAd?$AA_?$AAo?$AAf?$AAf?$AAs?$AAe?$AAt?$AA_?$AAr?$AAe?$AAa?$AAl?$AAl?$AAo?$AAc?$AA_?$AAd?$AAb?$AAg?$AA?$AA@ 10076cf4     LIBCMTD:dbgheap.obj
 0002:00008d2c       ??_C@_0DL@PGHMMKNE@Damage?5before?50x?$CFp?5which?5was?5all@ 10076d2c     LIBCMTD:dbgheap.obj
 0002:00008d68       ??_C@_0EI@NDNJMAJK@The?5block?5at?50x?$CFp?5was?5not?5alloca@ 10076d68     LIBCMTD:dbgheap.obj
 0002:00008db0       ??_C@_1DK@MMLHIFFH@?$AA_?$AAa?$AAl?$AAi?$AAg?$AAn?$AAe?$AAd?$AA_?$AAo?$AAf?$AAf?$AAs?$AAe?$AAt?$AA_?$AAr?$AAe?$AAc?$AAa?$AAl?$AAl?$AAo?$AAc?$AA_?$AAd?$AAb?$AAg?$AA?$AA@ 10076db0     LIBCMTD:dbgheap.obj
 0002:00008df0       ??_C@_0EF@PGELACII@The?5block?5at?50x?$CFp?5was?5not?5alloca@ 10076df0     LIBCMTD:dbgheap.obj
 0002:00008e38       ??_C@_1CG@CEGMHIMN@?$AA_?$AAa?$AAl?$AAi?$AAg?$AAn?$AAe?$AAd?$AA_?$AAm?$AAs?$AAi?$AAz?$AAe?$AA_?$AAd?$AAb?$AAg?$AA?$AA@ 10076e38     LIBCMTD:dbgheap.obj
 0002:00008e60       ??_C@_1CC@MOBIKHH@?$AAm?$AAe?$AAm?$AAb?$AAl?$AAo?$AAc?$AAk?$AA?5?$AA?$CB?$AA?$DN?$AA?5?$AAN?$AAU?$AAL?$AAL?$AA?$AA@ 10076e60     LIBCMTD:dbgheap.obj
 0002:00008e84       ??_C@_1CK@DDKKOLAN@?$AAs?$AAi?$AAz?$AAe?$AAI?$AAn?$AAB?$AAy?$AAt?$AAe?$AAs?$AA?5?$AA?$DO?$AA?$DN?$AA?5?$AAc?$AAo?$AAu?$AAn?$AAt?$AA?$AA@ 10076e84     LIBCMTD:memcpy_s.obj
 0002:00008eb0       ??_C@_1BI@DCHLDCPP@?$AAs?$AAr?$AAc?$AA?5?$AA?$CB?$AA?$DN?$AA?5?$AAN?$AAU?$AAL?$AAL?$AA?$AA@ 10076eb0     LIBCMTD:memcpy_s.obj
 0002:00008ec8       ??_C@_1BC@GKHDJMGB@?$AAm?$AAe?$AAm?$AAc?$AAp?$AAy?$AA_?$AAs?$AA?$AA@ 10076ec8     LIBCMTD:memcpy_s.obj
 0002:00008edc       ??_C@_1BG@MKNDEPCK@?$AAm?$AAe?$AAm?$AAc?$AAp?$AAy?$AA_?$AAs?$AA?4?$AAc?$AA?$AA@ 10076edc     LIBCMTD:memcpy_s.obj
 0002:00008ef4       ??_C@_1BI@GKKCBDMD@?$AAd?$AAs?$AAt?$AA?5?$AA?$CB?$AA?$DN?$AA?5?$AAN?$AAU?$AAL?$AAL?$AA?$AA@ 10076ef4     LIBCMTD:memcpy_s.obj
 0002:00008f0c       ??_C@_1BE@NMKKBGPA@?$AAm?$AAe?$AAm?$AAm?$AAo?$AAv?$AAe?$AA_?$AAs?$AA?$AA@ 10076f0c     LIBCMTD:memmove_s.obj
 0002:00008f20       ??_C@_1BI@FBHFDPFC@?$AAm?$AAe?$AAm?$AAm?$AAo?$AAv?$AAe?$AA_?$AAs?$AA?4?$AAc?$AA?$AA@ 10076f20     LIBCMTD:memmove_s.obj
 0002:00008f38       __pDefaultRawDllMain       10076f38     LIBCMTD:dllcrt0.obj
 0002:00008f38       __pRawDllMain              10076f38     LIBCMTD:dllcrt0.obj
 0002:00008f3c       ??_C@_09IFKEODFF@dllcrt0?4c?$AA@ 10076f3c     LIBCMTD:dllcrt0.obj
 0002:00008f48       ??_C@_1DG@HNFLKIMM@?$AA?$CI?$AAs?$AAi?$AAz?$AAe?$AA_?$AAt?$AA?$CJ?$AAn?$AAd?$AAe?$AAc?$AA?5?$AA?$DM?$AA?5?$AAs?$AAi?$AAz?$AAe?$AAI?$AAn?$AAC?$AAh?$AAa?$AAr?$AAs?$AA?$AA@ 10076f48     LIBCMTD:gcvt.obj
 0002:00008f80       ??_C@_1CA@DJILHLNF@?$AAs?$AAi?$AAz?$AAe?$AAI?$AAn?$AAC?$AAh?$AAa?$AAr?$AAs?$AA?5?$AA?$DO?$AA?5?$AA0?$AA?$AA@ 10076f80     LIBCMTD:gcvt.obj
 0002:00008fa0       ??_C@_1BA@LEDEFPAA@?$AA_?$AAg?$AAc?$AAv?$AAt?$AA_?$AAs?$AA?$AA@ 10076fa0     LIBCMTD:gcvt.obj
 0002:00008fb0       ??_C@_1O@FPOAELDH@?$AAg?$AAc?$AAv?$AAt?$AA?4?$AAc?$AA?$AA@ 10076fb0     LIBCMTD:gcvt.obj
 0002:00008fc0       ??_C@_1BI@ICGGMGLK@?$AAb?$AAu?$AAf?$AA?5?$AA?$CB?$AA?$DN?$AA?5?$AAN?$AAU?$AAL?$AAL?$AA?$AA@ 10076fc0     LIBCMTD:gcvt.obj
 0002:00008fd8       __FPinit                   10076fd8     LIBCMTD:fpinit.obj
 0002:00008fdc       __FPmtinit                 10076fdc     LIBCMTD:fpinit.obj
 0002:00008fe0       __FPmtterm                 10076fe0     LIBCMTD:fpinit.obj
 0002:00008fe8       ??_C@_1FE@CEHLKAHD@?$AAi?$AAb?$AAa?$AAs?$AAe?$AA?5?$AA?$DN?$AA?$DN?$AA?5?$AA0?$AA?5?$AA?$HM?$AA?$HM?$AA?5?$AA?$CI?$AA2?$AA?5?$AA?$DM?$AA?$DN?$AA?5?$AAi?$AAb?$AAa?$AAs?$AAe?$AA?5?$AA?$CG?$AA?$CG?$AA?5?$AAi?$AAb?$AAa@ 10076fe8     LIBCMTD:strtol.obj
 0002:0000903c       ??_C@_1BA@LOLAMAJG@?$AAs?$AAt?$AAr?$AAt?$AAo?$AAx?$AAl?$AA?$AA@ 1007703c     LIBCMTD:strtol.obj
 0002:0000904c       ??_C@_1BC@CPINJNMH@?$AAs?$AAt?$AAr?$AAt?$AAo?$AAl?$AA?4?$AAc?$AA?$AA@ 1007704c     LIBCMTD:strtol.obj
 0002:00009060       ??_C@_1BK@LAOAACLJ@?$AAn?$AAp?$AAt?$AAr?$AA?5?$AA?$CB?$AA?$DN?$AA?5?$AAN?$AAU?$AAL?$AAL?$AA?$AA@ 10077060     LIBCMTD:strtol.obj
 0002:00009080       __real@0000000000000000    10077080     LIBCMTD:strtod.obj
 0002:00009088       ??_C@_1BE@KFBKGHJC@?$AA_?$AAs?$AAt?$AAr?$AAt?$AAo?$AAd?$AA_?$AAl?$AA?$AA@ 10077088     LIBCMTD:strtod.obj
 0002:0000909c       ??_C@_1BC@PMGIIGHC@?$AAs?$AAt?$AAr?$AAt?$AAo?$AAd?$AA?4?$AAc?$AA?$AA@ 1007709c     LIBCMTD:strtod.obj
 0002:000090b0       ??_C@_0BO@GNIAFIKK@Unknown?5Runtime?5Check?5Error?6?$AN?$AA@ 100770b0     LIBCMTD:error.obj
 0002:000090d0       ??_C@_0CM@NGINOKPC@Stack?5memory?5around?5_alloca?5was?5@ 100770d0     LIBCMTD:error.obj
 0002:000090fc       ??_C@_0DG@HKJMLLLP@A?5local?5variable?5was?5used?5before@ 100770fc     LIBCMTD:error.obj
 0002:00009134       ??_C@_0BN@FFOINMNJ@Stack?5memory?5was?5corrupted?6?$AN?$AA@ 10077134     LIBCMTD:error.obj
 0002:00009158       ??_C@_0BBN@GPMLNJCF@A?5cast?5to?5a?5smaller?5data?5type?5ha@ 10077158     LIBCMTD:error.obj
 0002:00009278       ??_C@_0NN@NGPKDKPD@The?5value?5of?5ESP?5was?5not?5properl@ 10077278     LIBCMTD:error.obj
 0002:000093dc       ??_C@_0CA@IODNCDPG@Run?9Time?5Check?5Failure?5?$CD?$CFd?5?9?5?$CFs?$AA@ 100773dc     LIBCMTD:error.obj
 0002:000093fc       ??_C@_0BE@GNBOBNCK@Unknown?5Module?5Name?$AA@ 100773fc     LIBCMTD:error.obj
 0002:00009410       ??_C@_0BB@PFFGGCJP@Unknown?5Filename?$AA@ 10077410     LIBCMTD:error.obj
 0002:00009428       ??_C@_1EA@NFKNIFJP@?$AAR?$AAu?$AAn?$AA?9?$AAT?$AAi?$AAm?$AAe?$AA?5?$AAC?$AAh?$AAe?$AAc?$AAk?$AA?5?$AAF?$AAa?$AAi?$AAl?$AAu?$AAr?$AAe?$AA?5?$AA?$CD?$AA?$CF?$AAd?$AA?5?$AA?9?$AA?5?$AA?$CF?$AAs?$AA?$AA@ 10077428     LIBCMTD:error.obj
 0002:00009468       ??_C@_1GM@OLMCBDMB@?$AAR?$AAu?$AAn?$AAt?$AAi?$AAm?$AAe?$AA?5?$AAC?$AAh?$AAe?$AAc?$AAk?$AA?5?$AAE?$AAr?$AAr?$AAo?$AAr?$AA?4?$AA?6?$AA?$AN?$AA?5?$AAU?$AAn?$AAa?$AAb?$AAl?$AAe?$AA?5?$AAt?$AAo@ 10077468     LIBCMTD:error.obj
 0002:000094d4       ??_C@_0CG@IAFNJNEE@Stack?5corrupted?5near?5unknown?5var@ 100774d4     LIBCMTD:error.obj
 0002:00009500       ??_C@_0EJ@LJKNEOLN@Stack?5area?5around?5_alloca?5memory@ 10077500     LIBCMTD:error.obj
 0002:0000954c       ??_C@_02LLMPMKNF@?$DO?5?$AA@ 1007754c     LIBCMTD:error.obj
 0002:00009550       ??_C@_01EEMJAFIK@?6?$AA@   10077550     LIBCMTD:error.obj
 0002:00009554       ??_C@_0BC@KIBAILCI@?$CFs?$CFs?$CFp?$CFs?$CFld?$CFs?$CFd?$CFs?$AA@ 10077554     LIBCMTD:error.obj
 0002:00009568       ??_C@_0EI@CLEPFNGI@Stack?5area?5around?5_alloca?5memory@ 10077568     LIBCMTD:error.obj
 0002:000095b0       ??_C@_0N@MHFFIMFG@?6Address?3?50x?$AA@ 100775b0     LIBCMTD:error.obj
 0002:000095c0       ??_C@_07DFDJCKFN@?6Size?3?5?$AA@ 100775c0     LIBCMTD:error.obj
 0002:000095c8       ??_C@_0CK@DKGBICFE@?6Allocation?5number?5within?5this?5f@ 100775c8     LIBCMTD:error.obj
 0002:000095f4       ??_C@_08OMAHNMHJ@?6Data?3?5?$DM?$AA@ 100775f4     LIBCMTD:error.obj
 0002:00009600       ??_C@_09FOPFMPEJ@wsprintfA?$AA@ 10077600     LIBCMTD:error.obj
 0002:0000960c       ??_C@_0L@GMPLCCII@user32?4dll?$AA@ 1007760c     LIBCMTD:error.obj
 0002:00009618       ??_C@_0DE@OHJBPMBP@A?5variable?5is?5being?5used?5without@ 10077618     LIBCMTD:error.obj
 0002:00009650       ??_C@_1EC@FABAOFFO@?$AA?$CI?$AAc?$AAo?$AAu?$AAn?$AAt?$AA?5?$AA?$DN?$AA?$DN?$AA?5?$AA0?$AA?$CJ?$AA?5?$AA?$HM?$AA?$HM?$AA?5?$AA?$CI?$AAs?$AAt?$AAr?$AAi?$AAn?$AAg?$AA?5?$AA?$CB?$AA?$DN?$AA?5?$AAN?$AAU?$AAL?$AAL?$AA?$CJ@ 10077650     LIBCMTD:snprintf.obj
 0002:00009694       ??_C@_1BE@CHNFPLHD@?$AA_?$AAs?$AAn?$AAp?$AAr?$AAi?$AAn?$AAt?$AAf?$AA?$AA@ 10077694     LIBCMTD:snprintf.obj
 0002:000096a8       ??_C@_1GC@GHEPACJN@?$AAf?$AA?3?$AA?2?$AAs?$AAp?$AA?2?$AAv?$AAc?$AAt?$AAo?$AAo?$AAl?$AAs?$AA?2?$AAc?$AAr?$AAt?$AA_?$AAb?$AAl?$AAd?$AA?2?$AAs?$AAe?$AAl?$AAf?$AA_?$AAx?$AA8?$AA6?$AA?2?$AAc@ 100776a8     LIBCMTD:snprintf.obj
 0002:0000970c       ??_C@_08GNMOIKDK@onexit?4c?$AA@ 1007770c     LIBCMTD:onexit.obj
 0002:00009718       ??_C@_1BK@FHMHFMNL@?$AA_?$AAv?$AAs?$AAn?$AAp?$AAr?$AAi?$AAn?$AAt?$AAf?$AA_?$AAl?$AA?$AA@ 10077718     LIBCMTD:vsnprint.obj
 0002:00009738       ??_C@_1GE@LHHNFABB@?$AAf?$AA?3?$AA?2?$AAs?$AAp?$AA?2?$AAv?$AAc?$AAt?$AAo?$AAo?$AAl?$AAs?$AA?2?$AAc?$AAr?$AAt?$AA_?$AAb?$AAl?$AAd?$AA?2?$AAs?$AAe?$AAl?$AAf?$AA_?$AAx?$AA8?$AA6?$AA?2?$AAc@ 10077738     LIBCMTD:vsnprint.obj
 0002:0000979c       ??_C@_1CE@PCFPEIFI@?$AA_?$AAv?$AAs?$AAn?$AAp?$AAr?$AAi?$AAn?$AAt?$AAf?$AA_?$AAh?$AAe?$AAl?$AAp?$AAe?$AAr?$AA?$AA@ 1007779c     LIBCMTD:vsnprnc.obj
 0002:000097c0       ??_C@_1DA@HPBFKMEB@?$AA?$CI?$AA?$CC?$AAB?$AAu?$AAf?$AAf?$AAe?$AAr?$AA?5?$AAt?$AAo?$AAo?$AA?5?$AAs?$AAm?$AAa?$AAl?$AAl?$AA?$CC?$AA?0?$AA?5?$AA0?$AA?$CJ?$AA?$AA@ 100777c0     LIBCMTD:vsnprnc.obj
 0002:000097f0       ??_C@_1EE@OKCKIGFK@?$AAs?$AAt?$AAr?$AAi?$AAn?$AAg?$AA?5?$AA?$CB?$AA?$DN?$AA?5?$AAN?$AAU?$AAL?$AAL?$AA?5?$AA?$CG?$AA?$CG?$AA?5?$AAs?$AAi?$AAz?$AAe?$AAI?$AAn?$AAB?$AAy?$AAt?$AAe?$AAs?$AA?5?$AA?$DO?$AA?5@ 100777f0     LIBCMTD:vsnprnc.obj
 0002:00009834       ??_C@_1BM@BLJALHEF@?$AA_?$AAv?$AAs?$AAp?$AAr?$AAi?$AAn?$AAt?$AAf?$AA_?$AAs?$AA_?$AAl?$AA?$AA@ 10077834     LIBCMTD:vsnprnc.obj
 0002:00009850       ??_C@_1BO@MLMCMBKN@?$AAf?$AAo?$AAr?$AAm?$AAa?$AAt?$AA?5?$AA?$CB?$AA?$DN?$AA?5?$AAN?$AAU?$AAL?$AAL?$AA?$AA@ 10077850     LIBCMTD:vsnprnc.obj
 0002:00009870       ??_C@_1BO@MMPELNIM@?$AA_?$AAv?$AAs?$AAn?$AAp?$AAr?$AAi?$AAn?$AAt?$AAf?$AA_?$AAs?$AA_?$AAl?$AA?$AA@ 10077870     LIBCMTD:vsnprnc.obj
 0002:00009890       ??_C@_0BP@OGBCLIBO@Stack?5around?5_alloca?5corrupted?$AA@ 10077890     LIBCMTD:userapi.obj
 0002:000098b0       ??_C@_0CK@CNLNOEPB@Local?5variable?5used?5before?5initi@ 100778b0     LIBCMTD:userapi.obj
 0002:000098dc       ??_C@_0BI@CIGMDCBH@Stack?5memory?5corruption?$AA@ 100778dc     LIBCMTD:userapi.obj
 0002:000098f4       ??_C@_0CK@FEGOIOPB@Cast?5to?5smaller?5type?5causing?5los@ 100778f4     LIBCMTD:userapi.obj
 0002:00009920       ??_C@_0BJ@HEGAHDFO@Stack?5pointer?5corruption?$AA@ 10077920     LIBCMTD:userapi.obj
 0002:00009950       ??_C@_0O@NJIIDJEH@i386?2chkesp?4c?$AA@ 10077950     LIBCMTD:chkesp.obj
 0002:00009960       ??_C@_0NM@DNEDKLDF@The?5value?5of?5ESP?5was?5not?5properl@ 10077960     LIBCMTD:chkesp.obj
 0002:00009a44       ??_C@_0P@MIGLKIOC@CorExitProcess?$AA@ 10077a44     LIBCMTD:crt0dat.obj
 0002:00009a54       ??_C@_0M@MBOPBNBK@mscoree?4dll?$AA@ 10077a54     LIBCMTD:crt0dat.obj
 0002:00009a60       ??_C@_1BO@PCPNBEJP@?$AA_?$AAo?$AAs?$AAp?$AAl?$AAa?$AAt?$AAf?$AAo?$AAr?$AAm?$AA?$CB?$AA?$DN?$AA0?$AA?$AA@ 10077a60     LIBCMTD:crt0dat.obj
 0002:00009a80       ??_C@_1CA@HBJLODAG@?$AA_?$AAg?$AAe?$AAt?$AA_?$AAo?$AAs?$AAp?$AAl?$AAa?$AAt?$AAf?$AAo?$AAr?$AAm?$AA?$AA@ 10077a80     LIBCMTD:crt0dat.obj
 0002:00009aa0       ??_C@_1BE@DFOEAGLM@?$AAc?$AAr?$AAt?$AA0?$AAd?$AAa?$AAt?$AA?4?$AAc?$AA?$AA@ 10077aa0     LIBCMTD:crt0dat.obj
 0002:00009ab4       ??_C@_1BO@LKEBEKJP@?$AAp?$AAV?$AAa?$AAl?$AAu?$AAe?$AA?5?$AA?$CB?$AA?$DN?$AA?5?$AAN?$AAU?$AAL?$AAL?$AA?$AA@ 10077ab4     LIBCMTD:crt0dat.obj
 0002:00009ad4       ??_C@_1BG@OLMEODBO@?$AA_?$AAg?$AAe?$AAt?$AA_?$AAo?$AAs?$AAv?$AAe?$AAr?$AA?$AA@ 10077ad4     LIBCMTD:crt0dat.obj
 0002:00009aec       ??_C@_1BI@EHCOONPO@?$AA_?$AAg?$AAe?$AAt?$AA_?$AAw?$AAi?$AAn?$AAv?$AAe?$AAr?$AA?$AA@ 10077aec     LIBCMTD:crt0dat.obj
 0002:00009b04       ??_C@_1BM@MHJHOJPG@?$AA_?$AAg?$AAe?$AAt?$AA_?$AAw?$AAi?$AAn?$AAm?$AAa?$AAj?$AAo?$AAr?$AA?$AA@ 10077b04     LIBCMTD:crt0dat.obj
 0002:00009b20       ??_C@_1BM@FAAKKHPI@?$AA_?$AAg?$AAe?$AAt?$AA_?$AAw?$AAi?$AAn?$AAm?$AAi?$AAn?$AAo?$AAr?$AA?$AA@ 10077b20     LIBCMTD:crt0dat.obj
 0002:00009b3c       ??_C@_1CC@CDIPMFPD@?$AA_?$AAw?$AAp?$AAg?$AAm?$AAp?$AAt?$AAr?$AA?5?$AA?$CB?$AA?$DN?$AA?5?$AAN?$AAU?$AAL?$AAL?$AA?$AA@ 10077b3c     LIBCMTD:crt0dat.obj
 0002:00009b60       ??_C@_1BK@PNLDCCDP@?$AA_?$AAg?$AAe?$AAt?$AA_?$AAw?$AAp?$AAg?$AAm?$AAp?$AAt?$AAr?$AA?$AA@ 10077b60     LIBCMTD:crt0dat.obj
 0002:00009b7c       ??_C@_1CA@BBNAFCKO@?$AA_?$AAp?$AAg?$AAm?$AAp?$AAt?$AAr?$AA?5?$AA?$CB?$AA?$DN?$AA?5?$AAN?$AAU?$AAL?$AAL?$AA?$AA@ 10077b7c     LIBCMTD:crt0dat.obj
 0002:00009b9c       ??_C@_1BI@COAAPHJK@?$AA_?$AAg?$AAe?$AAt?$AA_?$AAp?$AAg?$AAm?$AAp?$AAt?$AAr?$AA?$AA@ 10077b9c     LIBCMTD:crt0dat.obj
 0002:00009bb4       ??_C@_1O@EJLDHPPL@?$AAs?$AAi?$AAg?$AAn?$AAa?$AAl?$AA?$AA@ 10077bb4     LIBCMTD:winsig.obj
 0002:00009bc4       ??_C@_1BC@KDODBONJ@?$AAw?$AAi?$AAn?$AAs?$AAi?$AAg?$AA?4?$AAc?$AA?$AA@ 10077bc4     LIBCMTD:winsig.obj
 0002:00009bd8       ??_C@_1DO@MLNEDKGB@?$AA?$CI?$AA?$CC?$AAI?$AAn?$AAv?$AAa?$AAl?$AAi?$AAd?$AA?5?$AAs?$AAi?$AAg?$AAn?$AAa?$AAl?$AA?5?$AAo?$AAr?$AA?5?$AAe?$AAr?$AAr?$AAo?$AAr?$AA?$CC?$AA?0?$AA?5?$AA0?$AA?$CJ?$AA?$AA@ 10077bd8     LIBCMTD:winsig.obj
 0002:00009c18       ??_C@_08FKHPDPAC@winsig?4c?$AA@ 10077c18     LIBCMTD:winsig.obj
 0002:00009c24       ??_C@_1M@DMJEIKHL@?$AAr?$AAa?$AAi?$AAs?$AAe?$AA?$AA@ 10077c24     LIBCMTD:winsig.obj
 0002:00009c30       ??_C@_1DC@OIOKIELJ@?$AA_?$AAg?$AAe?$AAt?$AA_?$AAw?$AAi?$AAn?$AAm?$AAa?$AAj?$AAo?$AAr?$AA?$CI?$AA?$CG?$AAw?$AAi?$AAn?$AAm?$AAa?$AAj?$AAo?$AAr?$AA?$CJ?$AA?$AA@ 10077c30     LIBCMTD:crtmboxw.obj
 0002:00009c64       ??_C@_0BI@DFKBFLJE@GetProcessWindowStation?$AA@ 10077c64     LIBCMTD:crtmboxw.obj
 0002:00009c7c       ??_C@_0BK@DEKFELLI@GetUserObjectInformationW?$AA@ 10077c7c     LIBCMTD:crtmboxw.obj
 0002:00009c98       ??_C@_1CC@LBPMICNL@?$AA_?$AA_?$AAc?$AAr?$AAt?$AAM?$AAe?$AAs?$AAs?$AAa?$AAg?$AAe?$AAB?$AAo?$AAx?$AAW?$AA?$AA@ 10077c98     LIBCMTD:crtmboxw.obj
 0002:00009cc0       ??_C@_1GC@HLBFDAED@?$AAf?$AA?3?$AA?2?$AAs?$AAp?$AA?2?$AAv?$AAc?$AAt?$AAo?$AAo?$AAl?$AAs?$AA?2?$AAc?$AAr?$AAt?$AA_?$AAb?$AAl?$AAd?$AA?2?$AAs?$AAe?$AAl?$AAf?$AA_?$AAx?$AA8?$AA6?$AA?2?$AAc@ 10077cc0     LIBCMTD:crtmboxw.obj
 0002:00009d24       ??_C@_0BD@HHGDFDBJ@GetLastActivePopup?$AA@ 10077d24     LIBCMTD:crtmboxw.obj
 0002:00009d38       ??_C@_0BA@HNOPNCHB@GetActiveWindow?$AA@ 10077d38     LIBCMTD:crtmboxw.obj
 0002:00009d48       ??_C@_0M@DLDCCGNP@MessageBoxW?$AA@ 10077d48     LIBCMTD:crtmboxw.obj
 0002:00009d54       ??_C@_1BG@GOEBHBDC@?$AAU?$AAS?$AAE?$AAR?$AA3?$AA2?$AA?4?$AAD?$AAL?$AAL?$AA?$AA@ 10077d54     LIBCMTD:crtmboxw.obj
 0002:00009d6c       ??_C@_1CM@HABGDNLJ@?$AAl?$AAe?$AAn?$AAg?$AAt?$AAh?$AA?5?$AA?$DM?$AA?5?$AAs?$AAi?$AAz?$AAe?$AAI?$AAn?$AAT?$AAC?$AAh?$AAa?$AAr?$AAs?$AA?$AA@ 10077d6c     LIBCMTD:xtows.obj
 0002:00009d98       ??_C@_1DE@PCJGDBBD@?$AA2?$AA?5?$AA?$DM?$AA?$DN?$AA?5?$AAr?$AAa?$AAd?$AAi?$AAx?$AA?5?$AA?$CG?$AA?$CG?$AA?5?$AAr?$AAa?$AAd?$AAi?$AAx?$AA?5?$AA?$DM?$AA?$DN?$AA?5?$AA3?$AA6?$AA?$AA@ 10077d98     LIBCMTD:xtows.obj
 0002:00009dd0       ??_C@_1FA@MKGGAGEI@?$AAs?$AAi?$AAz?$AAe?$AAI?$AAn?$AAT?$AAC?$AAh?$AAa?$AAr?$AAs?$AA?5?$AA?$DO?$AA?5?$AA?$CI?$AAs?$AAi?$AAz?$AAe?$AA_?$AAt?$AA?$CJ?$AA?$CI?$AAi?$AAs?$AA_?$AAn?$AAe?$AAg?$AA?5?$AA?$DP@ 10077dd0     LIBCMTD:xtows.obj
 0002:00009e20       ??_C@_1CC@JNJFIMGE@?$AAs?$AAi?$AAz?$AAe?$AAI?$AAn?$AAT?$AAC?$AAh?$AAa?$AAr?$AAs?$AA?5?$AA?$DO?$AA?5?$AA0?$AA?$AA@ 10077e20     LIBCMTD:xtows.obj
 0002:00009e44       ??_C@_1O@NCBFODOE@?$AAx?$AAt?$AAo?$AAw?$AA_?$AAs?$AA?$AA@ 10077e44     LIBCMTD:xtows.obj
 0002:00009e58       ??_C@_1FM@LINCFGBD@?$AAf?$AA?3?$AA?2?$AAs?$AAp?$AA?2?$AAv?$AAc?$AAt?$AAo?$AAo?$AAl?$AAs?$AA?2?$AAc?$AAr?$AAt?$AA_?$AAb?$AAl?$AAd?$AA?2?$AAs?$AAe?$AAl?$AAf?$AA_?$AAx?$AA8?$AA6?$AA?2?$AAc@ 10077e58     LIBCMTD:xtows.obj
 0002:00009eb4       ??_C@_1BC@HDEJCFPB@?$AAx?$AA6?$AA4?$AAt?$AAo?$AAw?$AA_?$AAs?$AA?$AA@ 10077eb4     LIBCMTD:xtows.obj
 0002:00009ec8       ??_C@_1DM@MADKGDLO@?$AA?$CI?$AAL?$AA?$CC?$AAB?$AAu?$AAf?$AAf?$AAe?$AAr?$AA?5?$AAi?$AAs?$AA?5?$AAt?$AAo?$AAo?$AA?5?$AAs?$AAm?$AAa?$AAl?$AAl?$AA?$CC?$AA?5?$AA?$CG?$AA?$CG?$AA?5?$AA0?$AA?$CJ?$AA?$AA@ 10077ec8     LIBCMTD:wcsncat_s.obj
 0002:00009f04       ??_C@_1CI@HCPHDDLE@?$AAB?$AAu?$AAf?$AAf?$AAe?$AAr?$AA?5?$AAi?$AAs?$AA?5?$AAt?$AAo?$AAo?$AA?5?$AAs?$AAm?$AAa?$AAl?$AAl?$AA?$AA@ 10077f04     LIBCMTD:wcsncat_s.obj
 0002:00009f30       ??_C@_1FA@MJKDNFFB@?$AA?$CI?$AAL?$AA?$CC?$AAS?$AAt?$AAr?$AAi?$AAn?$AAg?$AA?5?$AAi?$AAs?$AA?5?$AAn?$AAo?$AAt?$AA?5?$AAn?$AAu?$AAl?$AAl?$AA?5?$AAt?$AAe?$AAr?$AAm?$AAi?$AAn?$AAa?$AAt?$AAe?$AAd@ 10077f30     LIBCMTD:wcsncat_s.obj
 0002:00009f80       ??_C@_1DM@FHLMIEG@?$AAS?$AAt?$AAr?$AAi?$AAn?$AAg?$AA?5?$AAi?$AAs?$AA?5?$AAn?$AAo?$AAt?$AA?5?$AAn?$AAu?$AAl?$AAl?$AA?5?$AAt?$AAe?$AAr?$AAm?$AAi?$AAn?$AAa?$AAt?$AAe?$AAd?$AA?$AA@ 10077f80     LIBCMTD:wcsncat_s.obj
 0002:00009fbc       ??_C@_1CG@OFBJMIGJ@?$AA?$CI?$AA?$CI?$AA?$CI?$AA_?$AAS?$AAr?$AAc?$AA?$CJ?$AA?$CJ?$AA?$CJ?$AA?5?$AA?$CB?$AA?$DN?$AA?5?$AAN?$AAU?$AAL?$AAL?$AA?$AA@ 10077fbc     LIBCMTD:wcsncat_s.obj
 0002:00009fe4       ??_C@_1BE@KPKIKKCF@?$AAw?$AAc?$AAs?$AAn?$AAc?$AAa?$AAt?$AA_?$AAs?$AA?$AA@ 10077fe4     LIBCMTD:wcsncat_s.obj
 0002:00009ff8       ??_C@_1GK@ECHLEFPM@?$AAF?$AA?3?$AA?2?$AAS?$AAP?$AA?2?$AAv?$AAc?$AAt?$AAo?$AAo?$AAl?$AAs?$AA?2?$AAc?$AAr?$AAt?$AA_?$AAb?$AAl?$AAd?$AA?2?$AAS?$AAE?$AAL?$AAF?$AA_?$AAX?$AA8?$AA6?$AA?2?$AAc@ 10077ff8     LIBCMTD:wcsncat_s.obj
 0002:0000a068       ??_C@_1FC@PFMLEHKI@?$AA?$CI?$AA?$CI?$AA_?$AAD?$AAs?$AAt?$AA?$CJ?$AA?$CJ?$AA?5?$AA?$CB?$AA?$DN?$AA?5?$AAN?$AAU?$AAL?$AAL?$AA?5?$AA?$CG?$AA?$CG?$AA?5?$AA?$CI?$AA?$CI?$AA_?$AAS?$AAi?$AAz?$AAe?$AAI?$AAn?$AAW?$AAo?$AAr@ 10078068     LIBCMTD:wcsncat_s.obj
 0002:0000a0bc       ??_C@_1BE@PMMBFFCC@?$AAw?$AAc?$AAs?$AAn?$AAc?$AAp?$AAy?$AA_?$AAs?$AA?$AA@ 100780bc     LIBCMTD:wcsncpy_s.obj
 0002:0000a0d0       ??_C@_1GK@IKMAONFM@?$AAF?$AA?3?$AA?2?$AAS?$AAP?$AA?2?$AAv?$AAc?$AAt?$AAo?$AAo?$AAl?$AAs?$AA?2?$AAc?$AAr?$AAt?$AA_?$AAb?$AAl?$AAd?$AA?2?$AAS?$AAE?$AAL?$AAF?$AA_?$AAX?$AA8?$AA6?$AA?2?$AAc@ 100780d0     LIBCMTD:wcsncpy_s.obj
 0002:0000a13c       ??_C@_1BC@PLIEPKPJ@?$AAw?$AAc?$AAs?$AAc?$AAa?$AAt?$AA_?$AAs?$AA?$AA@ 1007813c     LIBCMTD:wcscat_s.obj
 0002:0000a150       ??_C@_1GI@HANKOOAN@?$AAF?$AA?3?$AA?2?$AAS?$AAP?$AA?2?$AAv?$AAc?$AAt?$AAo?$AAo?$AAl?$AAs?$AA?2?$AAc?$AAr?$AAt?$AA_?$AAb?$AAl?$AAd?$AA?2?$AAS?$AAE?$AAL?$AAF?$AA_?$AAX?$AA8?$AA6?$AA?2?$AAc@ 10078150     LIBCMTD:wcscat_s.obj
 0002:0000a1b8       ??_C@_1BC@KIONAFPO@?$AAw?$AAc?$AAs?$AAc?$AAp?$AAy?$AA_?$AAs?$AA?$AA@ 100781b8     LIBCMTD:wcscpy_s.obj
 0002:0000a1d0       ??_C@_1GI@LIGBEGKN@?$AAF?$AA?3?$AA?2?$AAS?$AAP?$AA?2?$AAv?$AAc?$AAt?$AAo?$AAo?$AAl?$AAs?$AA?2?$AAc?$AAr?$AAt?$AA_?$AAb?$AAl?$AAd?$AA?2?$AAS?$AAE?$AAL?$AAF?$AA_?$AAX?$AA8?$AA6?$AA?2?$AAc@ 100781d0     LIBCMTD:wcscpy_s.obj
 0002:0000a238       ??_C@_1BC@BHLPNJBO@?$AAf?$AAw?$AAp?$AAr?$AAi?$AAn?$AAt?$AAf?$AA?$AA@ 10078238     LIBCMTD:fwprintf.obj
 0002:0000a24c       ??_C@_1BG@MGCFCFAI@?$AAf?$AAw?$AAp?$AAr?$AAi?$AAn?$AAt?$AAf?$AA?4?$AAc?$AA?$AA@ 1007824c     LIBCMTD:fwprintf.obj
 0002:0000a264       ??_C@_1BM@JMKHIAHP@?$AA?$CI?$AAs?$AAt?$AAr?$AA?5?$AA?$CB?$AA?$DN?$AA?5?$AAN?$AAU?$AAL?$AAL?$AA?$CJ?$AA?$AA@ 10078264     LIBCMTD:fwprintf.obj
 0002:0000a280       ??_C@_09KGBNCNDN@setvbuf?4c?$AA@ 10078280     LIBCMTD:setvbuf.obj
 0002:0000a290       ??_C@_1EG@IJNJIDNB@?$AA?$CI?$AA?$CI?$AA2?$AA?5?$AA?$DM?$AA?$DN?$AA?5?$AAs?$AAi?$AAz?$AAe?$AA?$CJ?$AA?5?$AA?$CG?$AA?$CG?$AA?5?$AA?$CI?$AAs?$AAi?$AAz?$AAe?$AA?5?$AA?$DM?$AA?$DN?$AA?5?$AAI?$AAN?$AAT?$AA_?$AAM?$AAA?$AAX@ 10078290     LIBCMTD:setvbuf.obj
 0002:0000a2d8       ??_C@_1HC@CBFEDAGG@?$AA?$CI?$AAt?$AAy?$AAp?$AAe?$AA?5?$AA?$DN?$AA?$DN?$AA?5?$AA_?$AAI?$AAO?$AAN?$AAB?$AAF?$AA?$CJ?$AA?5?$AA?$HM?$AA?$HM?$AA?5?$AA?$CI?$AAt?$AAy?$AAp?$AAe?$AA?5?$AA?$DN?$AA?$DN?$AA?5?$AA_?$AAI?$AAO@ 100782d8     LIBCMTD:setvbuf.obj
 0002:0000a34c       ??_C@_1BA@OGODIODK@?$AAs?$AAe?$AAt?$AAv?$AAb?$AAu?$AAf?$AA?$AA@ 1007834c     LIBCMTD:setvbuf.obj
 0002:0000a35c       ??_C@_1BE@FMDCPFIG@?$AAs?$AAe?$AAt?$AAv?$AAb?$AAu?$AAf?$AA?4?$AAc?$AA?$AA@ 1007835c     LIBCMTD:setvbuf.obj
 0002:0000a370       ??_C@_07PNHPCIEC@_file?4c?$AA@ 10078370     LIBCMTD:_file.obj
 0002:0000a378       ??_C@_1CA@LFDHAMEM@?$AA_?$AAs?$AAe?$AAt?$AA_?$AAe?$AAr?$AAr?$AAo?$AAr?$AA_?$AAm?$AAo?$AAd?$AAe?$AA?$AA@ 10078378     LIBCMTD:errmode.obj
 0002:0000a398       ??_C@_1BE@FFANBHLE@?$AAe?$AAr?$AAr?$AAm?$AAo?$AAd?$AAe?$AA?4?$AAc?$AA?$AA@ 10078398     LIBCMTD:errmode.obj
 0002:0000a3ac       ??_C@_1DE@BCNCAIK@?$AA?$CI?$AA?$CC?$AAI?$AAn?$AAv?$AAa?$AAl?$AAi?$AAd?$AA?5?$AAe?$AAr?$AAr?$AAo?$AAr?$AA_?$AAm?$AAo?$AAd?$AAe?$AA?$CC?$AA?0?$AA?5?$AA0?$AA?$CJ?$AA?$AA@ 100783ac     LIBCMTD:errmode.obj
 0002:0000a3e0       ??_C@_02PHMGELLB@?6?6?$AA@ 100783e0     LIBCMTD:assert.obj
 0002:0000a3e4       ??_C@_0CF@GOGNBNAK@Microsoft?5Visual?5C?$CL?$CL?5Runtime?5Lib@ 100783e4     LIBCMTD:assert.obj
 0002:0000a40c       ??_C@_0DN@EBBNMLME@?$CIPress?5Retry?5to?5debug?5the?5applic@ 1007840c     LIBCMTD:assert.obj
 0002:0000a450       ??_C@_1LM@PPELICOO@?$AAs?$AAt?$AAr?$AAc?$AAa?$AAt?$AA_?$AAs?$AA?$CI?$AAa?$AAs?$AAs?$AAe?$AAr?$AAt?$AAb?$AAu?$AAf?$AA?0?$AA?5?$AA?$CI?$AA6?$AA0?$AA?5?$AA?$CK?$AA?5?$AA9?$AA?$CJ?$AA?0?$AA?5?$AA?$CC?$AA?$CI@ 10078450     LIBCMTD:assert.obj
 0002:0000a510       ??_C@_1FG@FPMGDMJC@?$AAs?$AAt?$AAr?$AAc?$AAa?$AAt?$AA_?$AAs?$AA?$CI?$AAa?$AAs?$AAs?$AAe?$AAr?$AAt?$AAb?$AAu?$AAf?$AA?0?$AA?5?$AA?$CI?$AA6?$AA0?$AA?5?$AA?$CK?$AA?5?$AA9?$AA?$CJ?$AA?0?$AA?5?$AAd?$AAb@ 10078510     LIBCMTD:assert.obj
 0002:0000a568       ??_C@_0HA@OJHAGA@For?5information?5on?5how?5your?5prog@ 10078568     LIBCMTD:assert.obj
 0002:0000a5d8       ??_C@_1BCK@FOGOPFPO@?$AAs?$AAt?$AAr?$AAc?$AAa?$AAt?$AA_?$AAs?$AA?$CI?$AAa?$AAs?$AAs?$AAe?$AAr?$AAt?$AAb?$AAu?$AAf?$AA?0?$AA?5?$AA?$CI?$AA6?$AA0?$AA?5?$AA?$CK?$AA?5?$AA9?$AA?$CJ?$AA?0?$AA?5?$AA?$CC?$AAF@ 100785d8     LIBCMTD:assert.obj
 0002:0000a708       ??_C@_1EM@ENNCDANH@?$AAs?$AAt?$AAr?$AAc?$AAa?$AAt?$AA_?$AAs?$AA?$CI?$AA?5?$AAa?$AAs?$AAs?$AAe?$AAr?$AAt?$AAb?$AAu?$AAf?$AA?0?$AA?5?$AA?$CI?$AA6?$AA0?$AA?5?$AA?$CK?$AA?5?$AA9?$AA?$CJ?$AA?0?$AA?5?$AAe@ 10078708     LIBCMTD:assert.obj
 0002:0000a758       ??_C@_1CHK@HNOMNMBD@?$AA_?$AAm?$AAb?$AAs?$AAn?$AAb?$AAc?$AAa?$AAt?$AA_?$AAs?$AA?$CI?$AA?5?$AAa?$AAs?$AAs?$AAe?$AAr?$AAt?$AAb?$AAu?$AAf?$AA?0?$AA?5?$AA?$CI?$AA6?$AA0?$AA?5?$AA?$CK?$AA?5?$AA9?$AA?$CJ@ 10078758     LIBCMTD:assert.obj
 0002:0000a9d4       ??_C@_0N@MEECIJGN@Expression?3?5?$AA@ 100789d4     LIBCMTD:assert.obj
 0002:0000a9e8       ??_C@_1GA@GHECLIPG@?$AAs?$AAt?$AAr?$AAc?$AAa?$AAt?$AA_?$AAs?$AA?$CI?$AA?5?$AAa?$AAs?$AAs?$AAe?$AAr?$AAt?$AAb?$AAu?$AAf?$AA?0?$AA?5?$AA?$CI?$AA6?$AA0?$AA?5?$AA?$CK?$AA?5?$AA9?$AA?$CJ?$AA?0?$AA?5?$AA?$CC@ 100789e8     LIBCMTD:assert.obj
 0002:0000aa48       ??_C@_1KG@MJEHKFDP@?$AA_?$AAi?$AAt?$AAo?$AAa?$AA_?$AAs?$AA?$CI?$AA?5?$AAl?$AAi?$AAn?$AAe?$AAn?$AAo?$AA?0?$AA?5?$AAa?$AAs?$AAs?$AAe?$AAr?$AAt?$AAb?$AAu?$AAf?$AA?5?$AA?$CL?$AA?5?$AAs?$AAt?$AAr@ 10078a48     LIBCMTD:assert.obj
 0002:0000aaf0       ??_C@_06FIEBOLOH@Line?3?5?$AA@ 10078af0     LIBCMTD:assert.obj
 0002:0000aaf8       ??_C@_1FE@EHMPHKDB@?$AAs?$AAt?$AAr?$AAc?$AAa?$AAt?$AA_?$AAs?$AA?$CI?$AA?5?$AAa?$AAs?$AAs?$AAe?$AAr?$AAt?$AAb?$AAu?$AAf?$AA?0?$AA?5?$AA?$CI?$AA6?$AA0?$AA?5?$AA?$CK?$AA?5?$AA9?$AA?$CJ?$AA?0?$AA?5?$AA?$CC@ 10078af8     LIBCMTD:assert.obj
 0002:0000ab50       ??_C@_1FE@BELKICLD@?$AAs?$AAt?$AAr?$AAc?$AAa?$AAt?$AA_?$AAs?$AA?$CI?$AA?5?$AAa?$AAs?$AAs?$AAe?$AAr?$AAt?$AAb?$AAu?$AAf?$AA?0?$AA?5?$AA?$CI?$AA6?$AA0?$AA?5?$AA?$CK?$AA?5?$AA9?$AA?$CJ?$AA?0?$AA?5?$AAf@ 10078b50     LIBCMTD:assert.obj
 0002:0000aba8       ??_C@_1IC@IABENIAD@?$AAs?$AAt?$AAr?$AAc?$AAa?$AAt?$AA_?$AAs?$AA?$CI?$AA?5?$AAa?$AAs?$AAs?$AAe?$AAr?$AAt?$AAb?$AAu?$AAf?$AA?0?$AA?5?$AA?$CI?$AA6?$AA0?$AA?5?$AA?$CK?$AA?5?$AA9?$AA?$CJ?$AA?0?$AA?5?$AAp@ 10078ba8     LIBCMTD:assert.obj
 0002:0000ac30       ??_C@_1HK@LJCIAEID@?$AA_?$AAm?$AAb?$AAs?$AAn?$AAb?$AAc?$AAa?$AAt?$AA_?$AAs?$AA?$CI?$AA?5?$AAa?$AAs?$AAs?$AAe?$AAr?$AAt?$AAb?$AAu?$AAf?$AA?0?$AA?5?$AA?$CI?$AA6?$AA0?$AA?5?$AA?$CK?$AA?5?$AA9?$AA?$CJ@ 10078c30     LIBCMTD:assert.obj
 0002:0000acb0       ??_C@_1HC@NNJOOJHD@?$AA_?$AAm?$AAb?$AAs?$AAn?$AAb?$AAc?$AAa?$AAt?$AA_?$AAs?$AA?$CI?$AA?5?$AAa?$AAs?$AAs?$AAe?$AAr?$AAt?$AAb?$AAu?$AAf?$AA?0?$AA?5?$AA?$CI?$AA6?$AA0?$AA?5?$AA?$CK?$AA?5?$AA9?$AA?$CJ@ 10078cb0     LIBCMTD:assert.obj
 0002:0000ad28       ??_C@_1FO@ILLBEHNB@?$AAs?$AAt?$AAr?$AAc?$AAa?$AAt?$AA_?$AAs?$AA?$CI?$AA?5?$AAa?$AAs?$AAs?$AAe?$AAr?$AAt?$AAb?$AAu?$AAf?$AA?0?$AA?5?$AA?$CI?$AA6?$AA0?$AA?5?$AA?$CK?$AA?5?$AA9?$AA?$CJ?$AA?0?$AA?5?$AAp@ 10078d28     LIBCMTD:assert.obj
 0002:0000ad88       ??_C@_1FG@BIHAHDLM@?$AAs?$AAt?$AAr?$AAc?$AAa?$AAt?$AA_?$AAs?$AA?$CI?$AA?5?$AAa?$AAs?$AAs?$AAe?$AAr?$AAt?$AAb?$AAu?$AAf?$AA?0?$AA?5?$AA?$CI?$AA6?$AA0?$AA?5?$AA?$CK?$AA?5?$AA9?$AA?$CJ?$AA?0?$AA?5?$AAd@ 10078d88     LIBCMTD:assert.obj
 0002:0000ade0       ??_C@_1GK@LELDAJFN@?$AA_?$AAm?$AAb?$AAs?$AAn?$AAb?$AAc?$AAa?$AAt?$AA_?$AAs?$AA?$CI?$AA?5?$AAa?$AAs?$AAs?$AAe?$AAr?$AAt?$AAb?$AAu?$AAf?$AA?0?$AA?5?$AA?$CI?$AA6?$AA0?$AA?5?$AA?$CK?$AA?5?$AA9?$AA?$CJ@ 10078de0     LIBCMTD:assert.obj
 0002:0000ae4c       ??_C@_06IGPBOHMJ@File?3?5?$AA@ 10078e4c     LIBCMTD:assert.obj
 0002:0000ae58       ??_C@_1FE@JHHKPPGM@?$AAs?$AAt?$AAr?$AAc?$AAa?$AAt?$AA_?$AAs?$AA?$CI?$AA?5?$AAa?$AAs?$AAs?$AAe?$AAr?$AAt?$AAb?$AAu?$AAf?$AA?0?$AA?5?$AA?$CI?$AA6?$AA0?$AA?5?$AA?$CK?$AA?5?$AA9?$AA?$CJ?$AA?0?$AA?5?$AA?$CC@ 10078e58     LIBCMTD:assert.obj
 0002:0000aeb0       ??_C@_1FC@HGJOLIGH@?$AAs?$AAt?$AAr?$AAc?$AAa?$AAt?$AA_?$AAs?$AA?$CI?$AA?5?$AAa?$AAs?$AAs?$AAe?$AAr?$AAt?$AAb?$AAu?$AAf?$AA?0?$AA?5?$AA?$CI?$AA6?$AA0?$AA?5?$AA?$CK?$AA?5?$AA9?$AA?$CJ?$AA?0?$AA?5?$AAn@ 10078eb0     LIBCMTD:assert.obj
 0002:0000af08       ??_C@_1EK@HNKCAGGP@?$AAs?$AAt?$AAr?$AAc?$AAa?$AAt?$AA_?$AAs?$AA?$CI?$AA?5?$AAa?$AAs?$AAs?$AAe?$AAr?$AAt?$AAb?$AAu?$AAf?$AA?0?$AA?5?$AA?$CI?$AA6?$AA0?$AA?5?$AA?$CK?$AA?5?$AA9?$AA?$CJ?$AA?0?$AA?5?$AAp@ 10078f08     LIBCMTD:assert.obj
 0002:0000af58       ??_C@_1HO@DGLFHLNC@?$AA_?$AAm?$AAb?$AAs?$AAn?$AAb?$AAc?$AAp?$AAy?$AA_?$AAs?$AA?$CI?$AA?5?$AAp?$AAc?$AAh?$AA?0?$AA?5?$AA?$CI?$AA2?$AA6?$AA0?$AA?5?$AA?$CL?$AA?5?$AA1?$AA?$CJ?$AA?5?$AA?9?$AA?5?$AA?$CI?$AAp@ 10078f58     LIBCMTD:assert.obj
 0002:0000afd8       ??_C@_0BH@DNAGHKFM@?$DMprogram?5name?5unknown?$DO?$AA@ 10078fd8     LIBCMTD:assert.obj
 0002:0000aff0       ??_C@_1GO@MKBPHEIL@?$AAs?$AAt?$AAr?$AAc?$AAp?$AAy?$AA_?$AAs?$AA?$CI?$AA?5?$AAp?$AAr?$AAo?$AAg?$AAn?$AAa?$AAm?$AAe?$AA?0?$AA?5?$AA2?$AA6?$AA0?$AA?5?$AA?$CL?$AA?5?$AA1?$AA?0?$AA?5?$AA?$CC?$AA?$DM?$AAp@ 10078ff0     LIBCMTD:assert.obj
 0002:0000b060       ??_C@_09KLGCKDOD@Program?3?5?$AA@ 10079060     LIBCMTD:assert.obj
 0002:0000b070       ??_C@_1FK@JLNGAFHA@?$AAs?$AAt?$AAr?$AAc?$AAa?$AAt?$AA_?$AAs?$AA?$CI?$AA?5?$AAa?$AAs?$AAs?$AAe?$AAr?$AAt?$AAb?$AAu?$AAf?$AA?0?$AA?5?$AA?$CI?$AA6?$AA0?$AA?5?$AA?$CK?$AA?5?$AA9?$AA?$CJ?$AA?0?$AA?5?$AA?$CC@ 10079070     LIBCMTD:assert.obj
 0002:0000b0d0       ??_C@_1FI@LABOHEIE@?$AAs?$AAt?$AAr?$AAc?$AAa?$AAt?$AA_?$AAs?$AA?$CI?$AA?5?$AAa?$AAs?$AAs?$AAe?$AAr?$AAt?$AAb?$AAu?$AAf?$AA?0?$AA?5?$AA?$CI?$AA6?$AA0?$AA?5?$AA?$CK?$AA?5?$AA9?$AA?$CJ?$AA?0?$AA?5?$AAd@ 100790d0     LIBCMTD:assert.obj
 0002:0000b128       ??_C@_0BC@LAIDCHCH@Assertion?5failed?$CB?$AA@ 10079128     LIBCMTD:assert.obj
 0002:0000b140       ??_C@_1GK@MEIIIEKC@?$AAs?$AAt?$AAr?$AAc?$AAp?$AAy?$AA_?$AAs?$AA?$CI?$AA?5?$AAa?$AAs?$AAs?$AAe?$AAr?$AAt?$AAb?$AAu?$AAf?$AA?0?$AA?5?$AA?$CI?$AA6?$AA0?$AA?5?$AA?$CK?$AA?5?$AA9?$AA?$CJ?$AA?0?$AA?5?$AA?$CC@ 10079140     LIBCMTD:assert.obj
 0002:0000b1ac       ??_C@_1BA@DADDCNOK@?$AA_?$AAa?$AAs?$AAs?$AAe?$AAr?$AAt?$AA?$AA@ 100791ac     LIBCMTD:assert.obj
 0002:0000b1bc       ??_C@_1BC@IOLPDCAK@?$AAa?$AAs?$AAs?$AAe?$AAr?$AAt?$AA?4?$AAc?$AA?$AA@ 100791bc     LIBCMTD:assert.obj
 0002:0000b1d0       ??_C@_1BC@CFJEPFGF@?$AAs?$AAt?$AAr?$AAc?$AAp?$AAy?$AA_?$AAs?$AA?$AA@ 100791d0     LIBCMTD:strcpy_s.obj
 0002:0000b1e8       ??_C@_1FC@NCPEPIBI@?$AA?$CI?$AA?$CI?$AA_?$AAD?$AAs?$AAt?$AA?$CJ?$AA?$CJ?$AA?5?$AA?$CB?$AA?$DN?$AA?5?$AAN?$AAU?$AAL?$AAL?$AA?5?$AA?$CG?$AA?$CG?$AA?5?$AA?$CI?$AA?$CI?$AA_?$AAS?$AAi?$AAz?$AAe?$AAI?$AAn?$AAB?$AAy?$AAt@ 100791e8     LIBCMTD:strcpy_s.obj
 0002:0000b23c       ??_C@_1BC@HGPNAKGC@?$AAs?$AAt?$AAr?$AAc?$AAa?$AAt?$AA_?$AAs?$AA?$AA@ 1007923c     LIBCMTD:strcat_s.obj
 0002:0000b250       ??_C@_1BK@CMPKHPEC@?$AAn?$AA?5?$AA?$DM?$AA?$DN?$AA?5?$AAI?$AAN?$AAT?$AA_?$AAM?$AAA?$AAX?$AA?$AA@ 10079250     LIBCMTD:wcstombs.obj
 0002:0000b26c       ??_C@_1CG@LLJCAOHF@?$AA_?$AAw?$AAc?$AAs?$AAt?$AAo?$AAm?$AAb?$AAs?$AA_?$AAl?$AA_?$AAh?$AAe?$AAl?$AAp?$AAe?$AAr?$AA?$AA@ 1007926c     LIBCMTD:wcstombs.obj
 0002:0000b294       ??_C@_1BG@POHBKINF@?$AAw?$AAc?$AAs?$AAt?$AAo?$AAm?$AAb?$AAs?$AA?4?$AAc?$AA?$AA@ 10079294     LIBCMTD:wcstombs.obj
 0002:0000b2ac       ??_C@_1BK@OIBENBPM@?$AAp?$AAw?$AAc?$AAs?$AA?5?$AA?$CB?$AA?$DN?$AA?5?$AAN?$AAU?$AAL?$AAL?$AA?$AA@ 100792ac     LIBCMTD:wcstombs.obj
 0002:0000b2c8       ??_C@_1CM@KEOGBFLI@?$AAs?$AAi?$AAz?$AAe?$AAI?$AAn?$AAB?$AAy?$AAt?$AAe?$AAs?$AA?5?$AA?$DO?$AA?5?$AAr?$AAe?$AAt?$AAs?$AAi?$AAz?$AAe?$AA?$AA@ 100792c8     LIBCMTD:wcstombs.obj
 0002:0000b2f4       ??_C@_1BM@BDMCLLDL@?$AA_?$AAw?$AAc?$AAs?$AAt?$AAo?$AAm?$AAb?$AAs?$AA_?$AAs?$AA_?$AAl?$AA?$AA@ 100792f4     LIBCMTD:wcstombs.obj
 0002:0000b310       ??_C@_1IM@MFGKHGBP@?$AA?$CI?$AAd?$AAs?$AAt?$AA?5?$AA?$CB?$AA?$DN?$AA?5?$AAN?$AAU?$AAL?$AAL?$AA?5?$AA?$CG?$AA?$CG?$AA?5?$AAs?$AAi?$AAz?$AAe?$AAI?$AAn?$AAB?$AAy?$AAt?$AAe?$AAs?$AA?5?$AA?$DO?$AA?5?$AA0?$AA?$CJ@ 10079310     LIBCMTD:wcstombs.obj
 0002:0000b39c       ??_C@_1CE@IGKFIJFD@?$AA_?$AAv?$AAs?$AAw?$AAp?$AAr?$AAi?$AAn?$AAt?$AAf?$AA_?$AAh?$AAe?$AAl?$AAp?$AAe?$AAr?$AA?$AA@ 1007939c     LIBCMTD:vswprnc.obj
 0002:0000b3c0       ??_C@_1GE@ICPDLGGP@?$AAf?$AA?3?$AA?2?$AAs?$AAp?$AA?2?$AAv?$AAc?$AAt?$AAo?$AAo?$AAl?$AAs?$AA?2?$AAc?$AAr?$AAt?$AA_?$AAb?$AAl?$AAd?$AA?2?$AAs?$AAe?$AAl?$AAf?$AA_?$AAx?$AA8?$AA6?$AA?2?$AAc@ 100793c0     LIBCMTD:vswprnc.obj
 0002:0000b428       ??_C@_1EE@MPCHJFGP@?$AAs?$AAt?$AAr?$AAi?$AAn?$AAg?$AA?5?$AA?$CB?$AA?$DN?$AA?5?$AAN?$AAU?$AAL?$AAL?$AA?5?$AA?$CG?$AA?$CG?$AA?5?$AAs?$AAi?$AAz?$AAe?$AAI?$AAn?$AAW?$AAo?$AAr?$AAd?$AAs?$AA?5?$AA?$DO?$AA?5@ 10079428     LIBCMTD:vswprnc.obj
 0002:0000b46c       ??_C@_1BO@OALHJLCI@?$AA_?$AAv?$AAs?$AAw?$AAp?$AAr?$AAi?$AAn?$AAt?$AAf?$AA_?$AAs?$AA_?$AAl?$AA?$AA@ 1007946c     LIBCMTD:vswprnc.obj
 0002:0000b48c       ??_C@_1CA@BKFKMJFF@?$AA_?$AAv?$AAs?$AAn?$AAw?$AAp?$AAr?$AAi?$AAn?$AAt?$AAf?$AA_?$AAs?$AA_?$AAl?$AA?$AA@ 1007948c     LIBCMTD:vswprnc.obj
 0002:0000b4ac       __pDestructExceptionObject 100794ac     LIBCMTD:frame.obj
 0002:0000b4b0       ??_C@_0O@DPKOEFFH@bad?5exception?$AA@ 100794b0     LIBCMTD:frame.obj
 0002:0000b4c4       ??_7bad_exception@std@@6B@ 100794c4     LIBCMTD:frame.obj
 0002:0000b4cc       ??_C@_0O@NLDKAIKN@EncodePointer?$AA@ 100794cc     LIBCMTD:tidtable.obj
 0002:0000b4dc       ??_C@_0N@NHGLKGEC@KERNEL32?4DLL?$AA@ 100794dc     LIBCMTD:tidtable.obj
 0002:0000b4ec       ??_C@_07EPKMNAGK@?4mixcrt?$AA@ 100794ec     LIBCMTD:tidtable.obj
 0002:0000b4f4       ??_C@_0O@KBPMFGHI@DecodePointer?$AA@ 100794f4     LIBCMTD:tidtable.obj
 0002:0000b504       ??_C@_0L@JKCACIOJ@tidtable?4c?$AA@ 10079504     LIBCMTD:tidtable.obj
 0002:0000b510       ??_C@_07PEJMOBNF@FlsFree?$AA@ 10079510     LIBCMTD:tidtable.obj
 0002:0000b518       ??_C@_0M@JCPCPOEF@FlsSetValue?$AA@ 10079518     LIBCMTD:tidtable.obj
 0002:0000b524       ??_C@_0M@GDNOONDI@FlsGetValue?$AA@ 10079524     LIBCMTD:tidtable.obj
 0002:0000b530       ??_C@_08KNHFBNJ@FlsAlloc?$AA@ 10079530     LIBCMTD:tidtable.obj
 0002:0000b540       ??_C@_1HO@MLMGPAFH@?$AA?$CI?$AA?$CC?$AAi?$AAn?$AAc?$AAo?$AAn?$AAs?$AAi?$AAs?$AAt?$AAe?$AAn?$AAt?$AA?5?$AAI?$AAO?$AAB?$AA?5?$AAf?$AAi?$AAe?$AAl?$AAd?$AAs?$AA?$CC?$AA?0?$AA?5?$AAs?$AAt?$AAr?$AAe@ 10079540     LIBCMTD:_flsbuf.obj
 0002:0000b5c0       ??_C@_1BE@GOOJIKLI@?$AA_?$AAf?$AAl?$AAs?$AAb?$AAu?$AAf?$AA?4?$AAc?$AA?$AA@ 100795c0     LIBCMTD:_flsbuf.obj
 0002:0000b5d4       ??_C@_1BI@MFCLPIBM@?$AAs?$AAt?$AAr?$AA?5?$AA?$CB?$AA?$DN?$AA?5?$AAN?$AAU?$AAL?$AAL?$AA?$AA@ 100795d4     LIBCMTD:_flsbuf.obj
 0002:0000b5ec       ??_C@_1O@CEDCILHN@?$AA?$CI?$AAn?$AAu?$AAl?$AAl?$AA?$CJ?$AA?$AA@ 100795ec     LIBCMTD:output.obj
 0002:0000b5fc       ??_C@_06OJHGLDPL@?$CInull?$CJ?$AA@ 100795fc     LIBCMTD:output.obj
 0002:0000b608       ___lookuptable             10079608     LIBCMTD:output.obj
 0002:0000b664       ??_C@_08MEPFMIND@output?4c?$AA@ 10079664     LIBCMTD:output.obj
 0002:0000b670       ??_C@_1EK@PNGFDECN@?$AA?$CI?$AA?$CC?$AA?8?$AAn?$AA?8?$AA?5?$AAf?$AAo?$AAr?$AAm?$AAa?$AAt?$AA?5?$AAs?$AAp?$AAe?$AAc?$AAi?$AAf?$AAi?$AAe?$AAr?$AA?5?$AAd?$AAi?$AAs?$AAa?$AAb?$AAl?$AAe?$AAd?$AA?$CC@ 10079670     LIBCMTD:output.obj
 0002:0000b6bc       ??_C@_1CC@IFFHEMNF@?$AA?$CI?$AAc?$AAh?$AA?5?$AA?$CB?$AA?$DN?$AA?5?$AA_?$AAT?$AA?$CI?$AA?8?$AA?2?$AA0?$AA?8?$AA?$CJ?$AA?$CJ?$AA?$AA@ 100796bc     LIBCMTD:output.obj
 0002:0000b6e0       ??_C@_1BAE@CBLKKPB@?$AA?$CI?$AA?5?$AA?$CI?$AA_?$AAS?$AAt?$AAr?$AAe?$AAa?$AAm?$AA?9?$AA?$DO?$AA_?$AAf?$AAl?$AAa?$AAg?$AA?5?$AA?$CG?$AA?5?$AA_?$AAI?$AAO?$AAS?$AAT?$AAR?$AAG?$AA?$CJ?$AA?5?$AA?$HM?$AA?$HM?$AA?5@ 100796e0     LIBCMTD:output.obj
 0002:0000b7e4       ??_C@_1BE@IONLIDNC@?$AA_?$AAo?$AAu?$AAt?$AAp?$AAu?$AAt?$AA_?$AAl?$AA?$AA@ 100797e4     LIBCMTD:output.obj
 0002:0000b7f8       ??_C@_1BC@NHKJGCDC@?$AAo?$AAu?$AAt?$AAp?$AAu?$AAt?$AA?4?$AAc?$AA?$AA@ 100797f8     LIBCMTD:output.obj
 0002:0000b80c       ??_C@_1CC@FADMNIL@?$AA?$CI?$AAs?$AAt?$AAr?$AAe?$AAa?$AAm?$AA?5?$AA?$CB?$AA?$DN?$AA?5?$AAN?$AAU?$AAL?$AAL?$AA?$CJ?$AA?$AA@ 1007980c     LIBCMTD:output.obj
 0002:0000b830       ??_C@_1BG@KCMPBBDK@?$AA_?$AAg?$AAe?$AAt?$AA_?$AAe?$AAr?$AAr?$AAn?$AAo?$AA?$AA@ 10079830     LIBCMTD:dosmap.obj
 0002:0000b848       ??_C@_1BC@GFJPPMFE@?$AAd?$AAo?$AAs?$AAm?$AAa?$AAp?$AA?4?$AAc?$AA?$AA@ 10079848     LIBCMTD:dosmap.obj
 0002:0000b85c       ??_C@_1BM@INIPHHDD@?$AA_?$AAg?$AAe?$AAt?$AA_?$AAd?$AAo?$AAs?$AAe?$AAr?$AAr?$AAn?$AAo?$AA?$AA@ 1007985c     LIBCMTD:dosmap.obj
 0002:0000b878       ??_C@_1BI@IGILPKD@?$AA_?$AAv?$AAs?$AAp?$AAr?$AAi?$AAn?$AAt?$AAf?$AA_?$AAl?$AA?$AA@ 10079878     LIBCMTD:vsprintf.obj
 0002:0000b890       ??_C@_1BG@CBDPIEBA@?$AAv?$AAs?$AAp?$AAr?$AAi?$AAn?$AAt?$AAf?$AA?4?$AAc?$AA?$AA@ 10079890     LIBCMTD:vsprintf.obj
 0002:0000b8a8       ??_C@_1CE@HMKDJHB@?$AA_?$AAv?$AAs?$AAc?$AAp?$AAr?$AAi?$AAn?$AAt?$AAf?$AA_?$AAh?$AAe?$AAl?$AAp?$AAe?$AAr?$AA?$AA@ 100798a8     LIBCMTD:vsprintf.obj
 0002:0000b8cc       ??_C@_07CKDBCAPD@mlock?4c?$AA@ 100798cc     LIBCMTD:mlock.obj
 0002:0000b8d8       ??_C@_1NK@LOFHIHFC@?$AAf?$AAM?$AAo?$AAd?$AAe?$AA?5?$AA?$DN?$AA?$DN?$AA?5?$AA_?$AAC?$AAR?$AAT?$AAD?$AAB?$AAG?$AA_?$AAR?$AAE?$AAP?$AAO?$AAR?$AAT?$AA_?$AAM?$AAO?$AAD?$AAE?$AA?5?$AA?$HM?$AA?$HM?$AA?5@ 100798d8     LIBCMTD:dbgrptt.obj
 0002:0000b9b4       ??_C@_1CE@FIHIECNJ@?$AA_?$AAC?$AAr?$AAt?$AAS?$AAe?$AAt?$AAR?$AAe?$AAp?$AAo?$AAr?$AAt?$AAM?$AAo?$AAd?$AAe?$AA?$AA@ 100799b4     LIBCMTD:dbgrptt.obj
 0002:0000b9d8       ??_C@_1BE@FLKCNJCI@?$AAd?$AAb?$AAg?$AAr?$AAp?$AAt?$AAt?$AA?4?$AAc?$AA?$AA@ 100799d8     LIBCMTD:dbgrptt.obj
 0002:0000b9f0       ??_C@_1FA@IFFFOLDJ@?$AAn?$AAR?$AAp?$AAt?$AAT?$AAy?$AAp?$AAe?$AA?5?$AA?$DO?$AA?$DN?$AA?5?$AA0?$AA?5?$AA?$CG?$AA?$CG?$AA?5?$AAn?$AAR?$AAp?$AAt?$AAT?$AAy?$AAp?$AAe?$AA?5?$AA?$DM?$AA?5?$AA_?$AAC?$AAR?$AAT@ 100799f0     LIBCMTD:dbgrptt.obj
 0002:0000ba40       ??_C@_1CE@IKKEDCME@?$AA_?$AAC?$AAr?$AAt?$AAS?$AAe?$AAt?$AAR?$AAe?$AAp?$AAo?$AAr?$AAt?$AAF?$AAi?$AAl?$AAe?$AA?$AA@ 10079a40     LIBCMTD:dbgrptt.obj
 0002:0000ba68       ??_C@_1HO@PJOFIKFE@?$AA_?$AAC?$AAr?$AAt?$AAD?$AAb?$AAg?$AAR?$AAe?$AAp?$AAo?$AAr?$AAt?$AA?3?$AA?5?$AAS?$AAt?$AAr?$AAi?$AAn?$AAg?$AA?5?$AAt?$AAo?$AAo?$AA?5?$AAl?$AAo?$AAn?$AAg?$AA?5?$AAo@ 10079a68     LIBCMTD:dbgrptt.obj
 0002:0000bae8       ??_C@_1MC@IGEECMDB@?$AAw?$AAc?$AAs?$AAc?$AAp?$AAy?$AA_?$AAs?$AA?$CI?$AAs?$AAz?$AAO?$AAu?$AAt?$AAM?$AAe?$AAs?$AAs?$AAa?$AAg?$AAe?$AA2?$AA?0?$AA?5?$AA4?$AA0?$AA9?$AA6?$AA?0?$AA?5?$AAL?$AA?$CC@ 10079ae8     LIBCMTD:dbgrptt.obj
 0002:0000bbb0       ??_C@_1IM@OOKIFKOH@?$AAe?$AA?5?$AA?$DN?$AA?5?$AAm?$AAb?$AAs?$AAt?$AAo?$AAw?$AAc?$AAs?$AA_?$AAs?$AA?$CI?$AA?$CG?$AAr?$AAe?$AAt?$AA?0?$AA?5?$AAs?$AAz?$AAO?$AAu?$AAt?$AAM?$AAe?$AAs?$AAs?$AAa?$AAg@ 10079bb0     LIBCMTD:dbgrptt.obj
 0002:0000bc40       ??_C@_1FI@IBIOIHEG@?$AAs?$AAt?$AAr?$AAc?$AAp?$AAy?$AA_?$AAs?$AA?$CI?$AAs?$AAz?$AAO?$AAu?$AAt?$AAM?$AAe?$AAs?$AAs?$AAa?$AAg?$AAe?$AA?0?$AA?5?$AA4?$AA0?$AA9?$AA6?$AA?0?$AA?5?$AAs?$AAz?$AAL@ 10079c40     LIBCMTD:dbgrptt.obj
 0002:0000bc98       ??_C@_1JG@CPKCIOEE@?$AAs?$AAt?$AAr?$AAc?$AAp?$AAy?$AA_?$AAs?$AA?$CI?$AAs?$AAz?$AAO?$AAu?$AAt?$AAM?$AAe?$AAs?$AAs?$AAa?$AAg?$AAe?$AA?0?$AA?5?$AA4?$AA0?$AA9?$AA6?$AA?0?$AA?5?$AA?$CC?$AA_?$AAC@ 10079c98     LIBCMTD:dbgrptt.obj
 0002:0000bd30       ??_C@_0M@IPILFDFN@?$CFs?$CI?$CFd?$CJ?5?3?5?$CFs?$AA@ 10079d30     LIBCMTD:dbgrptt.obj
 0002:0000bd40       ??_C@_1EI@LDHJEDO@?$AAs?$AAt?$AAr?$AAc?$AAa?$AAt?$AA_?$AAs?$AA?$CI?$AAs?$AAz?$AAL?$AAi?$AAn?$AAe?$AAM?$AAe?$AAs?$AAs?$AAa?$AAg?$AAe?$AA?0?$AA?5?$AA4?$AA0?$AA9?$AA6?$AA?0?$AA?5?$AA?$CC?$AA?2@ 10079d40     LIBCMTD:dbgrptt.obj
 0002:0000bd88       ??_C@_01LIIJDEN@?$AN?$AA@  10079d88     LIBCMTD:dbgrptt.obj
 0002:0000bd90       ??_C@_1EI@CACDLAFK@?$AAs?$AAt?$AAr?$AAc?$AAa?$AAt?$AA_?$AAs?$AA?$CI?$AAs?$AAz?$AAL?$AAi?$AAn?$AAe?$AAM?$AAe?$AAs?$AAs?$AAa?$AAg?$AAe?$AA?0?$AA?5?$AA4?$AA0?$AA9?$AA6?$AA?0?$AA?5?$AA?$CC?$AA?2@ 10079d90     LIBCMTD:dbgrptt.obj
 0002:0000bdd8       ??_C@_1FK@NPGBPOFO@?$AAs?$AAt?$AAr?$AAc?$AAa?$AAt?$AA_?$AAs?$AA?$CI?$AAs?$AAz?$AAL?$AAi?$AAn?$AAe?$AAM?$AAe?$AAs?$AAs?$AAa?$AAg?$AAe?$AA?0?$AA?5?$AA4?$AA0?$AA9?$AA6?$AA?0?$AA?5?$AAs?$AAz@ 10079dd8     LIBCMTD:dbgrptt.obj
 0002:0000be38       ??_C@_1KK@GIGAEDMO@?$AAs?$AAt?$AAr?$AAc?$AAp?$AAy?$AA_?$AAs?$AA?$CI?$AAs?$AAz?$AAL?$AAi?$AAn?$AAe?$AAM?$AAe?$AAs?$AAs?$AAa?$AAg?$AAe?$AA?0?$AA?5?$AA4?$AA0?$AA9?$AA6?$AA?0?$AA?5?$AAs?$AAz@ 10079e38     LIBCMTD:dbgrptt.obj
 0002:0000bee4       ??_C@_0BD@CAENFOHP@Assertion?5failed?3?5?$AA@ 10079ee4     LIBCMTD:dbgrptt.obj
 0002:0000bef8       ??_C@_0CL@EACFGMNB@_CrtDbgReport?3?5String?5too?5long?5o@ 10079ef8     LIBCMTD:dbgrptt.obj
 0002:0000bf28       ??_C@_1JI@GAALPGBM@?$AAs?$AAt?$AAr?$AAc?$AAp?$AAy?$AA_?$AAs?$AA?$CI?$AAs?$AAz?$AAU?$AAs?$AAe?$AAr?$AAM?$AAe?$AAs?$AAs?$AAa?$AAg?$AAe?$AA?0?$AA?5?$AA4?$AA0?$AA9?$AA6?$AA?0?$AA?5?$AA?$CC?$AA_@ 10079f28     LIBCMTD:dbgrptt.obj
 0002:0000bfc0       ??_C@_07BHGABMGB@?0?5Line?5?$AA@ 10079fc0     LIBCMTD:dbgrptt.obj
 0002:0000bfc8       ??_C@_0P@DFJNDPOP@?$DMfile?5unknown?$DO?$AA@ 10079fc8     LIBCMTD:dbgrptt.obj
 0002:0000bfd8       ??_C@_0CG@BNGLOCEO@Second?5Chance?5Assertion?5Failed?3?5@ 10079fd8     LIBCMTD:dbgrptt.obj
 0002:0000c000       ??_C@_1FA@JPHJBHEM@?$AA_?$AAi?$AAt?$AAo?$AAa?$AA_?$AAs?$AA?$CI?$AAn?$AAL?$AAi?$AAn?$AAe?$AA?0?$AA?5?$AAs?$AAz?$AAL?$AAi?$AAn?$AAe?$AAM?$AAe?$AAs?$AAs?$AAa?$AAg?$AAe?$AA?0?$AA?5?$AA4?$AA0@ 1007a000     LIBCMTD:dbgrptt.obj
 0002:0000c050       ??_C@_1CA@KHJHLKA@?$AA_?$AAV?$AAC?$AAr?$AAt?$AAD?$AAb?$AAg?$AAR?$AAe?$AAp?$AAo?$AAr?$AAt?$AAA?$AA?$AA@ 1007a050     LIBCMTD:dbgrptt.obj
 0002:0000c070       ??_C@_1IE@CPGKIAGP@?$AAw?$AAc?$AAs?$AAt?$AAo?$AAm?$AAb?$AAs?$AA_?$AAs?$AA?$CI?$AA?$CG?$AAr?$AAe?$AAt?$AA?0?$AA?5?$AAs?$AAz?$AAa?$AAO?$AAu?$AAt?$AAM?$AAe?$AAs?$AAs?$AAa?$AAg?$AAe?$AA?0?$AA?5@ 1007a070     LIBCMTD:dbgrptt.obj
 0002:0000c0f8       ??_C@_1MA@LBAMNNOB@?$AAs?$AAt?$AAr?$AAc?$AAp?$AAy?$AA_?$AAs?$AA?$CI?$AAs?$AAz?$AAO?$AAu?$AAt?$AAM?$AAe?$AAs?$AAs?$AAa?$AAg?$AAe?$AA2?$AA?0?$AA?5?$AA4?$AA0?$AA9?$AA6?$AA?0?$AA?5?$AA?$CC?$AA_@ 1007a0f8     LIBCMTD:dbgrptt.obj
 0002:0000c1b8       ??_C@_1JC@EOAPFDLN@?$AAw?$AAc?$AAs?$AAt?$AAo?$AAm?$AAb?$AAs?$AA_?$AAs?$AA?$CI?$AA?$CI?$AA?$CI?$AAv?$AAo?$AAi?$AAd?$AA?5?$AA?$CK?$AA?$CJ?$AA0?$AA?$CJ?$AA?0?$AA?5?$AAs?$AAz?$AAO?$AAu?$AAt?$AAM?$AAe?$AAs@ 1007a1b8     LIBCMTD:dbgrptt.obj
 0002:0000c250       ??_C@_1FI@DBAIJPJE@?$AAw?$AAc?$AAs?$AAc?$AAp?$AAy?$AA_?$AAs?$AA?$CI?$AAs?$AAz?$AAO?$AAu?$AAt?$AAM?$AAe?$AAs?$AAs?$AAa?$AAg?$AAe?$AA?0?$AA?5?$AA4?$AA0?$AA9?$AA6?$AA?0?$AA?5?$AAs?$AAz?$AAL@ 1007a250     LIBCMTD:dbgrptt.obj
 0002:0000c2a8       ??_C@_1BI@JIDBEPIG@?$AA?$CF?$AAs?$AA?$CI?$AA?$CF?$AAd?$AA?$CJ?$AA?5?$AA?3?$AA?5?$AA?$CF?$AAs?$AA?$AA@ 1007a2a8     LIBCMTD:dbgrptt.obj
 0002:0000c2c0       ??_C@_1EK@PHCBEDKB@?$AAw?$AAc?$AAs?$AAc?$AAa?$AAt?$AA_?$AAs?$AA?$CI?$AAs?$AAz?$AAL?$AAi?$AAn?$AAe?$AAM?$AAe?$AAs?$AAs?$AAa?$AAg?$AAe?$AA?0?$AA?5?$AA4?$AA0?$AA9?$AA6?$AA?0?$AA?5?$AAL?$AA?$CC@ 1007a2c0     LIBCMTD:dbgrptt.obj
 0002:0000c30c       ??_C@_13CMNBPIDO@?$AA?$AN?$AA?$AA@ 1007a30c     LIBCMTD:dbgrptt.obj
 0002:0000c310       ??_C@_1EK@NMDFGHMF@?$AAw?$AAc?$AAs?$AAc?$AAa?$AAt?$AA_?$AAs?$AA?$CI?$AAs?$AAz?$AAL?$AAi?$AAn?$AAe?$AAM?$AAe?$AAs?$AAs?$AAa?$AAg?$AAe?$AA?0?$AA?5?$AA4?$AA0?$AA9?$AA6?$AA?0?$AA?5?$AAL?$AA?$CC@ 1007a310     LIBCMTD:dbgrptt.obj
 0002:0000c360       ??_C@_1FK@HPADHBBD@?$AAw?$AAc?$AAs?$AAc?$AAa?$AAt?$AA_?$AAs?$AA?$CI?$AAs?$AAz?$AAL?$AAi?$AAn?$AAe?$AAM?$AAe?$AAs?$AAs?$AAa?$AAg?$AAe?$AA?0?$AA?5?$AA4?$AA0?$AA9?$AA6?$AA?0?$AA?5?$AAs?$AAz@ 1007a360     LIBCMTD:dbgrptt.obj
 0002:0000c3c0       ??_C@_1KO@DGAHENCH@?$AAw?$AAc?$AAs?$AAc?$AAp?$AAy?$AA_?$AAs?$AA?$CI?$AAs?$AAz?$AAL?$AAi?$AAn?$AAe?$AAM?$AAe?$AAs?$AAs?$AAa?$AAg?$AAe?$AA?0?$AA?5?$AA4?$AA0?$AA9?$AA6?$AA?0?$AA?5?$AAs?$AAz@ 1007a3c0     LIBCMTD:dbgrptt.obj
 0002:0000c470       ??_C@_1CG@FFFGGODN@?$AAA?$AAs?$AAs?$AAe?$AAr?$AAt?$AAi?$AAo?$AAn?$AA?5?$AAf?$AAa?$AAi?$AAl?$AAe?$AAd?$AA?3?$AA?5?$AA?$AA@ 1007a470     LIBCMTD:dbgrptt.obj
 0002:0000c498       ??_C@_1JK@KHFABAEO@?$AAw?$AAc?$AAs?$AAc?$AAp?$AAy?$AA_?$AAs?$AA?$CI?$AAs?$AAz?$AAU?$AAs?$AAe?$AAr?$AAM?$AAe?$AAs?$AAs?$AAa?$AAg?$AAe?$AA?0?$AA?5?$AA4?$AA0?$AA9?$AA6?$AA?0?$AA?5?$AAL?$AA?$CC@ 1007a498     LIBCMTD:dbgrptt.obj
 0002:0000c534       ??_C@_1BA@ELMMDCFC@?$AA?0?$AA?5?$AAL?$AAi?$AAn?$AAe?$AA?5?$AA?$AA@ 1007a534     LIBCMTD:dbgrptt.obj
 0002:0000c544       ??_C@_1BO@OCHMLCAG@?$AA?$DM?$AAf?$AAi?$AAl?$AAe?$AA?5?$AAu?$AAn?$AAk?$AAn?$AAo?$AAw?$AAn?$AA?$DO?$AA?$AA@ 1007a544     LIBCMTD:dbgrptt.obj
 0002:0000c568       ??_C@_1EM@MJFLEDMB@?$AAS?$AAe?$AAc?$AAo?$AAn?$AAd?$AA?5?$AAC?$AAh?$AAa?$AAn?$AAc?$AAe?$AA?5?$AAA?$AAs?$AAs?$AAe?$AAr?$AAt?$AAi?$AAo?$AAn?$AA?5?$AAF?$AAa?$AAi?$AAl?$AAe?$AAd?$AA?3?$AA?5@ 1007a568     LIBCMTD:dbgrptt.obj
 0002:0000c5b8       ??_C@_1FA@CNLLOMHI@?$AA_?$AAi?$AAt?$AAo?$AAw?$AA_?$AAs?$AA?$CI?$AAn?$AAL?$AAi?$AAn?$AAe?$AA?0?$AA?5?$AAs?$AAz?$AAL?$AAi?$AAn?$AAe?$AAM?$AAe?$AAs?$AAs?$AAa?$AAg?$AAe?$AA?0?$AA?5?$AA4?$AA0@ 1007a5b8     LIBCMTD:dbgrptt.obj
 0002:0000c608       ??_C@_1CA@HPALHDOD@?$AA_?$AAV?$AAC?$AAr?$AAt?$AAD?$AAb?$AAg?$AAR?$AAe?$AAp?$AAo?$AAr?$AAt?$AAW?$AA?$AA@ 1007a608     LIBCMTD:dbgrptt.obj
 0002:0000c628       ??_C@_1BE@BMIJMLDD@?$AA_?$AAs?$AAw?$AAp?$AAr?$AAi?$AAn?$AAt?$AAf?$AA?$AA@ 1007a628     LIBCMTD:swprintf.obj
 0002:0000c63c       ??_C@_1BG@CEFLJIIJ@?$AAs?$AAw?$AAp?$AAr?$AAi?$AAn?$AAt?$AAf?$AA?4?$AAc?$AA?$AA@ 1007a63c     LIBCMTD:swprintf.obj
 0002:0000c654       ??_C@_1BI@JFCCCJAM@?$AAt?$AAy?$AAp?$AAn?$AAa?$AAm?$AAe?$AA?4?$AAc?$AAp?$AAp?$AA?$AA@ 1007a654     LIBCMTD:typname.obj
 0002:0000c66c       ??_C@_1CI@IDCGDBOP@?$AAp?$AAN?$AAo?$AAd?$AAe?$AA?9?$AA?$DO?$AAn?$AAe?$AAx?$AAt?$AA?5?$AA?$CB?$AA?$DN?$AA?5?$AAN?$AAU?$AAL?$AAL?$AA?$AA@ 1007a66c     LIBCMTD:typname.obj
 0002:0000c698       ??_C@_1JK@MLBKHELP@?$AAs?$AAt?$AAr?$AAc?$AAp?$AAy?$AA_?$AAs?$AA?5?$AA?$CI?$AA?$CI?$AAc?$AAh?$AAa?$AAr?$AA?5?$AA?$CK?$AA?$CJ?$AA?$CI?$AA?$CI?$AAt?$AAy?$AAp?$AAe?$AA_?$AAi?$AAn?$AAf?$AAo?$AA?5?$AA?$CK?$AA?$CJ@ 1007a698     LIBCMTD:typname.obj
 0002:0000c734       ??_C@_1CM@OOICDMK@?$AAt?$AAy?$AAp?$AAe?$AA_?$AAi?$AAn?$AAf?$AAo?$AA?3?$AA?3?$AA_?$AAN?$AAa?$AAm?$AAe?$AA_?$AAb?$AAa?$AAs?$AAe?$AA?$AA@ 1007a734     LIBCMTD:typname.obj
 0002:0000c760       ??_C@_1DO@OJJLFJPE@?$AAt?$AAy?$AAp?$AAe?$AA_?$AAi?$AAn?$AAf?$AAo?$AA?3?$AA?3?$AA_?$AAN?$AAa?$AAm?$AAe?$AA_?$AAb?$AAa?$AAs?$AAe?$AA_?$AAi?$AAn?$AAt?$AAe?$AAr?$AAn?$AAa?$AAl?$AA?$AA@ 1007a760     LIBCMTD:typname.obj
 0002:0000c7a0       ??_C@_1BI@OINOOFEA@?$AAh?$AAa?$AAn?$AAd?$AAl?$AAe?$AAr?$AA?4?$AAc?$AAp?$AAp?$AA?$AA@ 1007a7a0     LIBCMTD:handler.obj
 0002:0000c7b8       ??_C@_1BC@JLLICHIC@?$AAp?$AAn?$AAh?$AA?5?$AA?$DN?$AA?$DN?$AA?5?$AA0?$AA?$AA@ 1007a7b8     LIBCMTD:handler.obj
 0002:0000c7cc       ??_C@_0BB@NAGLCMLI@Assertion?5Failed?$AA@ 1007a7cc     LIBCMTD:dbgrpt.obj
 0002:0000c7e0       ??_C@_05NAOIJFC@Error?$AA@ 1007a7e0     LIBCMTD:dbgrpt.obj
 0002:0000c7e8       ??_C@_07KGMMFLDN@Warning?$AA@ 1007a7e8     LIBCMTD:dbgrpt.obj
 0002:0000c7f0       ??_C@_08ODMAMGBE@dbgrpt?4c?$AA@ 1007a7f0     LIBCMTD:dbgrpt.obj
 0002:0000c7fc       ??_C@_1CG@GNMJDMIO@?$AA_?$AAC?$AAr?$AAt?$AAS?$AAe?$AAt?$AAR?$AAe?$AAp?$AAo?$AAr?$AAt?$AAH?$AAo?$AAo?$AAk?$AA2?$AA?$AA@ 1007a7fc     LIBCMTD:dbgrpt.obj
 0002:0000c824       ??_C@_1BC@CBGBJLNL@?$AAd?$AAb?$AAg?$AAr?$AAp?$AAt?$AA?4?$AAc?$AA?$AA@ 1007a824     LIBCMTD:dbgrpt.obj
 0002:0000c838       ??_C@_0CD@EBCGLDDL@Microsoft?5Visual?5C?$CL?$CL?5Debug?5Libra@ 1007a838     LIBCMTD:dbgrpt.obj
 0002:0000c860       ??_C@_0FF@CCONDJCB@Debug?5?$CFs?$CB?6?6Program?3?5?$CFs?$CFs?$CFs?$CFs?$CFs?$CFs@ 1007a860     LIBCMTD:dbgrpt.obj
 0002:0000c8b8       ??_C@_09OFBFHMBK@?6Module?3?5?$AA@ 1007a8b8     LIBCMTD:dbgrpt.obj
 0002:0000c8c4       ??_C@_07OPHPPLBG@?6File?3?5?$AA@ 1007a8c4     LIBCMTD:dbgrpt.obj
 0002:0000c8cc       ??_C@_07DBMPPHDI@?6Line?3?5?$AA@ 1007a8cc     LIBCMTD:dbgrpt.obj
 0002:0000c8d8       ??_C@_0HD@GNBNFCCL@?6?6For?5information?5on?5how?5your?5pr@ 1007a8d8     LIBCMTD:dbgrpt.obj
 0002:0000c950       ??_C@_1KA@GHPEDBGI@?$AA_?$AAm?$AAb?$AAs?$AAn?$AAb?$AAc?$AAp?$AAy?$AA_?$AAs?$AA?$CI?$AAs?$AAz?$AAS?$AAh?$AAo?$AAr?$AAt?$AAP?$AAr?$AAo?$AAg?$AAN?$AAa?$AAm?$AAe?$AA?0?$AA?5?$AA2?$AA6?$AA0@ 1007a950     LIBCMTD:dbgrpt.obj
 0002:0000c9f0       ??_C@_1GG@DLDHOIGE@?$AAs?$AAt?$AAr?$AAc?$AAp?$AAy?$AA_?$AAs?$AA?$CI?$AAs?$AAz?$AAE?$AAx?$AAe?$AAN?$AAa?$AAm?$AAe?$AA?0?$AA?5?$AA2?$AA6?$AA0?$AA?0?$AA?5?$AA?$CC?$AA?$DM?$AAp?$AAr?$AAo?$AAg?$AAr@ 1007a9f0     LIBCMTD:dbgrpt.obj
 0002:0000ca58       ??_C@_1CI@IDOKFLAJ@?$AA_?$AA_?$AAc?$AAr?$AAt?$AAM?$AAe?$AAs?$AAs?$AAa?$AAg?$AAe?$AAW?$AAi?$AAn?$AAd?$AAo?$AAw?$AAA?$AA?$AA@ 1007aa58     LIBCMTD:dbgrpt.obj
 0002:0000ca80       ??_C@_1BK@JMCGJOCC@?$AA_?$AAe?$AAx?$AAp?$AAa?$AAn?$AAd?$AA_?$AAb?$AAa?$AAs?$AAe?$AA?$AA@ 1007aa80     LIBCMTD:expand.obj
 0002:0000ca9c       ??_C@_1BC@OBICIAFI@?$AAe?$AAx?$AAp?$AAa?$AAn?$AAd?$AA?4?$AAc?$AA?$AA@ 1007aa9c     LIBCMTD:expand.obj
 0002:0000cab0       ??_C@_1BO@KFIJIAEA@?$AAp?$AAB?$AAl?$AAo?$AAc?$AAk?$AA?5?$AA?$CB?$AA?$DN?$AA?5?$AAN?$AAU?$AAL?$AAL?$AA?$AA@ 1007aab0     LIBCMTD:expand.obj
 0002:0000cad0       ??_C@_1BO@EMPIBJGC@?$AA_?$AAr?$AAe?$AAc?$AAa?$AAl?$AAl?$AAo?$AAc?$AA_?$AAb?$AAa?$AAs?$AAe?$AA?$AA@ 1007aad0     LIBCMTD:realloc.obj
 0002:0000caf0       ??_C@_1BE@IAPDAHOE@?$AAr?$AAe?$AAa?$AAl?$AAl?$AAo?$AAc?$AA?4?$AAc?$AA?$AA@ 1007aaf0     LIBCMTD:realloc.obj
 0002:0000cb04       ??_C@_1BM@DKJOGMJM@?$AA_?$AA_?$AAh?$AAe?$AAa?$AAp?$AA_?$AAs?$AAe?$AAl?$AAe?$AAc?$AAt?$AA?$AA@ 1007ab04     LIBCMTD:heapinit.obj
 0002:0000cb20       ??_C@_1BG@INAAHHLF@?$AAh?$AAe?$AAa?$AAp?$AAi?$AAn?$AAi?$AAt?$AA?4?$AAc?$AA?$AA@ 1007ab20     LIBCMTD:heapinit.obj
 0002:0000cb38       ??_C@_1BC@DENNNKIM@?$AA_?$AAc?$AAr?$AAt?$AAh?$AAe?$AAa?$AAp?$AA?$AA@ 1007ab38     LIBCMTD:heapinit.obj
 0002:0000cb4c       ??_C@_1BC@IMNOJJAO@?$AAs?$AAb?$AAh?$AAe?$AAa?$AAp?$AA?4?$AAc?$AA?$AA@ 1007ab4c     LIBCMTD:sbheap.obj
 0002:0000cb60       ??_C@_1IC@MOGBEBCE@?$AA?$CI?$AAt?$AAh?$AAr?$AAe?$AAs?$AAh?$AAo?$AAl?$AAd?$AA?5?$AA?$DM?$AA?$DN?$AA?5?$AAM?$AAA?$AAX?$AA_?$AAA?$AAL?$AAL?$AAO?$AAC?$AA_?$AAD?$AAA?$AAT?$AAA?$AA_?$AAS?$AAI?$AAZ@ 1007ab60     LIBCMTD:sbheap.obj
 0002:0000cbe4       ??_C@_1CG@BBFCGKBK@?$AA_?$AAs?$AAe?$AAt?$AA_?$AAs?$AAb?$AAh?$AA_?$AAt?$AAh?$AAr?$AAe?$AAs?$AAh?$AAo?$AAl?$AAd?$AA?$AA@ 1007abe4     LIBCMTD:sbheap.obj
 0002:0000cc10       ??_C@_1EC@DACAONFE@?$AAt?$AAh?$AAr?$AAe?$AAs?$AAh?$AAo?$AAl?$AAd?$AA?5?$AA?$DM?$AA?$DN?$AA?5?$AAM?$AAA?$AAX?$AA_?$AAA?$AAL?$AAL?$AAO?$AAC?$AA_?$AAD?$AAA?$AAT?$AAA?$AA_?$AAS?$AAI?$AAZ?$AAE@ 1007ac10     LIBCMTD:sbheap.obj
 0002:0000cc54       ??_C@_1BM@GFNECEDD@?$AA_?$AAs?$AAe?$AAt?$AA_?$AAa?$AAm?$AAb?$AAl?$AAk?$AAs?$AAi?$AAz?$AA?$AA@ 1007ac54     LIBCMTD:sbheap.obj
 0002:0000cc70       ??_C@_1DK@BKLENMLC@?$AA0?$AA?5?$AA?$DM?$AA?5?$AAs?$AAi?$AAz?$AAe?$AA?5?$AA?$CG?$AA?$CG?$AA?5?$AAs?$AAi?$AAz?$AAe?$AA?5?$AA?$DM?$AA?$DN?$AA?5?$AAU?$AAI?$AAN?$AAT?$AA_?$AAM?$AAA?$AAX?$AA?$AA@ 1007ac70     LIBCMTD:sbheap.obj
 0002:0000ccac       ??_C@_1BM@OFBCOJJF@?$AA_?$AAg?$AAe?$AAt?$AA_?$AAa?$AAm?$AAb?$AAl?$AAk?$AAs?$AAi?$AAz?$AA?$AA@ 1007acac     LIBCMTD:sbheap.obj
 0002:0000ccc8       ??_C@_1BM@IELHFPPM@?$AAp?$AAS?$AAi?$AAz?$AAe?$AA?5?$AA?$CB?$AA?$DN?$AA?5?$AAN?$AAU?$AAL?$AAL?$AA?$AA@ 1007acc8     LIBCMTD:sbheap.obj
 0002:0000cce4       ??_C@_09KJLOAKHC@mbctype?4c?$AA@ 1007ace4     LIBCMTD:mbctype.obj
 0002:0000ccf0       ??_C@_07LCBHPJJN@LC_TIME?$AA@ 1007acf0     LIBCMTD:setlocal.obj
 0002:0000ccf8       ??_C@_0L@DLHIECNL@LC_NUMERIC?$AA@ 1007acf8     LIBCMTD:setlocal.obj
 0002:0000cd04       ??_C@_0M@MIENIKLA@LC_MONETARY?$AA@ 1007ad04     LIBCMTD:setlocal.obj
 0002:0000cd10       ??_C@_08EADHIDAD@LC_CTYPE?$AA@ 1007ad10     LIBCMTD:setlocal.obj
 0002:0000cd1c       ??_C@_0L@KFJHEKIK@LC_COLLATE?$AA@ 1007ad1c     LIBCMTD:setlocal.obj
 0002:0000cd28       ??_C@_06NEFDFEKB@LC_ALL?$AA@ 1007ad28     LIBCMTD:setlocal.obj
 0002:0000cd30       ___lc_category             1007ad30     LIBCMTD:setlocal.obj
 0002:0000cdf8       ??_C@_1BG@PFHEEGCP@?$AAs?$AAe?$AAt?$AAl?$AAo?$AAc?$AAa?$AAl?$AA?4?$AAc?$AA?$AA@ 1007adf8     LIBCMTD:setlocal.obj
 0002:0000ce10       ??_C@_1BKC@GGIENNAK@?$AA?$CI?$AA?$CI?$AAp?$AAt?$AAl?$AAo?$AAc?$AAi?$AA?9?$AA?$DO?$AAl?$AAc?$AA_?$AAc?$AAa?$AAt?$AAe?$AAg?$AAo?$AAr?$AAy?$AA?$FL?$AAc?$AAa?$AAt?$AAe?$AAg?$AAo?$AAr?$AAy?$AA?$FN?$AA?4@ 1007ae10     LIBCMTD:setlocal.obj
 0002:0000cfb4       ??_C@_1CI@FGIONOJM@?$AA_?$AAc?$AAo?$AAn?$AAf?$AAi?$AAg?$AAt?$AAh?$AAr?$AAe?$AAa?$AAd?$AAl?$AAo?$AAc?$AAa?$AAl?$AAe?$AA?$AA@ 1007afb4     LIBCMTD:setlocal.obj
 0002:0000cfe0       ??_C@_1GA@LDEGDKD@?$AA?$CI?$AA?$CC?$AAI?$AAn?$AAv?$AAa?$AAl?$AAi?$AAd?$AA?5?$AAp?$AAa?$AAr?$AAa?$AAm?$AAe?$AAt?$AAe?$AAr?$AA?5?$AAf?$AAo?$AAr?$AA?5?$AA_?$AAc?$AAo?$AAn?$AAf?$AAi?$AAg?$AAt@ 1007afe0     LIBCMTD:setlocal.obj
 0002:0000d040       ??_C@_0L@LEECJGMI@setlocal?4c?$AA@ 1007b040     LIBCMTD:setlocal.obj
 0002:0000d04c       ??_C@_1BE@DBJGBOJC@?$AAs?$AAe?$AAt?$AAl?$AAo?$AAc?$AAa?$AAl?$AAe?$AA?$AA@ 1007b04c     LIBCMTD:setlocal.obj
 0002:0000d060       ??_C@_1FG@OHLFEKMC@?$AAL?$AAC?$AA_?$AAM?$AAI?$AAN?$AA?5?$AA?$DM?$AA?$DN?$AA?5?$AA_?$AAc?$AAa?$AAt?$AAe?$AAg?$AAo?$AAr?$AAy?$AA?5?$AA?$CG?$AA?$CG?$AA?5?$AA_?$AAc?$AAa?$AAt?$AAe?$AAg?$AAo?$AAr?$AAy@ 1007b060     LIBCMTD:setlocal.obj
 0002:0000d0b8       ??_C@_1IA@PFIKKKFB@?$AAs?$AAt?$AAr?$AAn?$AAc?$AAp?$AAy?$AA_?$AAs?$AA?$CI?$AAl?$AAc?$AAt?$AAe?$AAm?$AAp?$AA?0?$AA?5?$AA?$CI?$AAs?$AAi?$AAz?$AAe?$AAo?$AAf?$AA?$CI?$AAl?$AAc?$AAt?$AAe?$AAm?$AAp@ 1007b0b8     LIBCMTD:setlocal.obj
 0002:0000d138       ??_C@_1CE@OFNHIOO@?$AA_?$AAs?$AAe?$AAt?$AAl?$AAo?$AAc?$AAa?$AAl?$AAe?$AA_?$AAn?$AAo?$AAl?$AAo?$AAc?$AAk?$AA?$AA@ 1007b138     LIBCMTD:setlocal.obj
 0002:0000d15c       ??_C@_02BALPLPBG@?$DN?$DL?$AA@ 1007b15c     LIBCMTD:setlocal.obj
 0002:0000d160       ??_C@_1GO@JALHLJEH@?$AAs?$AAt?$AAr?$AAc?$AAp?$AAy?$AA_?$AAs?$AA?$CI?$AAp?$AAc?$AAh?$AA?5?$AA?$CL?$AA?5?$AAs?$AAi?$AAz?$AAe?$AAo?$AAf?$AA?$CI?$AAi?$AAn?$AAt?$AA?$CJ?$AA?0?$AA?5?$AAc?$AAc?$AAh?$AA?5@ 1007b160     LIBCMTD:setlocal.obj
 0002:0000d1d0       ??_C@_1CG@IEFIICPK@?$AA_?$AAs?$AAe?$AAt?$AAl?$AAo?$AAc?$AAa?$AAl?$AAe?$AA_?$AAs?$AAe?$AAt?$AA_?$AAc?$AAa?$AAt?$AA?$AA@ 1007b1d0     LIBCMTD:setlocal.obj
 0002:0000d1f8       ??_C@_1DA@GDKKLCLM@?$AAs?$AAt?$AAr?$AAc?$AAa?$AAt?$AA_?$AAs?$AA?$CI?$AAp?$AAc?$AAh?$AA?0?$AA?5?$AAc?$AAc?$AAh?$AA?0?$AA?5?$AA?$CC?$AA?$DL?$AA?$CC?$AA?$CJ?$AA?$AA@ 1007b1f8     LIBCMTD:setlocal.obj
 0002:0000d228       ??_C@_1CG@NNFIJLDA@?$AA_?$AAs?$AAe?$AAt?$AAl?$AAo?$AAc?$AAa?$AAl?$AAe?$AA_?$AAg?$AAe?$AAt?$AA_?$AAa?$AAl?$AAl?$AA?$AA@ 1007b228     LIBCMTD:setlocal.obj
 0002:0000d250       ??_C@_1FA@MHAOOIBO@?$AAs?$AAt?$AAr?$AAc?$AAp?$AAy?$AA_?$AAs?$AA?$CI?$AAo?$AAu?$AAt?$AAp?$AAu?$AAt?$AA?0?$AA?5?$AAs?$AAi?$AAz?$AAe?$AAI?$AAn?$AAC?$AAh?$AAa?$AAr?$AAs?$AA?0?$AA?5?$AAc?$AAa@ 1007b250     LIBCMTD:setlocal.obj
 0002:0000d2a0       ??_C@_1IA@ONNFOEDA@?$AAs?$AAt?$AAr?$AAn?$AAc?$AAp?$AAy?$AA_?$AAs?$AA?$CI?$AAc?$AAa?$AAc?$AAh?$AAe?$AAi?$AAn?$AA?0?$AA?5?$AAc?$AAa?$AAc?$AAh?$AAe?$AAi?$AAn?$AAS?$AAi?$AAz?$AAe?$AA?0?$AA?5@ 1007b2a0     LIBCMTD:setlocal.obj
 0002:0000d320       ??_C@_01GFHCPBMG@C?$AA@    1007b320     LIBCMTD:setlocal.obj
 0002:0000d328       ??_C@_1EG@MOMHKOD@?$AAs?$AAt?$AAr?$AAc?$AAp?$AAy?$AA_?$AAs?$AA?$CI?$AAo?$AAu?$AAt?$AAp?$AAu?$AAt?$AA?0?$AA?5?$AAs?$AAi?$AAz?$AAe?$AAI?$AAn?$AAC?$AAh?$AAa?$AAr?$AAs?$AA?0?$AA?5?$AA?$CC?$AAC@ 1007b328     LIBCMTD:setlocal.obj
 0002:0000d370       ??_C@_1BM@OIIBLEFG@?$AA_?$AAe?$AAx?$AAp?$AAa?$AAn?$AAd?$AAl?$AAo?$AAc?$AAa?$AAl?$AAe?$AA?$AA@ 1007b370     LIBCMTD:setlocal.obj
 0002:0000d390       ??_C@_1BGM@IJDLABMC@?$AAs?$AAt?$AAr?$AAc?$AAa?$AAt?$AA_?$AAs?$AA?$CI?$AAo?$AAu?$AAt?$AAs?$AAt?$AAr?$AA?0?$AA?5?$AAs?$AAi?$AAz?$AAe?$AAI?$AAn?$AAB?$AAy?$AAt?$AAe?$AAs?$AA?0?$AA?5?$AA?$CI?$AA?5@ 1007b390     LIBCMTD:setlocal.obj
 0002:0000d4fc       ??_C@_1BC@PIABMDIP@?$AA_?$AAs?$AAt?$AAr?$AAc?$AAa?$AAt?$AAs?$AA?$AA@ 1007b4fc     LIBCMTD:setlocal.obj
 0002:0000d510       ??_C@_1MM@NOPMGFHF@?$AAs?$AAt?$AAr?$AAn?$AAc?$AAp?$AAy?$AA_?$AAs?$AA?$CI?$AAn?$AAa?$AAm?$AAe?$AAs?$AA?9?$AA?$DO?$AAs?$AAz?$AAC?$AAo?$AAd?$AAe?$AAP?$AAa?$AAg?$AAe?$AA?0?$AA?5?$AA?$CI?$AAs?$AAi@ 1007b510     LIBCMTD:setlocal.obj
 0002:0000d5e0       ??_C@_1MG@PHNILIAG@?$AAs?$AAt?$AAr?$AAn?$AAc?$AAp?$AAy?$AA_?$AAs?$AA?$CI?$AAn?$AAa?$AAm?$AAe?$AAs?$AA?9?$AA?$DO?$AAs?$AAz?$AAC?$AAo?$AAu?$AAn?$AAt?$AAr?$AAy?$AA?0?$AA?5?$AA?$CI?$AAs?$AAi?$AAz@ 1007b5e0     LIBCMTD:setlocal.obj
 0002:0000d6a8       ??_C@_1MM@BFEECMAF@?$AAs?$AAt?$AAr?$AAn?$AAc?$AAp?$AAy?$AA_?$AAs?$AA?$CI?$AAn?$AAa?$AAm?$AAe?$AAs?$AA?9?$AA?$DO?$AAs?$AAz?$AAL?$AAa?$AAn?$AAg?$AAu?$AAa?$AAg?$AAe?$AA?0?$AA?5?$AA?$CI?$AAs?$AAi@ 1007b6a8     LIBCMTD:setlocal.obj
 0002:0000d774       ??_C@_03EGDHDPFD@_?4?0?$AA@ 1007b774     LIBCMTD:setlocal.obj
 0002:0000d778       ??_C@_1NG@FMOPGKGG@?$AAs?$AAt?$AAr?$AAn?$AAc?$AAp?$AAy?$AA_?$AAs?$AA?$CI?$AAn?$AAa?$AAm?$AAe?$AAs?$AA?9?$AA?$DO?$AAs?$AAz?$AAC?$AAo?$AAd?$AAe?$AAP?$AAa?$AAg?$AAe?$AA?0?$AA?5?$AA?$CI?$AAs?$AAi@ 1007b778     LIBCMTD:setlocal.obj
 0002:0000d850       ??_C@_1BK@CBMMLAGJ@?$AA_?$AA_?$AAl?$AAc?$AA_?$AAs?$AAt?$AAr?$AAt?$AAo?$AAl?$AAc?$AA?$AA@ 1007b850     LIBCMTD:setlocal.obj
 0002:0000d86c       ??_C@_01IDAFKMJL@_?$AA@    1007b86c     LIBCMTD:setlocal.obj
 0002:0000d870       ??_C@_1HC@IBDBLKCB@?$AAs?$AAt?$AAr?$AAc?$AAp?$AAy?$AA_?$AAs?$AA?$CI?$AAl?$AAo?$AAc?$AAa?$AAl?$AAe?$AA?0?$AA?5?$AAs?$AAi?$AAz?$AAe?$AAI?$AAn?$AAB?$AAy?$AAt?$AAe?$AAs?$AA?0?$AA?5?$AA?$CI?$AAc@ 1007b870     LIBCMTD:setlocal.obj
 0002:0000d8e4       ??_C@_1BK@FGDJDEPG@?$AA_?$AA_?$AAl?$AAc?$AA_?$AAl?$AAc?$AAt?$AAo?$AAs?$AAt?$AAr?$AA?$AA@ 1007b8e4     LIBCMTD:setlocal.obj
 0002:0000d900       ??_C@_1BE@CEKCJJBD@?$AAi?$AAs?$AAc?$AAt?$AAy?$AAp?$AAe?$AA?4?$AAc?$AA?$AA@ 1007b900     LIBCMTD:isctype.obj
 0002:0000d914       ??_C@_1DC@BPLPALML@?$AA?$CI?$AAu?$AAn?$AAs?$AAi?$AAg?$AAn?$AAe?$AAd?$AA?$CJ?$AA?$CI?$AAc?$AA?5?$AA?$CL?$AA?5?$AA1?$AA?$CJ?$AA?5?$AA?$DM?$AA?$DN?$AA?5?$AA2?$AA5?$AA6?$AA?$AA@ 1007b914     LIBCMTD:isctype.obj
 0002:0000d948       ??_C@_08MAFBHINM@ioinit?4c?$AA@ 1007b948     LIBCMTD:ioinit.obj
 0002:0000d954       ??_C@_1DE@MMOGFGHF@?$AAs?$AAt?$AAr?$AAc?$AAp?$AAy?$AA_?$AAs?$AA?$CI?$AA?$CK?$AAe?$AAn?$AAv?$AA?0?$AA?5?$AAc?$AAc?$AAh?$AAa?$AAr?$AAs?$AA?0?$AA?5?$AAp?$AA?$CJ?$AA?$AA@ 1007b954     LIBCMTD:stdenvp.obj
 0002:0000d988       ??_C@_1BC@GHMCNHHL@?$AA_?$AAs?$AAe?$AAt?$AAe?$AAn?$AAv?$AAp?$AA?$AA@ 1007b988     LIBCMTD:stdenvp.obj
 0002:0000d99c       ??_C@_1BE@DFNOPGHI@?$AAs?$AAt?$AAd?$AAe?$AAn?$AAv?$AAp?$AA?4?$AAc?$AA?$AA@ 1007b99c     LIBCMTD:stdenvp.obj
 0002:0000d9b0       ??_C@_09HCDLHOJP@stdenvp?4c?$AA@ 1007b9b0     LIBCMTD:stdenvp.obj
 0002:0000d9bc       ??_C@_09IKILHJIC@stdargv?4c?$AA@ 1007b9bc     LIBCMTD:stdargv.obj
 0002:0000d9c8       ??_C@_07BPGNOCOG@a_env?4c?$AA@ 1007b9c8     LIBCMTD:a_env.obj
 0002:0000d9d0       ??_C@_1BA@BMMDEPNE@?$AAs?$AAt?$AAr?$AAt?$AAo?$AAx?$AAq?$AA?$AA@ 1007b9d0     LIBCMTD:strtoq.obj
 0002:0000d9e0       ??_C@_1BC@MIDDLJDN@?$AAs?$AAt?$AAr?$AAt?$AAo?$AAq?$AA?4?$AAc?$AA?$AA@ 1007b9e0     LIBCMTD:strtoq.obj
 0002:0000d9f4       ??_C@_1CA@CBMNPEO@?$AAs?$AAi?$AAz?$AAe?$AAI?$AAn?$AAB?$AAy?$AAt?$AAe?$AAs?$AA?5?$AA?$DO?$AA?5?$AA0?$AA?$AA@ 1007b9f4     LIBCMTD:cvt.obj
 0002:0000da14       ??_C@_1BC@INKAPMHI@?$AA_?$AAc?$AAf?$AAt?$AAo?$AAe?$AA_?$AAl?$AA?$AA@ 1007ba14     LIBCMTD:cvt.obj
 0002:0000da28       ??_C@_1M@BMJONBHG@?$AAc?$AAv?$AAt?$AA?4?$AAc?$AA?$AA@ 1007ba28     LIBCMTD:cvt.obj
 0002:0000da34       ??_C@_05KLBDPFGC@e?$CL000?$AA@ 1007ba34     LIBCMTD:cvt.obj
 0002:0000da40       ??_C@_1LE@EOIFGNCJ@?$AAs?$AAt?$AAr?$AAc?$AAp?$AAy?$AA_?$AAs?$AA?$CI?$AAp?$AA?0?$AA?5?$AA?$CI?$AAs?$AAi?$AAz?$AAe?$AAI?$AAn?$AAB?$AAy?$AAt?$AAe?$AAs?$AA?5?$AA?$DN?$AA?$DN?$AA?5?$AA?$CI?$AAs?$AAi?$AAz@ 1007ba40     LIBCMTD:cvt.obj
 0002:0000daf8       ??_C@_1HE@NACBNDPP@?$AAs?$AAi?$AAz?$AAe?$AAI?$AAn?$AAB?$AAy?$AAt?$AAe?$AAs?$AA?5?$AA?$DO?$AA?5?$AA?$CI?$AAs?$AAi?$AAz?$AAe?$AA_?$AAt?$AA?$CJ?$AA?$CI?$AA3?$AA?5?$AA?$CL?$AA?5?$AA?$CI?$AAn?$AAd?$AAe?$AAc@ 1007baf8     LIBCMTD:cvt.obj
 0002:0000db6c       ??_C@_1BE@OLBNEILL@?$AA_?$AAc?$AAf?$AAt?$AAo?$AAe?$AA2?$AA_?$AAl?$AA?$AA@ 1007bb6c     LIBCMTD:cvt.obj
 0002:0000db80       ??_C@_1FC@IKIMAMJB@?$AAs?$AAi?$AAz?$AAe?$AAI?$AAn?$AAB?$AAy?$AAt?$AAe?$AAs?$AA?5?$AA?$DO?$AA?5?$AA?$CI?$AAs?$AAi?$AAz?$AAe?$AA_?$AAt?$AA?$CJ?$AA?$CI?$AA1?$AA?5?$AA?$CL?$AA?5?$AA4?$AA?5?$AA?$CL?$AA?5?$AAn@ 1007bb80     LIBCMTD:cvt.obj
 0002:0000dbd4       ??_C@_1BC@JOKPCIC@?$AA_?$AAc?$AAf?$AAt?$AAo?$AAa?$AA_?$AAl?$AA?$AA@ 1007bbd4     LIBCMTD:cvt.obj
 0002:0000dbe8       ??_C@_1BC@DCPPLJL@?$AA_?$AAc?$AAf?$AAt?$AAo?$AAf?$AA_?$AAl?$AA?$AA@ 1007bbe8     LIBCMTD:cvt.obj
 0002:0000dbfc       ??_C@_1BE@CKPDLI@?$AA_?$AAc?$AAf?$AAt?$AAo?$AAf?$AA2?$AA_?$AAl?$AA?$AA@ 1007bbfc     LIBCMTD:cvt.obj
 0002:0000dc10       ??_C@_1BC@MPIFPLAF@?$AA_?$AAc?$AAf?$AAt?$AAo?$AAg?$AA_?$AAl?$AA?$AA@ 1007bc10     LIBCMTD:cvt.obj
 0002:0000dc28       ??_C@_1FK@KODCOBKF@?$AAs?$AAt?$AAr?$AAc?$AAp?$AAy?$AA_?$AAs?$AA?$CI?$AAr?$AAe?$AAs?$AAu?$AAl?$AAt?$AAs?$AAt?$AAr?$AA?0?$AA?5?$AAr?$AAe?$AAs?$AAu?$AAl?$AAt?$AAs?$AAi?$AAz?$AAe?$AA?0?$AA?5@ 1007bc28     LIBCMTD:cfout.obj
 0002:0000dc84       ??_C@_1BC@BPMMEHLK@?$AA_?$AAf?$AAl?$AAt?$AAo?$AAu?$AAt?$AA2?$AA?$AA@ 1007bc84     LIBCMTD:cfout.obj
 0002:0000dc98       ??_C@_1BA@BFLFHCE@?$AAc?$AAf?$AAo?$AAu?$AAt?$AA?4?$AAc?$AA?$AA@ 1007bc98     LIBCMTD:cfout.obj
 0002:0000dca8       ??_C@_1GE@KOCFNGPB@?$AA_?$AAc?$AAo?$AAn?$AAt?$AAr?$AAo?$AAl?$AAf?$AAp?$AA_?$AAs?$AA?$CI?$AA?$CI?$AA?$CI?$AAv?$AAo?$AAi?$AAd?$AA?5?$AA?$CK?$AA?$CJ?$AA0?$AA?$CJ?$AA?0?$AA?5?$AA0?$AAx?$AA0?$AA0?$AA0?$AA1@ 1007bca8     LIBCMTD:fp8.obj
 0002:0000dd0c       ??_C@_1CK@JMKHCBEI@?$AA_?$AAs?$AAe?$AAt?$AAd?$AAe?$AAf?$AAa?$AAu?$AAl?$AAt?$AAp?$AAr?$AAe?$AAc?$AAi?$AAs?$AAi?$AAo?$AAn?$AA?$AA@ 1007bd0c     LIBCMTD:fp8.obj
 0002:0000dd38       ??_C@_1BI@DMMHIADH@?$AAi?$AAn?$AAt?$AAe?$AAl?$AA?2?$AAf?$AAp?$AA8?$AA?4?$AAc?$AA?$AA@ 1007bd38     LIBCMTD:fp8.obj
 0002:0000dd50       __real@3ff0000000000000    1007bd50     LIBCMTD:testfdiv.obj
 0002:0000dd58       __real@4150017ec0000000    1007bd58     LIBCMTD:testfdiv.obj
 0002:0000dd60       __real@4147ffff80000000    1007bd60     LIBCMTD:testfdiv.obj
 0002:0000dd68       ??_C@_0BK@NHEOCAHP@IsProcessorFeaturePresent?$AA@ 1007bd68     LIBCMTD:testfdiv.obj
 0002:0000dd84       ??_C@_08CPNIBGIE@KERNEL32?$AA@ 1007bd84     LIBCMTD:testfdiv.obj
 0002:0000dd90       ??_C@_0M@EKFFODEC@MSPDB80?4DLL?$AA@ 1007bd90     LIBCMTD:pdblkup.obj
 0002:0000dd9c       ??_C@_01KDCPPGHE@r?$AA@    1007bd9c     LIBCMTD:pdblkup.obj
 0002:0000dda0       ??_C@_0BB@KCIACLNC@PDBOpenValidate5?$AA@ 1007bda0     LIBCMTD:pdblkup.obj
 0002:0000ddb4       ??_C@_0BF@BMIHBHCA@EnvironmentDirectory?$AA@ 1007bdb4     LIBCMTD:pdblkup.obj
 0002:0000ddcc       ??_C@_0CN@EAEOKKOC@SOFTWARE?2Microsoft?2VisualStudio?2@ 1007bdcc     LIBCMTD:pdblkup.obj
 0002:0000ddfc       ??_C@_0M@HLOHPNFA@RegCloseKey?$AA@ 1007bdfc     LIBCMTD:pdblkup.obj
 0002:0000de08       ??_C@_0BB@HHEIPGME@RegQueryValueExA?$AA@ 1007be08     LIBCMTD:pdblkup.obj
 0002:0000de1c       ??_C@_0O@DCOGKJGG@RegOpenKeyExA?$AA@ 1007be1c     LIBCMTD:pdblkup.obj
 0002:0000de2c       ??_C@_0N@JJPEKNFO@ADVAPI32?4DLL?$AA@ 1007be2c     LIBCMTD:pdblkup.obj
 0002:0000de40       ___lookuptable_s           1007be40     LIBCMTD:outputs.obj
 0002:0000dea0       ??_C@_1FK@LNCFKALM@?$AA?$CI?$AA?$CI?$AAs?$AAt?$AAa?$AAt?$AAe?$AA?5?$AA?$DN?$AA?$DN?$AA?5?$AAS?$AAT?$AA_?$AAN?$AAO?$AAR?$AAM?$AAA?$AAL?$AA?$CJ?$AA?5?$AA?$HM?$AA?$HM?$AA?5?$AA?$CI?$AAs?$AAt?$AAa?$AAt?$AAe?$AA?5@ 1007bea0     LIBCMTD:outputs.obj
 0002:0000defc       ??_C@_0DA@FHGIAEAH@f?3?2sp?2vctools?2crt_bld?2self_x86?2c@ 1007befc     LIBCMTD:outputs.obj
 0002:0000df30       ??_C@_1EE@DMAIGNBG@?$AA?$CI?$AA?$CC?$AAI?$AAn?$AAc?$AAo?$AAr?$AAr?$AAe?$AAc?$AAt?$AA?5?$AAf?$AAo?$AAr?$AAm?$AAa?$AAt?$AA?5?$AAs?$AAp?$AAe?$AAc?$AAi?$AAf?$AAi?$AAe?$AAr?$AA?$CC?$AA?0?$AA?5?$AA0@ 1007bf30     LIBCMTD:outputs.obj
 0002:0000df74       ??_C@_1BI@COFBLHCG@?$AA_?$AAo?$AAu?$AAt?$AAp?$AAu?$AAt?$AA_?$AAs?$AA_?$AAl?$AA?$AA@ 1007bf74     LIBCMTD:outputs.obj
 0002:0000df90       ??_C@_1GA@KAEECOIJ@?$AAf?$AA?3?$AA?2?$AAs?$AAp?$AA?2?$AAv?$AAc?$AAt?$AAo?$AAo?$AAl?$AAs?$AA?2?$AAc?$AAr?$AAt?$AA_?$AAb?$AAl?$AAd?$AA?2?$AAs?$AAe?$AAl?$AAf?$AA_?$AAx?$AA8?$AA6?$AA?2?$AAc@ 1007bf90     LIBCMTD:outputs.obj
 0002:0000dff0       ??_C@_1FK@BCPANIEK@?$AA?$CI?$AA?$CC?$AAM?$AAi?$AAs?$AAs?$AAi?$AAn?$AAg?$AA?5?$AAp?$AAo?$AAs?$AAi?$AAt?$AAi?$AAo?$AAn?$AA?5?$AAi?$AAn?$AA?5?$AAt?$AAh?$AAe?$AA?5?$AAf?$AAo?$AAr?$AAm?$AAa?$AAt@ 1007bff0     LIBCMTD:outputp.obj
 0002:0000e050       ??_C@_1JC@OACKELNN@?$AA_?$AAt?$AAv?$AAa?$AAl?$AAi?$AAd?$AAa?$AAt?$AAe?$AA_?$AAp?$AAa?$AAr?$AAa?$AAm?$AA_?$AAr?$AAe?$AAu?$AAs?$AAe?$AA?$CI?$AA?$CG?$AAp?$AAo?$AAs?$AA_?$AAv?$AAa?$AAl?$AAu@ 1007c050     LIBCMTD:outputp.obj
 0002:0000e0e8       ??_C@_1IK@NBGDDCBN@?$AA_?$AAt?$AAv?$AAa?$AAl?$AAi?$AAd?$AAa?$AAt?$AAe?$AA_?$AAp?$AAa?$AAr?$AAa?$AAm?$AA_?$AAr?$AAe?$AAu?$AAs?$AAe?$AA?$CI?$AA?$CG?$AAp?$AAo?$AAs?$AA_?$AAv?$AAa?$AAl?$AAu@ 1007c0e8     LIBCMTD:outputp.obj
 0002:0000e174       ??_C@_1DG@GOHGNKHE@?$AAp?$AAa?$AAs?$AAs?$AA?5?$AA?$DN?$AA?$DN?$AA?5?$AAF?$AAO?$AAR?$AAM?$AAA?$AAT?$AA_?$AAO?$AAU?$AAT?$AAP?$AAU?$AAT?$AA_?$AAP?$AAA?$AAS?$AAS?$AA?$AA@ 1007c174     LIBCMTD:outputp.obj
 0002:0000e1b0       ??_C@_1IM@DNGHAPLB@?$AA_?$AAt?$AAv?$AAa?$AAl?$AAi?$AAd?$AAa?$AAt?$AAe?$AA_?$AAp?$AAa?$AAr?$AAa?$AAm?$AA_?$AAr?$AAe?$AAu?$AAs?$AAe?$AA?$CI?$AA?$CG?$AAp?$AAo?$AAs?$AA_?$AAv?$AAa?$AAl?$AAu@ 1007c1b0     LIBCMTD:outputp.obj
 0002:0000e240       ??_C@_1IG@HJIMKDHC@?$AA_?$AAt?$AAv?$AAa?$AAl?$AAi?$AAd?$AAa?$AAt?$AAe?$AA_?$AAp?$AAa?$AAr?$AAa?$AAm?$AA_?$AAr?$AAe?$AAu?$AAs?$AAe?$AA?$CI?$AA?$CG?$AAp?$AAo?$AAs?$AA_?$AAv?$AAa?$AAl?$AAu@ 1007c240     LIBCMTD:outputp.obj
 0002:0000e2c8       ??_C@_1IG@FDCPLALG@?$AA_?$AAt?$AAv?$AAa?$AAl?$AAi?$AAd?$AAa?$AAt?$AAe?$AA_?$AAp?$AAa?$AAr?$AAa?$AAm?$AA_?$AAr?$AAe?$AAu?$AAs?$AAe?$AA?$CI?$AA?$CG?$AAp?$AAo?$AAs?$AA_?$AAv?$AAa?$AAl?$AAu@ 1007c2c8     LIBCMTD:outputp.obj
 0002:0000e350       ??_C@_1IK@MHEDJAMK@?$AA_?$AAt?$AAv?$AAa?$AAl?$AAi?$AAd?$AAa?$AAt?$AAe?$AA_?$AAp?$AAa?$AAr?$AAa?$AAm?$AA_?$AAr?$AAe?$AAu?$AAs?$AAe?$AA?$CI?$AA?$CG?$AAp?$AAo?$AAs?$AA_?$AAv?$AAa?$AAl?$AAu@ 1007c350     LIBCMTD:outputp.obj
 0002:0000e3e0       ??_C@_1EM@BNPHBBIA@?$AA?$CI?$AA?$CI?$AAt?$AAy?$AAp?$AAe?$AA_?$AAp?$AAo?$AAs?$AA?$DO?$AA?$DN?$AA0?$AA?$CJ?$AA?5?$AA?$CG?$AA?$CG?$AA?5?$AA?$CI?$AAt?$AAy?$AAp?$AAe?$AA_?$AAp?$AAo?$AAs?$AA?$DM?$AA_?$AAA?$AAR?$AAG@ 1007c3e0     LIBCMTD:outputp.obj
 0002:0000e430       ??_C@_1IK@EIEPDKHJ@?$AA_?$AAt?$AAv?$AAa?$AAl?$AAi?$AAd?$AAa?$AAt?$AAe?$AA_?$AAp?$AAa?$AAr?$AAa?$AAm?$AA_?$AAr?$AAe?$AAu?$AAs?$AAe?$AA?$CI?$AA?$CG?$AAp?$AAo?$AAs?$AA_?$AAv?$AAa?$AAl?$AAu@ 1007c430     LIBCMTD:outputp.obj
 0002:0000e4c0       ??_C@_1JG@JBJBOCFB@?$AA?$CI?$AA?$CI?$AAp?$AAr?$AAe?$AAc?$AAi?$AAs?$AA_?$AAp?$AAo?$AAs?$AA?5?$AA?$DO?$AA?$DN?$AA?5?$AA0?$AA?$CJ?$AA?5?$AA?$CG?$AA?$CG?$AA?5?$AA?$CI?$AA?$CK?$AAe?$AAn?$AAd?$AA_?$AAp?$AAo?$AAs?$AA?5@ 1007c4c0     LIBCMTD:outputp.obj
 0002:0000e558       ??_C@_1II@PIPIMLPF@?$AA_?$AAt?$AAv?$AAa?$AAl?$AAi?$AAd?$AAa?$AAt?$AAe?$AA_?$AAp?$AAa?$AAr?$AAa?$AAm?$AA_?$AAr?$AAe?$AAu?$AAs?$AAe?$AA?$CI?$AA?$CG?$AAp?$AAo?$AAs?$AA_?$AAv?$AAa?$AAl?$AAu@ 1007c558     LIBCMTD:outputp.obj
 0002:0000e5e0       ??_C@_1JE@NMBHOLFI@?$AA?$CI?$AA?$CI?$AAw?$AAi?$AAd?$AAt?$AAh?$AA_?$AAp?$AAo?$AAs?$AA?5?$AA?$DO?$AA?$DN?$AA?5?$AA0?$AA?$CJ?$AA?5?$AA?$CG?$AA?$CG?$AA?5?$AA?$CI?$AA?$CK?$AAe?$AAn?$AAd?$AA_?$AAp?$AAo?$AAs?$AA?5?$AA?$DN@ 1007c5e0     LIBCMTD:outputp.obj
 0002:0000e678       ??_C@_1JC@PFJNKEIO@?$AA?$CI?$AA?$CI?$AAt?$AAy?$AAp?$AAe?$AA_?$AAp?$AAo?$AAs?$AA?5?$AA?$DO?$AA?$DN?$AA?5?$AA0?$AA?$CJ?$AA?5?$AA?$CG?$AA?$CG?$AA?5?$AA?$CI?$AA?$CK?$AAe?$AAn?$AAd?$AA_?$AAp?$AAo?$AAs?$AA?5?$AA?$DN?$AA?$DN@ 1007c678     LIBCMTD:outputp.obj
 0002:0000e70c       ??_C@_1BI@KANOLAMF@?$AA_?$AAo?$AAu?$AAt?$AAp?$AAu?$AAt?$AA_?$AAp?$AA_?$AAl?$AA?$AA@ 1007c70c     LIBCMTD:outputp.obj
 0002:0000e724       ??_C@_0P@GGKDKEEG@runtime?5error?5?$AA@ 1007c724     LIBCMTD:crt0msg.obj
 0002:0000e734       ??_C@_0O@MJNIPGOH@TLOSS?5error?$AN?6?$AA@ 1007c734     LIBCMTD:crt0msg.obj
 0002:0000e744       ??_C@_0N@BONNPDHF@SING?5error?$AN?6?$AA@ 1007c744     LIBCMTD:crt0msg.obj
 0002:0000e754       ??_C@_0P@MBDAJNE@DOMAIN?5error?$AN?6?$AA@ 1007c754     LIBCMTD:crt0msg.obj
 0002:0000e768       ??_C@_0BFB@HKKMCDOL@R6034?$AN?6An?5application?5has?5made?5a@ 1007c768     LIBCMTD:crt0msg.obj
 0002:0000e8c0       ??_C@_0PH@EPAFIJ@R6033?$AN?6?9?5Attempt?5to?5use?5MSIL?5cod@ 1007c8c0     LIBCMTD:crt0msg.obj
 0002:0000e9b8       ??_C@_0DD@BKEEABMM@R6032?$AN?6?9?5not?5enough?5space?5for?5lo@ 1007c9b8     LIBCMTD:crt0msg.obj
 0002:0000e9f0       ??_C@_0GD@OFKILIED@R6031?$AN?6?9?5Attempt?5to?5initialize?5t@ 1007c9f0     LIBCMTD:crt0msg.obj
 0002:0000ea54       ??_C@_0BP@LPMHJOKI@R6030?$AN?6?9?5CRT?5not?5initialized?$AN?6?$AA@ 1007ca54     LIBCMTD:crt0msg.obj
 0002:0000ea74       ??_C@_0CF@KJDAIALP@R6028?$AN?6?9?5unable?5to?5initialize?5he@ 1007ca74     LIBCMTD:crt0msg.obj
 0002:0000ea9c       ??_C@_0DF@GAKBPDFP@R6027?$AN?6?9?5not?5enough?5space?5for?5lo@ 1007ca9c     LIBCMTD:crt0msg.obj
 0002:0000ead4       ??_C@_0DF@IBLNNAIG@R6026?$AN?6?9?5not?5enough?5space?5for?5st@ 1007cad4     LIBCMTD:crt0msg.obj
 0002:0000eb0c       ??_C@_0CG@IOHKGFNJ@R6025?$AN?6?9?5pure?5virtual?5function?5c@ 1007cb0c     LIBCMTD:crt0msg.obj
 0002:0000eb34       ??_C@_0DF@JIJJFJDC@R6024?$AN?6?9?5not?5enough?5space?5for?5_o@ 1007cb34     LIBCMTD:crt0msg.obj
 0002:0000eb6c       ??_C@_0CJ@EGEJHFME@R6019?$AN?6?9?5unable?5to?5open?5console?5@ 1007cb6c     LIBCMTD:crt0msg.obj
 0002:0000eb98       ??_C@_0CB@GNHNIELH@R6018?$AN?6?9?5unexpected?5heap?5error?$AN?6@ 1007cb98     LIBCMTD:crt0msg.obj
 0002:0000ebbc       ??_C@_0CN@FOLDKNG@R6017?$AN?6?9?5unexpected?5multithread?5@ 1007cbbc     LIBCMTD:crt0msg.obj
 0002:0000ebec       ??_C@_0CM@FAHFJNHO@R6016?$AN?6?9?5not?5enough?5space?5for?5th@ 1007cbec     LIBCMTD:crt0msg.obj
 0002:0000ec18       ??_C@_0JG@LBKMGKLD@?$AN?6This?5application?5has?5requested@ 1007cc18     LIBCMTD:crt0msg.obj
 0002:0000ecb0       ??_C@_0CM@FLCNIPKK@R6009?$AN?6?9?5not?5enough?5space?5for?5en@ 1007ccb0     LIBCMTD:crt0msg.obj
 0002:0000ecdc       ??_C@_0CK@KMMJOAPP@R6008?$AN?6?9?5not?5enough?5space?5for?5ar@ 1007ccdc     LIBCMTD:crt0msg.obj
 0002:0000ed08       ??_C@_0CN@LEKKICBM@R6002?$AN?6?9?5floating?5point?5support?5@ 1007cd08     LIBCMTD:crt0msg.obj
 0002:0000ed38       ??_C@_1KC@JBIKIPNF@?$AAs?$AAt?$AAr?$AAc?$AAa?$AAt?$AA_?$AAs?$AA?$CI?$AAo?$AAu?$AAt?$AAm?$AAs?$AAg?$AA?0?$AA?5?$AA?$CI?$AAs?$AAi?$AAz?$AAe?$AAo?$AAf?$AA?$CI?$AAo?$AAu?$AAt?$AAm?$AAs?$AAg?$AA?$CJ@ 1007cd38     LIBCMTD:crt0msg.obj
 0002:0000ede0       ??_C@_1HO@POLIDBMF@?$AAs?$AAt?$AAr?$AAc?$AAa?$AAt?$AA_?$AAs?$AA?$CI?$AAo?$AAu?$AAt?$AAm?$AAs?$AAg?$AA?0?$AA?5?$AA?$CI?$AAs?$AAi?$AAz?$AAe?$AAo?$AAf?$AA?$CI?$AAo?$AAu?$AAt?$AAm?$AAs?$AAg?$AA?$CJ@ 1007cde0     LIBCMTD:crt0msg.obj
 0002:0000ee60       ??_C@_1HG@CJJGKFHK@?$AAs?$AAt?$AAr?$AAn?$AAc?$AAp?$AAy?$AA_?$AAs?$AA?$CI?$AAp?$AAc?$AAh?$AA?0?$AA?5?$AAp?$AAr?$AAo?$AAg?$AAn?$AAa?$AAm?$AAe?$AA_?$AAs?$AAi?$AAz?$AAe?$AA?5?$AA?9?$AA?5?$AA?$CI@ 1007ce60     LIBCMTD:crt0msg.obj
 0002:0000eed8       ??_C@_1HI@FOOPEDMH@?$AAs?$AAt?$AAr?$AAc?$AAp?$AAy?$AA_?$AAs?$AA?$CI?$AAp?$AAr?$AAo?$AAg?$AAn?$AAa?$AAm?$AAe?$AA?0?$AA?5?$AAp?$AAr?$AAo?$AAg?$AAn?$AAa?$AAm?$AAe?$AA_?$AAs?$AAi?$AAz?$AAe@ 1007ced8     LIBCMTD:crt0msg.obj
 0002:0000ef50       ??_C@_0BK@OFGJDLJJ@Runtime?5Error?$CB?6?6Program?3?5?$AA@ 1007cf50     LIBCMTD:crt0msg.obj
 0002:0000ef70       ??_C@_1KM@NKKPELHG@?$AAs?$AAt?$AAr?$AAc?$AAp?$AAy?$AA_?$AAs?$AA?$CI?$AAo?$AAu?$AAt?$AAm?$AAs?$AAg?$AA?0?$AA?5?$AA?$CI?$AAs?$AAi?$AAz?$AAe?$AAo?$AAf?$AA?$CI?$AAo?$AAu?$AAt?$AAm?$AAs?$AAg?$AA?$CJ@ 1007cf70     LIBCMTD:crt0msg.obj
 0002:0000f01c       ??_C@_1BI@EAHMBMEC@?$AA_?$AAN?$AAM?$AAS?$AAG?$AA_?$AAW?$AAR?$AAI?$AAT?$AAE?$AA?$AA@ 1007d01c     LIBCMTD:crt0msg.obj
 0002:0000f034       ??_C@_1BE@HJCCFLDA@?$AAc?$AAr?$AAt?$AA0?$AAm?$AAs?$AAg?$AA?4?$AAc?$AA?$AA@ 1007d034     LIBCMTD:crt0msg.obj
 0002:0000f048       ??_C@_1GO@NGIGJNHH@?$AAs?$AAt?$AAr?$AAn?$AAc?$AAp?$AAy?$AA_?$AAs?$AA?$CI?$AA?$CK?$AAs?$AAt?$AAr?$AAa?$AAd?$AAd?$AAr?$AAe?$AAs?$AAs?$AA?0?$AA?5?$AAo?$AAu?$AAt?$AAs?$AAi?$AAz?$AAe?$AA?0?$AA?5@ 1007d048     LIBCMTD:inithelp.obj
 0002:0000f0b8       ??_C@_1CA@KHHCPEI@?$AA_?$AA_?$AAg?$AAe?$AAt?$AAl?$AAo?$AAc?$AAa?$AAl?$AAe?$AAi?$AAn?$AAf?$AAo?$AA?$AA@ 1007d0b8     LIBCMTD:inithelp.obj
 0002:0000f0d8       ??_C@_1BG@OFMEOKEA@?$AAi?$AAn?$AAi?$AAt?$AAh?$AAe?$AAl?$AAp?$AA?4?$AAc?$AA?$AA@ 1007d0d8     LIBCMTD:inithelp.obj
 0002:0000f0f0       ??_C@_0L@DILIPMN@inithelp?4c?$AA@ 1007d0f0     LIBCMTD:inithelp.obj
 0002:0000f0fc       ??_C@_0BC@JEAENNKH@SystemFunction036?$AA@ 1007d0fc     LIBCMTD:rand_s.obj
 0002:0000f110       ??_C@_1GA@EBEDGGGB@?$AA?$CI?$AA?$CC?$AAr?$AAa?$AAn?$AAd?$AA_?$AAs?$AA?5?$AAi?$AAs?$AA?5?$AAn?$AAo?$AAt?$AA?5?$AAa?$AAv?$AAa?$AAi?$AAl?$AAa?$AAb?$AAl?$AAe?$AA?5?$AAo?$AAn?$AA?5?$AAt?$AAh?$AAi@ 1007d110     LIBCMTD:rand_s.obj
 0002:0000f170       ??_C@_1O@IJGPPOGF@?$AAr?$AAa?$AAn?$AAd?$AA_?$AAs?$AA?$AA@ 1007d170     LIBCMTD:rand_s.obj
 0002:0000f180       ??_C@_1BC@NBJGCJKM@?$AAr?$AAa?$AAn?$AAd?$AA_?$AAs?$AA?4?$AAc?$AA?$AA@ 1007d180     LIBCMTD:rand_s.obj
 0002:0000f194       ??_C@_1CK@GFDNDKK@?$AA_?$AAR?$AAa?$AAn?$AAd?$AAo?$AAm?$AAV?$AAa?$AAl?$AAu?$AAe?$AA?5?$AA?$CB?$AA?$DN?$AA?5?$AAN?$AAU?$AAL?$AAL?$AA?$AA@ 1007d194     LIBCMTD:rand_s.obj
 0002:0000f1c0       ??_C@_0CG@PKBDLMEO@InitializeCriticalSectionAndSpin@ 1007d1c0     LIBCMTD:initcrit.obj
 0002:0000f1e8       ??_C@_0N@MDJJJHMB@kernel32?4dll?$AA@ 1007d1e8     LIBCMTD:initcrit.obj
 0002:0000f1f8       ??_C@_1DK@EGKDBLND@?$AA_?$AA_?$AAc?$AAr?$AAt?$AAI?$AAn?$AAi?$AAt?$AAC?$AAr?$AAi?$AAt?$AAS?$AAe?$AAc?$AAA?$AAn?$AAd?$AAS?$AAp?$AAi?$AAn?$AAC?$AAo?$AAu?$AAn?$AAt?$AA?$AA@ 1007d1f8     LIBCMTD:initcrit.obj
 0002:0000f234       ??_C@_1BG@LABPBAGA@?$AAi?$AAn?$AAi?$AAt?$AAc?$AAr?$AAi?$AAt?$AA?4?$AAc?$AA?$AA@ 1007d234     LIBCMTD:initcrit.obj
 0002:0000f250       ??_C@_1JE@ECKHFIFP@?$AA?$CI?$AA?$CC?$AAI?$AAn?$AAv?$AAa?$AAl?$AAi?$AAd?$AA?5?$AAf?$AAi?$AAl?$AAe?$AA?5?$AAd?$AAe?$AAs?$AAc?$AAr?$AAi?$AAp?$AAt?$AAo?$AAr?$AA?4?$AA?5?$AAF?$AAi?$AAl?$AAe?$AA?5@ 1007d250     LIBCMTD:commit.obj
 0002:0000f2e4       ??_C@_1DG@LNNHNFHJ@?$AA?$CI?$AA_?$AAo?$AAs?$AAf?$AAi?$AAl?$AAe?$AA?$CI?$AAf?$AAi?$AAl?$AAe?$AAd?$AAe?$AAs?$AA?$CJ?$AA?5?$AA?$CG?$AA?5?$AAF?$AAO?$AAP?$AAE?$AAN?$AA?$CJ?$AA?$AA@ 1007d2e4     LIBCMTD:commit.obj
 0002:0000f31c       ??_C@_1BA@FLNMBBIM@?$AA_?$AAc?$AAo?$AAm?$AAm?$AAi?$AAt?$AA?$AA@ 1007d31c     LIBCMTD:commit.obj
 0002:0000f32c       ??_C@_1BC@LOAFNBNC@?$AAc?$AAo?$AAm?$AAm?$AAi?$AAt?$AA?4?$AAc?$AA?$AA@ 1007d32c     LIBCMTD:commit.obj
 0002:0000f340       ??_C@_1HC@KFLBHHBC@?$AA?$CI?$AAf?$AAi?$AAl?$AAe?$AAd?$AAe?$AAs?$AA?5?$AA?$DO?$AA?$DN?$AA?5?$AA0?$AA?5?$AA?$CG?$AA?$CG?$AA?5?$AA?$CI?$AAu?$AAn?$AAs?$AAi?$AAg?$AAn?$AAe?$AAd?$AA?$CJ?$AAf?$AAi?$AAl?$AAe?$AAd@ 1007d340     LIBCMTD:commit.obj
 0002:0000f3b4       ??_C@_1BA@JGHIEKKM@?$AA_?$AAf?$AAi?$AAl?$AAe?$AAn?$AAo?$AA?$AA@ 1007d3b4     LIBCMTD:fileno.obj
 0002:0000f3c4       ??_C@_1BC@FBGAHIFN@?$AAf?$AAi?$AAl?$AAe?$AAn?$AAo?$AA?4?$AAc?$AA?$AA@ 1007d3c4     LIBCMTD:fileno.obj
 0002:0000f3d8       ??_C@_1CM@OKGMMMDH@?$AA?$CI?$AA_?$AAo?$AAs?$AAf?$AAi?$AAl?$AAe?$AA?$CI?$AAf?$AAh?$AA?$CJ?$AA?5?$AA?$CG?$AA?5?$AAF?$AAO?$AAP?$AAE?$AAN?$AA?$CJ?$AA?$AA@ 1007d3d8     LIBCMTD:write.obj
 0002:0000f404       ??_C@_1O@KOFKDHPL@?$AA_?$AAw?$AAr?$AAi?$AAt?$AAe?$AA?$AA@ 1007d404     LIBCMTD:write.obj
 0002:0000f414       ??_C@_1BA@PMLNGJCB@?$AAw?$AAr?$AAi?$AAt?$AAe?$AA?4?$AAc?$AA?$AA@ 1007d414     LIBCMTD:write.obj
 0002:0000f428       ??_C@_1FO@LPCLHKGE@?$AA?$CI?$AAf?$AAh?$AA?5?$AA?$DO?$AA?$DN?$AA?5?$AA0?$AA?5?$AA?$CG?$AA?$CG?$AA?5?$AA?$CI?$AAu?$AAn?$AAs?$AAi?$AAg?$AAn?$AAe?$AAd?$AA?$CJ?$AAf?$AAh?$AA?5?$AA?$DM?$AA?5?$AA?$CI?$AAu?$AAn?$AAs?$AAi@ 1007d428     LIBCMTD:write.obj
 0002:0000f488       ??_C@_1CC@EEOLPHGO@?$AA?$CI?$AA?$CI?$AAc?$AAn?$AAt?$AA?5?$AA?$CG?$AA?5?$AA1?$AA?$CJ?$AA?5?$AA?$DN?$AA?$DN?$AA?5?$AA0?$AA?$CJ?$AA?$AA@ 1007d488     LIBCMTD:write.obj
 0002:0000f4ac       ??_C@_1BM@NCANHCIP@?$AA_?$AAw?$AAr?$AAi?$AAt?$AAe?$AA_?$AAn?$AAo?$AAl?$AAo?$AAc?$AAk?$AA?$AA@ 1007d4ac     LIBCMTD:write.obj
 0002:0000f4c8       ??_C@_1BM@KFJLMBPG@?$AA?$CI?$AAb?$AAu?$AAf?$AA?5?$AA?$CB?$AA?$DN?$AA?5?$AAN?$AAU?$AAL?$AAL?$AA?$CJ?$AA?$AA@ 1007d4c8     LIBCMTD:write.obj
 0002:0000f4e4       ??_C@_09IFKHNCOH@_sftbuf?4c?$AA@ 1007d4e4     LIBCMTD:_sftbuf.obj
 0002:0000f4f0       ??_C@_1BE@DFMOKHKL@?$AA_?$AAs?$AAf?$AAt?$AAb?$AAu?$AAf?$AA?4?$AAc?$AA?$AA@ 1007d4f0     LIBCMTD:_sftbuf.obj
 0002:0000f504       ??_C@_1CO@KCKAACMI@?$AAf?$AAl?$AAa?$AAg?$AA?5?$AA?$DN?$AA?$DN?$AA?5?$AA0?$AA?5?$AA?$HM?$AA?$HM?$AA?5?$AAf?$AAl?$AAa?$AAg?$AA?5?$AA?$DN?$AA?$DN?$AA?5?$AA1?$AA?$AA@ 1007d504     LIBCMTD:_sftbuf.obj
 0002:0000f534       ??_C@_1BG@BBCDFOMA@?$AA_?$AAw?$AAo?$AAu?$AAt?$AAp?$AAu?$AAt?$AA_?$AAl?$AA?$AA@ 1007d534     LIBCMTD:woutput.obj
 0002:0000f54c       ??_C@_1CC@MONNFDCM@?$AAv?$AAf?$AAw?$AAp?$AAr?$AAi?$AAn?$AAt?$AAf?$AA_?$AAh?$AAe?$AAl?$AAp?$AAe?$AAr?$AA?$AA@ 1007d54c     LIBCMTD:vfwprint.obj
 0002:0000f570       ??_C@_1BG@NPPNBJFE@?$AAv?$AAf?$AAw?$AAp?$AAr?$AAi?$AAn?$AAt?$AA?4?$AAc?$AA?$AA@ 1007d570     LIBCMTD:vfwprint.obj
 0002:0000f588       ??_C@_1BG@BCLADFND@?$AA_?$AAf?$AAr?$AAe?$AAe?$AAb?$AAu?$AAf?$AA?4?$AAc?$AA?$AA@ 1007d588     LIBCMTD:_freebuf.obj
 0002:0000f5a0       ??_C@_1BO@KIJENGPH@?$AAs?$AAt?$AAr?$AAe?$AAa?$AAm?$AA?5?$AA?$CB?$AA?$DN?$AA?5?$AAN?$AAU?$AAL?$AAL?$AA?$AA@ 1007d5a0     LIBCMTD:_freebuf.obj
 0002:0000f5c0       ??_C@_0BK@CIDNPOGP@GetUserObjectInformationA?$AA@ 1007d5c0     LIBCMTD:crtmbox.obj
 0002:0000f5dc       ??_C@_1CC@MEIOIKJI@?$AA_?$AA_?$AAc?$AAr?$AAt?$AAM?$AAe?$AAs?$AAs?$AAa?$AAg?$AAe?$AAB?$AAo?$AAx?$AAA?$AA?$AA@ 1007d5dc     LIBCMTD:crtmbox.obj
 0002:0000f600       ??_C@_1BE@DEODNGG@?$AAc?$AAr?$AAt?$AAm?$AAb?$AAo?$AAx?$AA?4?$AAc?$AA?$AA@ 1007d600     LIBCMTD:crtmbox.obj
 0002:0000f614       ??_C@_0M@CHKKJDAI@MessageBoxA?$AA@ 1007d614     LIBCMTD:crtmbox.obj
 0002:0000f620       ??_C@_0L@NDEGIDAG@USER32?4DLL?$AA@ 1007d620     LIBCMTD:crtmbox.obj
 0002:0000f62c       ??_C@_1O@GIMBNLEI@?$AAx?$AAt?$AAo?$AAa?$AA_?$AAs?$AA?$AA@ 1007d62c     LIBCMTD:xtoas.obj
 0002:0000f63c       ??_C@_1BC@MJJNBNFN@?$AAx?$AA6?$AA4?$AAt?$AAo?$AAa?$AA_?$AAs?$AA?$AA@ 1007d63c     LIBCMTD:xtoas.obj
 0002:0000f650       ??_C@_1BA@DNOHIGNM@?$AAf?$AAp?$AAr?$AAi?$AAn?$AAt?$AAf?$AA?$AA@ 1007d650     LIBCMTD:fprintf.obj
 0002:0000f660       ??_C@_1BE@NEFIHEIC@?$AAf?$AAp?$AAr?$AAi?$AAn?$AAt?$AAf?$AA?4?$AAc?$AA?$AA@ 1007d660     LIBCMTD:fprintf.obj
 0002:0000f674       ??_C@_1BK@ONMFGLDB@?$AA_?$AAw?$AAo?$AAu?$AAt?$AAp?$AAu?$AAt?$AA_?$AAs?$AA_?$AAl?$AA?$AA@ 1007d674     LIBCMTD:woutputs.obj
 0002:0000f690       ??_C@_1BK@GDEKGMNC@?$AA_?$AAw?$AAo?$AAu?$AAt?$AAp?$AAu?$AAt?$AA_?$AAp?$AA_?$AAl?$AA?$AA@ 1007d690     LIBCMTD:woutputp.obj
 0002:0000f6ac       ??_C@_1BE@KHFBJMNM@?$AA_?$AAl?$AAs?$AAe?$AAe?$AAk?$AAi?$AA6?$AA4?$AA?$AA@ 1007d6ac     LIBCMTD:lseeki64.obj
 0002:0000f6c0       ??_C@_1BG@NGOGNEMB@?$AAl?$AAs?$AAe?$AAe?$AAk?$AAi?$AA6?$AA4?$AA?4?$AAc?$AA?$AA@ 1007d6c0     LIBCMTD:lseeki64.obj
 0002:0000f6d8       ??_C@_09PKAEMGHJ@_getbuf?4c?$AA@ 1007d6d8     LIBCMTD:_getbuf.obj
 0002:0000f6e4       ??_C@_1BE@DJANJIEH@?$AA_?$AAg?$AAe?$AAt?$AAb?$AAu?$AAf?$AA?4?$AAc?$AA?$AA@ 1007d6e4     LIBCMTD:_getbuf.obj
 0002:0000f6f8       ??_C@_1BA@LEBDGIHM@?$AA_?$AAi?$AAs?$AAa?$AAt?$AAt?$AAy?$AA?$AA@ 1007d6f8     LIBCMTD:isatty.obj
 0002:0000f708       ??_C@_1BC@BPJEKAMC@?$AAi?$AAs?$AAa?$AAt?$AAt?$AAy?$AA?4?$AAc?$AA?$AA@ 1007d708     LIBCMTD:isatty.obj
 0002:0000f71c       ??_C@_1O@GKDHFACN@?$AAp?$AAr?$AAi?$AAn?$AAt?$AAf?$AA?$AA@ 1007d71c     LIBCMTD:printf.obj
 0002:0000f72c       ??_C@_1BC@BHLBENIK@?$AAp?$AAr?$AAi?$AAn?$AAt?$AAf?$AA?4?$AAc?$AA?$AA@ 1007d72c     LIBCMTD:printf.obj
 0002:0000f740       ??_C@_1BI@IEADNOHF@?$AA_?$AAw?$AAc?$AAt?$AAo?$AAm?$AAb?$AA_?$AAs?$AA_?$AAl?$AA?$AA@ 1007d740     LIBCMTD:wctomb.obj
 0002:0000f758       ??_C@_1BC@KLMMEMGB@?$AAw?$AAc?$AAt?$AAo?$AAm?$AAb?$AA?4?$AAc?$AA?$AA@ 1007d758     LIBCMTD:wctomb.obj
 0002:0000f76c       ??_C@_1CO@HFMIILNF@?$AAs?$AAi?$AAz?$AAe?$AAI?$AAn?$AAB?$AAy?$AAt?$AAe?$AAs?$AA?5?$AA?$DM?$AA?$DN?$AA?5?$AAI?$AAN?$AAT?$AA_?$AAM?$AAA?$AAX?$AA?$AA@ 1007d76c     LIBCMTD:wctomb.obj
 0002:0000f79c       ??_C@_1CG@JEHFHLNG@?$AA_?$AAm?$AAb?$AAs?$AAt?$AAo?$AAw?$AAc?$AAs?$AA_?$AAl?$AA_?$AAh?$AAe?$AAl?$AAp?$AAe?$AAr?$AA?$AA@ 1007d79c     LIBCMTD:mbstowcs.obj
 0002:0000f7c4       ??_C@_1BG@KMBPFIPB@?$AAm?$AAb?$AAs?$AAt?$AAo?$AAw?$AAc?$AAs?$AA?4?$AAc?$AA?$AA@ 1007d7c4     LIBCMTD:mbstowcs.obj
 0002:0000f7dc       ??_C@_1BE@EEKACIGI@?$AAs?$AA?5?$AA?$CB?$AA?$DN?$AA?5?$AAN?$AAU?$AAL?$AAL?$AA?$AA@ 1007d7dc     LIBCMTD:mbstowcs.obj
 0002:0000f7f0       ??_C@_1CO@JNPEPJAL@?$AAr?$AAe?$AAt?$AAs?$AAi?$AAz?$AAe?$AA?5?$AA?$DM?$AA?$DN?$AA?5?$AAs?$AAi?$AAz?$AAe?$AAI?$AAn?$AAW?$AAo?$AAr?$AAd?$AAs?$AA?$AA@ 1007d7f0     LIBCMTD:mbstowcs.obj
 0002:0000f820       ??_C@_1BM@PHENIGHD@?$AA_?$AAm?$AAb?$AAs?$AAt?$AAo?$AAw?$AAc?$AAs?$AA_?$AAs?$AA_?$AAl?$AA?$AA@ 1007d820     LIBCMTD:mbstowcs.obj
 0002:0000f840       ??_C@_1JA@JKDFMOPO@?$AA?$CI?$AAp?$AAw?$AAc?$AAs?$AA?5?$AA?$DN?$AA?$DN?$AA?5?$AAN?$AAU?$AAL?$AAL?$AA?5?$AA?$CG?$AA?$CG?$AA?5?$AAs?$AAi?$AAz?$AAe?$AAI?$AAn?$AAW?$AAo?$AAr?$AAd?$AAs?$AA?5?$AA?$DN?$AA?$DN?$AA?5@ 1007d840     LIBCMTD:mbstowcs.obj
 0002:0000f8d0       ??_C@_1BK@EPLNBKAK@?$AA_?$AAv?$AAs?$AAw?$AAp?$AAr?$AAi?$AAn?$AAt?$AAf?$AA_?$AAl?$AA?$AA@ 1007d8d0     LIBCMTD:vswprint.obj
 0002:0000f8ec       ??_C@_1BG@BELBGCGO@?$AAv?$AAs?$AAw?$AAp?$AAr?$AAi?$AAn?$AAt?$AA?4?$AAc?$AA?$AA@ 1007d8ec     LIBCMTD:vswprint.obj
 0002:0000f904       ??_C@_1CG@IMMIEPNA@?$AA_?$AAv?$AAs?$AAc?$AAw?$AAp?$AAr?$AAi?$AAn?$AAt?$AAf?$AA_?$AAh?$AAe?$AAl?$AAp?$AAe?$AAr?$AA?$AA@ 1007d904     LIBCMTD:vswprint.obj
 0002:0000f92c       ??_C@_0BK@CFCOFLF@?5Complete?5Object?5Locator?8?$AA@ 1007d92c     LIBCMTD:undname.obj
 0002:0000f948       ??_C@_0BN@MECKDCOJ@?5Class?5Hierarchy?5Descriptor?8?$AA@ 1007d948     LIBCMTD:undname.obj
 0002:0000f968       ??_C@_0BD@LGICGFMM@?5Base?5Class?5Array?8?$AA@ 1007d968     LIBCMTD:undname.obj
 0002:0000f97c       ??_C@_0BM@LDKODKLH@?5Base?5Class?5Descriptor?5at?5?$CI?$AA@ 1007d97c     LIBCMTD:undname.obj
 0002:0000f998       ??_C@_0BC@DAFEJGAK@?5Type?5Descriptor?8?$AA@ 1007d998     LIBCMTD:undname.obj
 0002:0000f9ac       ??_C@_0BM@PMGGMLDN@?$GAlocal?5static?5thread?5guard?8?$AA@ 1007d9ac     LIBCMTD:undname.obj
 0002:0000f9c8       ??_C@_0CL@FGIJHLCE@?$GAmanaged?5vector?5copy?5constructor@ 1007d9c8     LIBCMTD:undname.obj
 0002:0000f9f4       ??_C@_0CJ@GJELGAMM@?$GAvector?5vbase?5copy?5constructor?5i@ 1007d9f4     LIBCMTD:undname.obj
 0002:0000fa20       ??_C@_0CD@CGAJBKEJ@?$GAvector?5copy?5constructor?5iterato@ 1007da20     LIBCMTD:undname.obj
 0002:0000fa44       ??_C@_0CB@PDBIFEP@?$GAdynamic?5atexit?5destructor?5for?5?8@ 1007da44     LIBCMTD:undname.obj
 0002:0000fa68       ??_C@_0BL@CLIPGLGB@?$GAdynamic?5initializer?5for?5?8?$AA@ 1007da68     LIBCMTD:undname.obj
 0002:0000fa84       ??_C@_0CM@FCBBDIGB@?$GAeh?5vector?5vbase?5copy?5constructo@ 1007da84     LIBCMTD:undname.obj
 0002:0000fab0       ??_C@_0CG@HLDDJMAG@?$GAeh?5vector?5copy?5constructor?5iter@ 1007dab0     LIBCMTD:undname.obj
 0002:0000fad8       ??_C@_0CF@IMGKMJNO@?$GAmanaged?5vector?5destructor?5itera@ 1007dad8     LIBCMTD:undname.obj
 0002:0000fb00       ??_C@_0CG@CFDHKGGD@?$GAmanaged?5vector?5constructor?5iter@ 1007db00     LIBCMTD:undname.obj
 0002:0000fb28       ??_C@_0BN@CKNJLHMB@?$GAplacement?5delete?$FL?$FN?5closure?8?$AA@ 1007db28     LIBCMTD:undname.obj
 0002:0000fb48       ??_C@_0BL@CNOONJFP@?$GAplacement?5delete?5closure?8?$AA@ 1007db48     LIBCMTD:undname.obj
 0002:0000fb64       ??_C@_0P@HJKNJFNN@?$GAomni?5callsig?8?$AA@ 1007db64     LIBCMTD:undname.obj
 0002:0000fb74       ??_C@_09LBNFPBCA@?5delete?$FL?$FN?$AA@ 1007db74     LIBCMTD:undname.obj
 0002:0000fb80       ??_C@_06FHBGPFGH@?5new?$FL?$FN?$AA@ 1007db80     LIBCMTD:undname.obj
 0002:0000fb88       ??_C@_0CE@IIHCMGGL@?$GAlocal?5vftable?5constructor?5closu@ 1007db88     LIBCMTD:undname.obj
 0002:0000fbac       ??_C@_0BA@KKLDJDLB@?$GAlocal?5vftable?8?$AA@ 1007dbac     LIBCMTD:undname.obj
 0002:0000fbbc       ??_C@_05KHLCHHI@?$GARTTI?$AA@ 1007dbbc     LIBCMTD:undname.obj
 0002:0000fbc4       ??_C@_03KLGMFNMG@?$GAEH?$AA@ 1007dbc4     LIBCMTD:undname.obj
 0002:0000fbc8       ??_C@_0BA@KBCDOMBN@?$GAudt?5returning?8?$AA@ 1007dbc8     LIBCMTD:undname.obj
 0002:0000fbd8       ??_C@_0BL@LLKPOHJI@?$GAcopy?5constructor?5closure?8?$AA@ 1007dbd8     LIBCMTD:undname.obj
 0002:0000fbf4       ??_C@_0CH@OOJPLCPH@?$GAeh?5vector?5vbase?5constructor?5ite@ 1007dbf4     LIBCMTD:undname.obj
 0002:0000fc1c       ??_C@_0CA@GCEOPDGL@?$GAeh?5vector?5destructor?5iterator?8?$AA@ 1007dc1c     LIBCMTD:undname.obj
 0002:0000fc3c       ??_C@_0CB@JONCMFFK@?$GAeh?5vector?5constructor?5iterator?8@ 1007dc3c     LIBCMTD:undname.obj
 0002:0000fc60       ??_C@_0BL@NILFHHPC@?$GAvirtual?5displacement?5map?8?$AA@ 1007dc60     LIBCMTD:undname.obj
 0002:0000fc7c       ??_C@_0CE@IKBNEHA@?$GAvector?5vbase?5constructor?5iterat@ 1007dc7c     LIBCMTD:undname.obj
 0002:0000fca0       ??_C@_0BN@LFPFMEDL@?$GAvector?5destructor?5iterator?8?$AA@ 1007dca0     LIBCMTD:undname.obj
 0002:0000fcc0       ??_C@_0BO@PFGOCPJJ@?$GAvector?5constructor?5iterator?8?$AA@ 1007dcc0     LIBCMTD:undname.obj
 0002:0000fce0       ??_C@_0BN@IMDCHIKM@?$GAscalar?5deleting?5destructor?8?$AA@ 1007dce0     LIBCMTD:undname.obj
 0002:0000fd00       ??_C@_0BO@OBMKPJIG@?$GAdefault?5constructor?5closure?8?$AA@ 1007dd00     LIBCMTD:undname.obj
 0002:0000fd20       ??_C@_0BN@DEGPLNFK@?$GAvector?5deleting?5destructor?8?$AA@ 1007dd20     LIBCMTD:undname.obj
 0002:0000fd40       ??_C@_0BD@JDLKDPAB@?$GAvbase?5destructor?8?$AA@ 1007dd40     LIBCMTD:undname.obj
 0002:0000fd54       ??_C@_08OBABFOLI@?$GAstring?8?$AA@ 1007dd54     LIBCMTD:undname.obj
 0002:0000fd60       ??_C@_0BF@KDPPACIK@?$GAlocal?5static?5guard?8?$AA@ 1007dd60     LIBCMTD:undname.obj
 0002:0000fd78       ??_C@_08LLFFHHDJ@?$GAtypeof?8?$AA@ 1007dd78     LIBCMTD:undname.obj
 0002:0000fd84       ??_C@_07FEEIOKP@?$GAvcall?8?$AA@ 1007dd84     LIBCMTD:undname.obj
 0002:0000fd8c       ??_C@_09BLBHBJP@?$GAvbtable?8?$AA@ 1007dd8c     LIBCMTD:undname.obj
 0002:0000fd98       ??_C@_09IFPLHPGF@?$GAvftable?8?$AA@ 1007dd98     LIBCMTD:undname.obj
 0002:0000fda4       ??_C@_02MHEGNOJ@?$FO?$DN?$AA@ 1007dda4     LIBCMTD:undname.obj
 0002:0000fda8       ??_C@_02DHLNPPGH@?$HM?$DN?$AA@ 1007dda8     LIBCMTD:undname.obj
 0002:0000fdac       ??_C@_02FGJGFEAB@?$CG?$DN?$AA@ 1007ddac     LIBCMTD:undname.obj
 0002:0000fdb0       ??_C@_03CDNPDDLA@?$DM?$DM?$DN?$AA@ 1007ddb0     LIBCMTD:undname.obj
 0002:0000fdb4       ??_C@_03IKFCCPFF@?$DO?$DO?$DN?$AA@ 1007ddb4     LIBCMTD:undname.obj
 0002:0000fdb8       ??_C@_02FENAOKFI@?$CF?$DN?$AA@ 1007ddb8     LIBCMTD:undname.obj
 0002:0000fdbc       ??_C@_02FJEHGPIO@?1?$DN?$AA@ 1007ddbc     LIBCMTD:undname.obj
 0002:0000fdc0       ??_C@_02FKMDLLOA@?9?$DN?$AA@ 1007ddc0     LIBCMTD:undname.obj
 0002:0000fdc4       ??_C@_02FOEOMHFC@?$CL?$DN?$AA@ 1007ddc4     LIBCMTD:undname.obj
 0002:0000fdc8       ??_C@_02FPIMKNGF@?$CK?$DN?$AA@ 1007ddc8     LIBCMTD:undname.obj
 0002:0000fdcc       ??_C@_02NONPIBCD@?$HM?$HM?$AA@ 1007ddcc     LIBCMTD:undname.obj
 0002:0000fdd0       ??_C@_02PPKAJPJL@?$CG?$CG?$AA@ 1007ddd0     LIBCMTD:undname.obj
 0002:0000fdd4       ??_C@_01DNKMNLPK@?$HM?$AA@ 1007ddd4     LIBCMTD:undname.obj
 0002:0000fdd8       ??_C@_01JKBOJNNK@?$FO?$AA@ 1007ddd8     LIBCMTD:undname.obj
 0002:0000fddc       ??_C@_01PJKLJHI@?$HO?$AA@  1007dddc     LIBCMTD:undname.obj
 0002:0000fde0       ??_C@_02HCKGKOFO@?$CI?$CJ?$AA@ 1007dde0     LIBCMTD:undname.obj
 0002:0000fde4       ??_C@_01IHBHIGKO@?0?$AA@   1007dde4     LIBCMTD:undname.obj
 0002:0000fde8       ??_C@_02EEKDKGMJ@?$DO?$DN?$AA@ 1007dde8     LIBCMTD:undname.obj
 0002:0000fdec       ??_C@_01PPODPGHN@?$DO?$AA@ 1007ddec     LIBCMTD:undname.obj
 0002:0000fdf0       ??_C@_02EHCHHCKH@?$DM?$DN?$AA@ 1007ddf0     LIBCMTD:undname.obj
 0002:0000fdf4       ??_C@_01MNNFJEPP@?$DM?$AA@ 1007ddf4     LIBCMTD:undname.obj
 0002:0000fdf8       ??_C@_01FGNFDNOH@?$CF?$AA@ 1007ddf8     LIBCMTD:undname.obj
 0002:0000fdfc       ??_C@_03MNHNFDLC@?9?$DO?$CK?$AA@ 1007ddfc     LIBCMTD:undname.obj
 0002:0000fe00       ??_C@_01MIFGBAGJ@?$CL?$AA@ 1007de00     LIBCMTD:undname.obj
 0002:0000fe04       ??_C@_01JOAMLHOP@?9?$AA@   1007de04     LIBCMTD:undname.obj
 0002:0000fe08       ??_C@_02ECNGHCIF@?$CL?$CL?$AA@ 1007de08     LIBCMTD:undname.obj
 0002:0000fe0c       ??_C@_01NBENCBCI@?$CK?$AA@ 1007de0c     LIBCMTD:undname.obj
 0002:0000fe10       ??_C@_02HBOOOICD@?9?$DO?$AA@ 1007de10     LIBCMTD:undname.obj
 0002:0000fe14       ??_C@_08LHJFAFGD@operator?$AA@ 1007de14     LIBCMTD:undname.obj
 0002:0000fe20       ??_C@_02GPECMEKF@?$FL?$FN?$AA@ 1007de20     LIBCMTD:undname.obj
 0002:0000fe24       ??_C@_02FDNJECIE@?$CB?$DN?$AA@ 1007de24     LIBCMTD:undname.obj
 0002:0000fe28       ??_C@_02EGOFBIJA@?$DN?$DN?$AA@ 1007de28     LIBCMTD:undname.obj
 0002:0000fe2c       ??_C@_01DCLJPIOD@?$CB?$AA@ 1007de2c     LIBCMTD:undname.obj
 0002:0000fe30       ??_C@_02FODMEDOG@?$DM?$DM?$AA@ 1007de30     LIBCMTD:undname.obj
 0002:0000fe34       ??_C@_02GPIOPFAK@?$DO?$DO?$AA@ 1007de34     LIBCMTD:undname.obj
 0002:0000fe38       ??_C@_07FPCDHGMM@?5delete?$AA@ 1007de38     LIBCMTD:undname.obj
 0002:0000fe40       ??_C@_04NIHEBCM@?5new?$AA@ 1007de40     LIBCMTD:undname.obj
 0002:0000fe48       ??_C@_0M@GFIIJFMG@__unaligned?$AA@ 1007de48     LIBCMTD:undname.obj
 0002:0000fe54       ??_C@_0L@PILCLIHE@__restrict?$AA@ 1007de54     LIBCMTD:undname.obj
 0002:0000fe60       ??_C@_07JOMMBBKO@__ptr64?$AA@ 1007de60     LIBCMTD:undname.obj
 0002:0000fe68       ??_C@_09HIJEGCPM@__clrcall?$AA@ 1007de68     LIBCMTD:undname.obj
 0002:0000fe74       ??_C@_0L@JMKHOMEK@__fastcall?$AA@ 1007de74     LIBCMTD:undname.obj
 0002:0000fe80       ??_C@_0L@NPHFGOKO@__thiscall?$AA@ 1007de80     LIBCMTD:undname.obj
 0002:0000fe8c       ??_C@_09IFJBGAPI@__stdcall?$AA@ 1007de8c     LIBCMTD:undname.obj
 0002:0000fe98       ??_C@_08GHMPAG@__pascal?$AA@ 1007de98     LIBCMTD:undname.obj
 0002:0000fea4       ??_C@_07KOLFKCDI@__cdecl?$AA@ 1007dea4     LIBCMTD:undname.obj
 0002:0000feac       ??_C@_08EHJDFFNH@__based?$CI?$AA@ 1007deac     LIBCMTD:undname.obj
 0002:00010038       ??_C@_04HEJADOOB@CV?3?5?$AA@ 1007e038     LIBCMTD:undname.obj
 0002:00010040       ??_C@_02MOLJINC@?3?3?$AA@  1007e040     LIBCMTD:undname.obj
 0002:00010044       ??_C@_01GEODFPGF@?8?$AA@   1007e044     LIBCMTD:undname.obj
 0002:00010048       ??_C@_01NLNLIGKH@?$GA?$AA@ 1007e048     LIBCMTD:undname.obj
 0002:0001004c       ??_C@_0O@KHGCOMHP@generic?9type?9?$AA@ 1007e04c     LIBCMTD:undname.obj
 0002:0001005c       ??_C@_0BE@JAEOCHPE@template?9parameter?9?$AA@ 1007e05c     LIBCMTD:undname.obj
 0002:00010070       ??_C@_02OHHJMEON@?8?8?$AA@ 1007e070     LIBCMTD:undname.obj
 0002:00010074       ??_C@_0BG@JNJLAMPM@?$GAanonymous?5namespace?8?$AA@ 1007e074     LIBCMTD:undname.obj
 0002:0001008c       ??_C@_0BN@IBLMMFAP@?$GAnon?9type?9template?9parameter?$AA@ 1007e08c     LIBCMTD:undname.obj
 0002:000100ac       ??_C@_0BE@EODMJLIF@?$GAtemplate?9parameter?$AA@ 1007e0ac     LIBCMTD:undname.obj
 0002:000100c0       ??_C@_04GKJNKENE@void?$AA@ 1007e0c0     LIBCMTD:undname.obj
 0002:000100c8       ??_C@_04HIBGFPH@NULL?$AA@  1007e0c8     LIBCMTD:undname.obj
 0002:000100d0       ??_C@_0M@DHNBOJMP@extern?5?$CCC?$CC?5?$AA@ 1007e0d0     LIBCMTD:undname.obj
 0002:000100dc       ??_C@_08KJLFOPNE@?$FLthunk?$FN?3?$AA@ 1007e0dc     LIBCMTD:undname.obj
 0002:000100e8       ??_C@_08GPDDCMKI@public?3?5?$AA@ 1007e0e8     LIBCMTD:undname.obj
 0002:000100f4       ??_C@_0M@GAIFPFIP@protected?3?5?$AA@ 1007e0f4     LIBCMTD:undname.obj
 0002:00010100       ??_C@_09LAPHOOG@private?3?5?$AA@ 1007e100     LIBCMTD:undname.obj
 0002:0001010c       ??_C@_08NIEOINHE@virtual?5?$AA@ 1007e10c     LIBCMTD:undname.obj
 0002:00010118       ??_C@_07PGOEDBHP@static?5?$AA@ 1007e118     LIBCMTD:undname.obj
 0002:00010120       ??_C@_0DA@HGFJFBBE@?$GAtemplate?5static?5data?5member?5des@ 1007e120     LIBCMTD:undname.obj
 0002:00010150       ??_C@_0DB@ILEFOCIJ@?$GAtemplate?5static?5data?5member?5con@ 1007e150     LIBCMTD:undname.obj
 0002:00010184       ??_C@_0CB@KJDOOODE@?$GAlocal?5static?5destructor?5helper?8@ 1007e184     LIBCMTD:undname.obj
 0002:000101a8       ??_C@_0L@HNGCOGAE@?$GAadjustor?$HL?$AA@ 1007e1a8     LIBCMTD:undname.obj
 0002:000101b4       ??_C@_0L@GHPFDFH@?$GAvtordisp?$HL?$AA@ 1007e1b4     LIBCMTD:undname.obj
 0002:000101c0       ??_C@_0N@CBHHHENL@?$GAvtordispex?$HL?$AA@ 1007e1c0     LIBCMTD:undname.obj
 0002:000101d0       ??_C@_01CLKCMJKC@?5?$AA@   1007e1d0     LIBCMTD:undname.obj
 0002:000101d4       ??_C@_02IGFCGPIL@?$HN?8?$AA@ 1007e1d4     LIBCMTD:undname.obj
 0002:000101d8       ??_C@_03OPGICMGF@?$HN?8?5?$AA@ 1007e1d8     LIBCMTD:undname.obj
 0002:000101dc       ??_C@_02KCKGHPCA@?$CJ?5?$AA@ 1007e1dc     LIBCMTD:undname.obj
 0002:000101e0       ??_C@_05BEFAKPML@void?5?$AA@ 1007e1e0     LIBCMTD:undname.obj
 0002:000101e8       ??_C@_08PABEKFH@volatile?$AA@ 1007e1e8     LIBCMTD:undname.obj
 0002:000101f4       ??_C@_0M@ELJOJFFH@?0?$DMellipsis?$DO?$AA@ 1007e1f4     LIBCMTD:undname.obj
 0002:00010200       ??_C@_04EENFHACM@?0?4?4?4?$AA@ 1007e200     LIBCMTD:undname.obj
 0002:00010208       ??_C@_0L@EGPHHEKN@?$DMellipsis?$DO?$AA@ 1007e208     LIBCMTD:undname.obj
 0002:00010214       ??_C@_07HDJPLPEK@?5throw?$CI?$AA@ 1007e214     LIBCMTD:undname.obj
 0002:0001021c       ??_C@_09EFNPDFFP@?5volatile?$AA@ 1007e21c     LIBCMTD:undname.obj
 0002:00010228       ??_C@_05BNCCCJPP@const?$AA@ 1007e228     LIBCMTD:undname.obj
 0002:00010230       ??_C@_07EDHNAJHC@signed?5?$AA@ 1007e230     LIBCMTD:undname.obj
 0002:00010238       ??_C@_09EBBEKKIH@unsigned?5?$AA@ 1007e238     LIBCMTD:undname.obj
 0002:00010244       ??_C@_07NFANNNEC@UNKNOWN?$AA@ 1007e244     LIBCMTD:undname.obj
 0002:0001024c       ??_C@_06GCICPBLB@__w64?5?$AA@ 1007e24c     LIBCMTD:undname.obj
 0002:00010254       ??_C@_07CLGGIAMF@wchar_t?$AA@ 1007e254     LIBCMTD:undname.obj
 0002:0001025c       ??_C@_08GAHOLHEO@__int128?$AA@ 1007e25c     LIBCMTD:undname.obj
 0002:00010268       ??_C@_07LFCOJCAC@__int64?$AA@ 1007e268     LIBCMTD:undname.obj
 0002:00010270       ??_C@_07OFLPPHGP@__int32?$AA@ 1007e270     LIBCMTD:undname.obj
 0002:00010278       ??_C@_07ICFHOGAF@__int16?$AA@ 1007e278     LIBCMTD:undname.obj
 0002:00010280       ??_C@_06EBGKOKIG@__int8?$AA@ 1007e280     LIBCMTD:undname.obj
 0002:00010288       ??_C@_04DDKJGDCM@bool?$AA@ 1007e288     LIBCMTD:undname.obj
 0002:00010290       ??_C@_06BNJCAIGJ@double?$AA@ 1007e290     LIBCMTD:undname.obj
 0002:00010298       ??_C@_05CJIMAING@long?5?$AA@ 1007e298     LIBCMTD:undname.obj
 0002:000102a0       ??_C@_05KNFBNCOH@float?$AA@ 1007e2a0     LIBCMTD:undname.obj
 0002:000102a8       ??_C@_04GOKPGOLB@long?$AA@ 1007e2a8     LIBCMTD:undname.obj
 0002:000102b0       ??_C@_03JBIPMCLC@int?$AA@  1007e2b0     LIBCMTD:undname.obj
 0002:000102b4       ??_C@_05BFKKPKCG@short?$AA@ 1007e2b4     LIBCMTD:undname.obj
 0002:000102bc       ??_C@_04ENMBGAPA@char?$AA@ 1007e2bc     LIBCMTD:undname.obj
 0002:000102c4       ??_C@_05LJGMCFOG@enum?5?$AA@ 1007e2c4     LIBCMTD:undname.obj
 0002:000102cc       ??_C@_0N@DLIEFKNA@cointerface?5?$AA@ 1007e2cc     LIBCMTD:undname.obj
 0002:000102dc       ??_C@_08KOFANOFK@coclass?5?$AA@ 1007e2dc     LIBCMTD:undname.obj
 0002:000102e8       ??_C@_06LJBABKPM@class?5?$AA@ 1007e2e8     LIBCMTD:undname.obj
 0002:000102f0       ??_C@_07DIBCDNGL@struct?5?$AA@ 1007e2f0     LIBCMTD:undname.obj
 0002:000102f8       ??_C@_06MOJHIBMG@union?5?$AA@ 1007e2f8     LIBCMTD:undname.obj
 0002:00010300       ??_C@_0P@GCIFDJCJ@?$GAunknown?5ecsu?8?$AA@ 1007e300     LIBCMTD:undname.obj
 0002:00010310       ??_C@_04LAHKHJMA@int?5?$AA@ 1007e310     LIBCMTD:undname.obj
 0002:00010318       ??_C@_06EHJMALKF@short?5?$AA@ 1007e318     LIBCMTD:undname.obj
 0002:00010320       ??_C@_05CIHEBHNO@char?5?$AA@ 1007e320     LIBCMTD:undname.obj
 0002:00010328       ??_C@_06LIJLOJAG@const?5?$AA@ 1007e328     LIBCMTD:undname.obj
 0002:00010330       ??_C@_09GAIEOBLP@volatile?5?$AA@ 1007e330     LIBCMTD:undname.obj
 0002:0001033c       ??_C@_0O@GKABPPIF@cli?3?3pin_ptr?$DM?$AA@ 1007e33c     LIBCMTD:undname.obj
 0002:0001034c       ??_C@_0M@EALIELKG@cli?3?3array?$DM?$AA@ 1007e34c     LIBCMTD:undname.obj
 0002:00010358       ??_C@_02GOGNNPBN@?$CJ?$FL?$AA@ 1007e358     LIBCMTD:undname.obj
 0002:0001035c       ??_C@_06EEGAIFAK@?$HLflat?$HN?$AA@ 1007e35c     LIBCMTD:undname.obj
 0002:00010364       ??_C@_02MDINNEEG@s?5?$AA@  1007e364     LIBCMTD:undname.obj
 0002:00010368       ??_C@_05JIBOFOHK@?$HLfor?5?$AA@ 1007e368     LIBCMTD:undname.obj
 0002:00010374       ??_7DNameNode@@6B@         1007e374     LIBCMTD:undname.obj
 0002:00010384       ??_7charNode@@6B@          1007e384     LIBCMTD:undname.obj
 0002:00010394       ??_7pcharNode@@6B@         1007e394     LIBCMTD:undname.obj
 0002:000103a4       ??_7pDNameNode@@6B@        1007e3a4     LIBCMTD:undname.obj
 0002:000103b4       ??_7DNameStatusNode@@6B@   1007e3b4     LIBCMTD:undname.obj
 0002:000103c0       ??_C@_04OKOHEJBO@?5?$DP?$DP?5?$AA@ 1007e3c0     LIBCMTD:undname.obj
 0002:000103c8       ??_C@_13NOLLCAOD@?$AA?$AA?$AA?$AA@ 1007e3c8     LIBCMTD:a_map.obj
 0002:000103d0       ??_C@_1GA@EDILLMMN@?$AAF?$AA?3?$AA?2?$AAS?$AAP?$AA?2?$AAv?$AAc?$AAt?$AAo?$AAo?$AAl?$AAs?$AA?2?$AAc?$AAr?$AAt?$AA_?$AAb?$AAl?$AAd?$AA?2?$AAS?$AAE?$AAL?$AAF?$AA_?$AAX?$AA8?$AA6?$AA?2?$AAc@ 1007e3d0     LIBCMTD:a_map.obj
 0002:00010430       ??_C@_1FE@KNPCCODH@?$AA?$CI?$AA?$CC?$AAC?$AAo?$AAr?$AAr?$AAu?$AAp?$AAt?$AAe?$AAd?$AA?5?$AAp?$AAo?$AAi?$AAn?$AAt?$AAe?$AAr?$AA?5?$AAp?$AAa?$AAs?$AAs?$AAe?$AAd?$AA?5?$AAt?$AAo?$AA?5?$AA_?$AAf@ 1007e430     LIBCMTD:a_map.obj
 0002:00010488       ___newctype                1007e488     LIBCMTD:ctype.obj
 0002:00010788       __wctype                   1007e788     LIBCMTD:ctype.obj
 0002:00010990       ___newclmap                1007e990     LIBCMTD:ctype.obj
 0002:00010b10       ___newcumap                1007eb10     LIBCMTD:ctype.obj
 0002:00010c90       ??_C@_1BG@HHBAFOPB@?$AAi?$AAn?$AAi?$AAt?$AAt?$AAi?$AAm?$AAe?$AA?4?$AAc?$AA?$AA@ 1007ec90     LIBCMTD:inittime.obj
 0002:00010ca8       ??_C@_1EE@FDHCFDHN@?$AAp?$AAl?$AAo?$AAc?$AAi?$AA?9?$AA?$DO?$AAl?$AAc?$AA_?$AAt?$AAi?$AAm?$AAe?$AA_?$AAc?$AAu?$AAr?$AAr?$AA?9?$AA?$DO?$AAr?$AAe?$AAf?$AAc?$AAo?$AAu?$AAn?$AAt?$AA?5?$AA?$DO?$AA?5@ 1007eca8     LIBCMTD:inittime.obj
 0002:00010cec       ??_C@_0L@IOJADHBB@inittime?4c?$AA@ 1007ecec     LIBCMTD:inittime.obj
 0002:00010cf8       ??_C@_1BE@EAFFGEEO@?$AAi?$AAn?$AAi?$AAt?$AAn?$AAu?$AAm?$AA?4?$AAc?$AA?$AA@ 1007ecf8     LIBCMTD:initnum.obj
 0002:00010d0c       ??_C@_1DM@IFKAINNE@?$AAp?$AAl?$AAo?$AAc?$AAi?$AA?9?$AA?$DO?$AAl?$AAc?$AAo?$AAn?$AAv?$AA_?$AAn?$AAu?$AAm?$AA_?$AAr?$AAe?$AAf?$AAc?$AAo?$AAu?$AAn?$AAt?$AA?5?$AA?$DO?$AA?5?$AA0?$AA?$AA@ 1007ed0c     LIBCMTD:initnum.obj
 0002:00010d48       ??_C@_09MECGNAGI@initnum?4c?$AA@ 1007ed48     LIBCMTD:initnum.obj
 0002:00010d54       ??_C@_1BE@IJMIKAHM@?$AAi?$AAn?$AAi?$AAt?$AAm?$AAo?$AAn?$AA?4?$AAc?$AA?$AA@ 1007ed54     LIBCMTD:initmon.obj
 0002:00010d68       ??_C@_1DM@GKAPAMDO@?$AAp?$AAl?$AAo?$AAc?$AAi?$AA?9?$AA?$DO?$AAl?$AAc?$AAo?$AAn?$AAv?$AA_?$AAm?$AAo?$AAn?$AA_?$AAr?$AAe?$AAf?$AAc?$AAo?$AAu?$AAn?$AAt?$AA?5?$AA?$DO?$AA?5?$AA0?$AA?$AA@ 1007ed68     LIBCMTD:initmon.obj
 0002:00010da4       ??_C@_09HKFHICAL@initmon?4c?$AA@ 1007eda4     LIBCMTD:initmon.obj
 0002:00010db0       ??_C@_1DG@NMBGBDM@?$AAp?$AAl?$AAo?$AAc?$AAi?$AA?9?$AA?$DO?$AAc?$AAt?$AAy?$AAp?$AAe?$AA1?$AA_?$AAr?$AAe?$AAf?$AAc?$AAo?$AAu?$AAn?$AAt?$AA?5?$AA?$DO?$AA?5?$AA0?$AA?$AA@ 1007edb0     LIBCMTD:initctyp.obj
 0002:00010de8       ??_C@_1BG@PMMGDKJC@?$AAi?$AAn?$AAi?$AAt?$AAc?$AAt?$AAy?$AAp?$AA?4?$AAc?$AA?$AA@ 1007ede8     LIBCMTD:initctyp.obj
 0002:00010e00       ??_C@_0L@GBAGBCPL@initctyp?4c?$AA@ 1007ee00     LIBCMTD:initctyp.obj
 0002:00010e0c       ??_C@_08JCCMCCIL@HH?3mm?3ss?$AA@ 1007ee0c     LIBCMTD:strftime.obj
 0002:00010e18       ??_C@_0BE@CKGJFCPC@dddd?0?5MMMM?5dd?0?5yyyy?$AA@ 1007ee18     LIBCMTD:strftime.obj
 0002:00010e2c       ??_C@_08BPBNCDIB@MM?1dd?1yy?$AA@ 1007ee2c     LIBCMTD:strftime.obj
 0002:00010e38       ??_C@_02CJNFDJBF@PM?$AA@   1007ee38     LIBCMTD:strftime.obj
 0002:00010e3c       ??_C@_02DEDBPAFC@AM?$AA@   1007ee3c     LIBCMTD:strftime.obj
 0002:00010e40       ??_C@_08EDHMEBNP@December?$AA@ 1007ee40     LIBCMTD:strftime.obj
 0002:00010e4c       ??_C@_08HCHEGEOA@November?$AA@ 1007ee4c     LIBCMTD:strftime.obj
 0002:00010e58       ??_C@_07JJNFCEND@October?$AA@ 1007ee58     LIBCMTD:strftime.obj
 0002:00010e60       ??_C@_09BHHEALKD@September?$AA@ 1007ee60     LIBCMTD:strftime.obj
 0002:00010e6c       ??_C@_06LBBHFDDG@August?$AA@ 1007ee6c     LIBCMTD:strftime.obj
 0002:00010e74       ??_C@_04MIEPOIFP@July?$AA@ 1007ee74     LIBCMTD:strftime.obj
 0002:00010e7c       ??_C@_04CNLMGBGM@June?$AA@ 1007ee7c     LIBCMTD:strftime.obj
 0002:00010e84       ??_C@_05DMJDNLEJ@April?$AA@ 1007ee84     LIBCMTD:strftime.obj
 0002:00010e8c       ??_C@_05HPCKOFNC@March?$AA@ 1007ee8c     LIBCMTD:strftime.obj
 0002:00010e94       ??_C@_08GNJGEPFN@February?$AA@ 1007ee94     LIBCMTD:strftime.obj
 0002:00010ea0       ??_C@_07CGJPFGJA@January?$AA@ 1007eea0     LIBCMTD:strftime.obj
 0002:00010ea8       ??_C@_03MKABNOCG@Dec?$AA@  1007eea8     LIBCMTD:strftime.obj
 0002:00010eac       ??_C@_03JPJOFNIA@Nov?$AA@  1007eeac     LIBCMTD:strftime.obj
 0002:00010eb0       ??_C@_03BMAOKBAD@Oct?$AA@  1007eeb0     LIBCMTD:strftime.obj
 0002:00010eb4       ??_C@_03GGCAPAJC@Sep?$AA@  1007eeb4     LIBCMTD:strftime.obj
 0002:00010eb8       ??_C@_03IFJFEIGA@Aug?$AA@  1007eeb8     LIBCMTD:strftime.obj
 0002:00010ebc       ??_C@_03LBGABGKK@Jul?$AA@  1007eebc     LIBCMTD:strftime.obj
 0002:00010ec0       ??_C@_03IDFGHECI@Jun?$AA@  1007eec0     LIBCMTD:strftime.obj
 0002:00010ec4       ??_C@_03CNMDKL@May?$AA@    1007eec4     LIBCMTD:strftime.obj
 0002:00010ec8       ??_C@_03LEOLGMJP@Apr?$AA@  1007eec8     LIBCMTD:strftime.obj
 0002:00010ecc       ??_C@_03ODNJBKGA@Mar?$AA@  1007eecc     LIBCMTD:strftime.obj
 0002:00010ed0       ??_C@_03HJBDCHOM@Feb?$AA@  1007eed0     LIBCMTD:strftime.obj
 0002:00010ed4       ??_C@_03JIHJHPIE@Jan?$AA@  1007eed4     LIBCMTD:strftime.obj
 0002:00010ed8       ??_C@_08INBOOONO@Saturday?$AA@ 1007eed8     LIBCMTD:strftime.obj
 0002:00010ee4       ??_C@_06JECMNKMI@Friday?$AA@ 1007eee4     LIBCMTD:strftime.obj
 0002:00010eec       ??_C@_08HACCIKIA@Thursday?$AA@ 1007eeec     LIBCMTD:strftime.obj
 0002:00010ef8       ??_C@_09DLIGFAKA@Wednesday?$AA@ 1007eef8     LIBCMTD:strftime.obj
 0002:00010f04       ??_C@_07BAAGCFCM@Tuesday?$AA@ 1007ef04     LIBCMTD:strftime.obj
 0002:00010f0c       ??_C@_06JLEDEDGH@Monday?$AA@ 1007ef0c     LIBCMTD:strftime.obj
 0002:00010f14       ??_C@_06OOPIFAJ@Sunday?$AA@ 1007ef14     LIBCMTD:strftime.obj
 0002:00010f1c       ??_C@_03FEFJNEK@Sat?$AA@   1007ef1c     LIBCMTD:strftime.obj
 0002:00010f20       ??_C@_03IDIOELNC@Fri?$AA@  1007ef20     LIBCMTD:strftime.obj
 0002:00010f24       ??_C@_03IOFIKPDN@Thu?$AA@  1007ef24     LIBCMTD:strftime.obj
 0002:00010f28       ??_C@_03MHOMLAJA@Wed?$AA@  1007ef28     LIBCMTD:strftime.obj
 0002:00010f2c       ??_C@_03NAGEINEP@Tue?$AA@  1007ef2c     LIBCMTD:strftime.obj
 0002:00010f30       ??_C@_03PDAGKDH@Mon?$AA@   1007ef30     LIBCMTD:strftime.obj
 0002:00010f34       ??_C@_03KOEHGMDN@Sun?$AA@  1007ef34     LIBCMTD:strftime.obj
 0002:00010f38       ??_C@_1FM@LPEPDBJF@?$AAs?$AAt?$AAr?$AAc?$AAp?$AAy?$AA_?$AAs?$AA?$CI?$AAs?$AA?0?$AA?5?$AA?$CI?$AAl?$AAe?$AAn?$AA?5?$AA?$CL?$AA?5?$AA1?$AA?$CJ?$AA?5?$AA?9?$AA?5?$AA?$CI?$AAs?$AA?5?$AA?9?$AA?5?$AAp?$AA?$CJ?$AA?0@ 1007ef38     LIBCMTD:strftime.obj
 0002:00010f98       ??_C@_1GG@NAGHPCAA@?$AAs?$AAt?$AAr?$AAc?$AAp?$AAy?$AA_?$AAs?$AA?$CI?$AAs?$AA?0?$AA?5?$AA?$CI?$AAl?$AAe?$AAn?$AA?5?$AA?$CL?$AA?5?$AA1?$AA?$CJ?$AA?5?$AA?9?$AA?5?$AA?$CI?$AAs?$AA?5?$AA?9?$AA?5?$AAp?$AA?$CJ?$AA?0@ 1007ef98     LIBCMTD:strftime.obj
 0002:00011000       ??_C@_1BG@LGACIFJI@?$AA_?$AAG?$AAe?$AAt?$AAd?$AAa?$AAy?$AAs?$AA_?$AAl?$AA?$AA@ 1007f000     LIBCMTD:strftime.obj
 0002:00011018       ??_C@_1BG@EMNEMEKA@?$AAs?$AAt?$AAr?$AAf?$AAt?$AAi?$AAm?$AAe?$AA?4?$AAc?$AA?$AA@ 1007f018     LIBCMTD:strftime.obj
 0002:00011030       ??_C@_0L@OCEOFAIF@strftime?4c?$AA@ 1007f030     LIBCMTD:strftime.obj
 0002:00011040       ??_C@_1FO@IFFKPIEL@?$AAs?$AAt?$AAr?$AAc?$AAp?$AAy?$AA_?$AAs?$AA?$CI?$AAs?$AA?0?$AA?5?$AA?$CI?$AAl?$AAe?$AAn?$AA?5?$AA?$CL?$AA?5?$AA1?$AA?$CJ?$AA?5?$AA?9?$AA?5?$AA?$CI?$AAs?$AA?5?$AA?9?$AA?5?$AAp?$AA?$CJ?$AA?0@ 1007f040     LIBCMTD:strftime.obj
 0002:000110a0       ??_C@_1GI@LNJDDNLK@?$AAs?$AAt?$AAr?$AAc?$AAp?$AAy?$AA_?$AAs?$AA?$CI?$AAs?$AA?0?$AA?5?$AA?$CI?$AAl?$AAe?$AAn?$AA?5?$AA?$CL?$AA?5?$AA1?$AA?$CJ?$AA?5?$AA?9?$AA?5?$AA?$CI?$AAs?$AA?5?$AA?9?$AA?5?$AAp?$AA?$CJ?$AA?0@ 1007f0a0     LIBCMTD:strftime.obj
 0002:00011108       ??_C@_1BK@IDMELNCB@?$AA_?$AAG?$AAe?$AAt?$AAm?$AAo?$AAn?$AAt?$AAh?$AAs?$AA_?$AAl?$AA?$AA@ 1007f108     LIBCMTD:strftime.obj
 0002:00011128       ??_C@_1FG@CJBIADLJ@?$AAs?$AAt?$AAr?$AAc?$AAp?$AAy?$AA_?$AAs?$AA?$CI?$AAs?$AA?0?$AA?5?$AAl?$AAe?$AAn?$AA?5?$AA?9?$AA?5?$AA?$CI?$AAs?$AA?5?$AA?9?$AA?5?$AAp?$AA?$CJ?$AA?0?$AA?5?$AAp?$AAt?$AA?9?$AA?$DO?$AAw@ 1007f128     LIBCMTD:strftime.obj
 0002:00011180       ??_C@_1FI@PPIHCJGH@?$AAs?$AAt?$AAr?$AAc?$AAp?$AAy?$AA_?$AAs?$AA?$CI?$AAs?$AA?0?$AA?5?$AAl?$AAe?$AAn?$AA?5?$AA?9?$AA?5?$AA?$CI?$AAs?$AA?5?$AA?9?$AA?5?$AAp?$AA?$CJ?$AA?0?$AA?5?$AAp?$AAt?$AA?9?$AA?$DO?$AAw@ 1007f180     LIBCMTD:strftime.obj
 0002:000111d8       ??_C@_1FI@GDNOPCGD@?$AAs?$AAt?$AAr?$AAc?$AAp?$AAy?$AA_?$AAs?$AA?$CI?$AAs?$AA?0?$AA?5?$AAl?$AAe?$AAn?$AA?5?$AA?9?$AA?5?$AA?$CI?$AAs?$AA?5?$AA?9?$AA?5?$AAp?$AA?$CJ?$AA?0?$AA?5?$AAp?$AAt?$AA?9?$AA?$DO?$AAw@ 1007f1d8     LIBCMTD:strftime.obj
 0002:00011230       ??_C@_1FA@MEHIJEIL@?$AAs?$AAt?$AAr?$AAc?$AAp?$AAy?$AA_?$AAs?$AA?$CI?$AAs?$AA?0?$AA?5?$AAl?$AAe?$AAn?$AA?5?$AA?9?$AA?5?$AA?$CI?$AAs?$AA?5?$AA?9?$AA?5?$AAp?$AA?$CJ?$AA?0?$AA?5?$AAp?$AAt?$AA?9?$AA?$DO?$AAa@ 1007f230     LIBCMTD:strftime.obj
 0002:00011280       ??_C@_1FA@INCJEBF@?$AAs?$AAt?$AAr?$AAc?$AAp?$AAy?$AA_?$AAs?$AA?$CI?$AAs?$AA?0?$AA?5?$AAl?$AAe?$AAn?$AA?5?$AA?9?$AA?5?$AA?$CI?$AAs?$AA?5?$AA?9?$AA?5?$AAp?$AA?$CJ?$AA?0?$AA?5?$AAp?$AAt?$AA?9?$AA?$DO?$AAa@ 1007f280     LIBCMTD:strftime.obj
 0002:000112d0       ??_C@_1FC@BEAPAEGE@?$AAs?$AAt?$AAr?$AAc?$AAp?$AAy?$AA_?$AAs?$AA?$CI?$AAs?$AA?0?$AA?5?$AAl?$AAe?$AAn?$AA?5?$AA?9?$AA?5?$AA?$CI?$AAs?$AA?5?$AA?9?$AA?5?$AAp?$AA?$CJ?$AA?0?$AA?5?$AAp?$AAt?$AA?9?$AA?$DO?$AAm@ 1007f2d0     LIBCMTD:strftime.obj
 0002:00011328       ??_C@_1FM@CHHONFED@?$AAs?$AAt?$AAr?$AAc?$AAp?$AAy?$AA_?$AAs?$AA?$CI?$AAs?$AA?0?$AA?5?$AAl?$AAe?$AAn?$AA?5?$AA?9?$AA?5?$AA?$CI?$AAs?$AA?5?$AA?9?$AA?5?$AAp?$AA?$CJ?$AA?0?$AA?5?$AAp?$AAt?$AA?9?$AA?$DO?$AAm@ 1007f328     LIBCMTD:strftime.obj
 0002:00011388       ??_C@_1FA@EBHJJADL@?$AAs?$AAt?$AAr?$AAc?$AAp?$AAy?$AA_?$AAs?$AA?$CI?$AAs?$AA?0?$AA?5?$AAl?$AAe?$AAn?$AA?5?$AA?9?$AA?5?$AA?$CI?$AAs?$AA?5?$AA?9?$AA?5?$AAp?$AA?$CJ?$AA?0?$AA?5?$AAp?$AAt?$AA?9?$AA?$DO?$AAw@ 1007f388     LIBCMTD:strftime.obj
 0002:000113d8       ??_C@_1FK@ODMKEFLD@?$AAs?$AAt?$AAr?$AAc?$AAp?$AAy?$AA_?$AAs?$AA?$CI?$AAs?$AA?0?$AA?5?$AAl?$AAe?$AAn?$AA?5?$AA?9?$AA?5?$AA?$CI?$AAs?$AA?5?$AA?9?$AA?5?$AAp?$AA?$CJ?$AA?0?$AA?5?$AAp?$AAt?$AA?9?$AA?$DO?$AAw@ 1007f3d8     LIBCMTD:strftime.obj
 0002:00011434       ??_C@_1BK@MJNHIAGO@?$AA_?$AAG?$AAe?$AAt?$AAt?$AAn?$AAa?$AAm?$AAe?$AAs?$AA_?$AAl?$AA?$AA@ 1007f434     LIBCMTD:strftime.obj
 0002:00011450       ??_C@_1M@HCOOECOK@?$AAF?$AAA?$AAL?$AAS?$AAE?$AA?$AA@ 1007f450     LIBCMTD:strftime.obj
 0002:00011460       ??_C@_1HC@JGDOBCNK@?$AA?$CI?$AA?$CC?$AAI?$AAn?$AAv?$AAa?$AAl?$AAi?$AAd?$AA?5?$AAM?$AAB?$AAC?$AAS?$AA?5?$AAc?$AAh?$AAa?$AAr?$AAa?$AAc?$AAt?$AAe?$AAr?$AA?5?$AAs?$AAe?$AAq?$AAu?$AAe?$AAn?$AAc@ 1007f460     LIBCMTD:strftime.obj
 0002:000114d4       ??_C@_1BG@CCBNLOOI@?$AAt?$AAi?$AAm?$AAe?$AAp?$AAt?$AAr?$AA?$CB?$AA?$DN?$AA0?$AA?$AA@ 1007f4d4     LIBCMTD:strftime.obj
 0002:000114ec       ??_C@_1CG@MHIOFJLE@?$AA?$CI?$AA?5?$AAf?$AAo?$AAr?$AAm?$AAa?$AAt?$AA?5?$AA?$CB?$AA?$DN?$AA?5?$AAN?$AAU?$AAL?$AAL?$AA?5?$AA?$CJ?$AA?$AA@ 1007f4ec     LIBCMTD:strftime.obj
 0002:00011514       ??_C@_1CC@IHEJKGMG@?$AA?$CI?$AA?5?$AAm?$AAa?$AAx?$AAs?$AAi?$AAz?$AAe?$AA?5?$AA?$CB?$AA?$DN?$AA?5?$AA0?$AA?5?$AA?$CJ?$AA?$AA@ 1007f514     LIBCMTD:strftime.obj
 0002:00011538       ??_C@_1BI@ONBMGNNA@?$AA_?$AAS?$AAt?$AAr?$AAf?$AAt?$AAi?$AAm?$AAe?$AA_?$AAl?$AA?$AA@ 1007f538     LIBCMTD:strftime.obj
 0002:00011550       ??_C@_1CG@MPKJHDAA@?$AA?$CI?$AA?5?$AAs?$AAt?$AAr?$AAi?$AAn?$AAg?$AA?5?$AA?$CB?$AA?$DN?$AA?5?$AAN?$AAU?$AAL?$AAL?$AA?5?$AA?$CJ?$AA?$AA@ 1007f550     LIBCMTD:strftime.obj
 0002:00011578       ??_C@_1EG@JNJKHKFI@?$AA?$CI?$AA?5?$AA?$CC?$AAI?$AAn?$AAv?$AAa?$AAl?$AAi?$AAd?$AA?5?$AAf?$AAo?$AAr?$AAm?$AAa?$AAt?$AA?5?$AAd?$AAi?$AAr?$AAe?$AAc?$AAt?$AAi?$AAv?$AAe?$AA?$CC?$AA?5?$AA?0?$AA?5?$AA0@ 1007f578     LIBCMTD:strftime.obj
 0002:000115c0       ??_C@_1HM@LBNGKIAD@?$AA?$CI?$AA?5?$AAt?$AAi?$AAm?$AAe?$AAp?$AAt?$AAr?$AA?9?$AA?$DO?$AAt?$AAm?$AA_?$AAy?$AAe?$AAa?$AAr?$AA?5?$AA?$DO?$AA?$DN?$AA?5?$AA?9?$AA1?$AA9?$AA0?$AA0?$AA?5?$AA?$CJ?$AA?5?$AA?$CG?$AA?$CG@ 1007f5c0     LIBCMTD:strftime.obj
 0002:0001163c       ??_C@_1DC@NMCFBMJP@?$AA?$CI?$AA?5?$AAt?$AAi?$AAm?$AAe?$AAp?$AAt?$AAr?$AA?9?$AA?$DO?$AAt?$AAm?$AA_?$AAy?$AAe?$AAa?$AAr?$AA?5?$AA?$DO?$AA?$DN?$AA0?$AA?5?$AA?$CJ?$AA?$AA@ 1007f63c     LIBCMTD:strftime.obj
 0002:00011670       ??_C@_1HC@HLKHIKOB@?$AA?$CI?$AA?5?$AA?$CI?$AA?5?$AAt?$AAi?$AAm?$AAe?$AAp?$AAt?$AAr?$AA?9?$AA?$DO?$AAt?$AAm?$AA_?$AAs?$AAe?$AAc?$AA?5?$AA?$DO?$AA?$DN?$AA0?$AA?5?$AA?$CJ?$AA?5?$AA?$CG?$AA?$CG?$AA?5?$AA?$CI?$AA?5?$AAt@ 1007f670     LIBCMTD:strftime.obj
 0002:000116e8       ??_C@_1HC@IGKDPPHL@?$AA?$CI?$AA?5?$AA?$CI?$AA?5?$AAt?$AAi?$AAm?$AAe?$AAp?$AAt?$AAr?$AA?9?$AA?$DO?$AAt?$AAm?$AA_?$AAm?$AAi?$AAn?$AA?5?$AA?$DO?$AA?$DN?$AA0?$AA?5?$AA?$CJ?$AA?5?$AA?$CG?$AA?$CG?$AA?5?$AA?$CI?$AA?5?$AAt@ 1007f6e8     LIBCMTD:strftime.obj
 0002:00011760       ??_C@_1HI@HHCJCPE@?$AA?$CI?$AA?5?$AA?$CI?$AA?5?$AAt?$AAi?$AAm?$AAe?$AAp?$AAt?$AAr?$AA?9?$AA?$DO?$AAt?$AAm?$AA_?$AAy?$AAd?$AAa?$AAy?$AA?5?$AA?$DO?$AA?$DN?$AA0?$AA?5?$AA?$CJ?$AA?5?$AA?$CG?$AA?$CG?$AA?5?$AA?$CI?$AA?5@ 1007f760     LIBCMTD:strftime.obj
 0002:000117d8       ??_C@_1HG@KCGGFLNI@?$AA?$CI?$AA?5?$AA?$CI?$AA?5?$AAt?$AAi?$AAm?$AAe?$AAp?$AAt?$AAr?$AA?9?$AA?$DO?$AAt?$AAm?$AA_?$AAh?$AAo?$AAu?$AAr?$AA?5?$AA?$DO?$AA?$DN?$AA0?$AA?5?$AA?$CJ?$AA?5?$AA?$CG?$AA?$CG?$AA?5?$AA?$CI?$AA?5@ 1007f7d8     LIBCMTD:strftime.obj
 0002:00011850       ??_C@_1HG@NFHHOAD@?$AA?$CI?$AA?5?$AA?$CI?$AA?5?$AAt?$AAi?$AAm?$AAe?$AAp?$AAt?$AAr?$AA?9?$AA?$DO?$AAt?$AAm?$AA_?$AAm?$AAd?$AAa?$AAy?$AA?5?$AA?$DO?$AA?$DN?$AA1?$AA?5?$AA?$CJ?$AA?5?$AA?$CG?$AA?$CG?$AA?5?$AA?$CI?$AA?5@ 1007f850     LIBCMTD:strftime.obj
 0002:000118c8       ??_C@_1HC@OOAMILFB@?$AA?$CI?$AA?5?$AA?$CI?$AA?5?$AAt?$AAi?$AAm?$AAe?$AAp?$AAt?$AAr?$AA?9?$AA?$DO?$AAt?$AAm?$AA_?$AAm?$AAo?$AAn?$AA?5?$AA?$DO?$AA?$DN?$AA0?$AA?5?$AA?$CJ?$AA?5?$AA?$CG?$AA?$CG?$AA?5?$AA?$CI?$AA?5?$AAt@ 1007f8c8     LIBCMTD:strftime.obj
 0002:0001193c       ??_C@_1BI@HBKPAJH@?$AA_?$AAe?$AAx?$AAp?$AAa?$AAn?$AAd?$AAt?$AAi?$AAm?$AAe?$AA?$AA@ 1007f93c     LIBCMTD:strftime.obj
 0002:00011958       ??_C@_1HE@BFLEOKFO@?$AA?$CI?$AA?5?$AA?$CI?$AA?5?$AAt?$AAi?$AAm?$AAe?$AAp?$AAt?$AAr?$AA?9?$AA?$DO?$AAt?$AAm?$AA_?$AAw?$AAd?$AAa?$AAy?$AA?5?$AA?$DO?$AA?$DN?$AA0?$AA?5?$AA?$CJ?$AA?5?$AA?$CG?$AA?$CG?$AA?5?$AA?$CI?$AA?5@ 1007f958     LIBCMTD:strftime.obj
 0002:000119d0       ??_C@_1HG@PAEENAPO@?$AA?$CI?$AA?$CC?$AAI?$AAn?$AAv?$AAa?$AAl?$AAi?$AAd?$AA?5?$AAM?$AAB?$AAC?$AAS?$AA?5?$AAc?$AAh?$AAa?$AAr?$AAa?$AAc?$AAt?$AAe?$AAr?$AA?5?$AAs?$AAe?$AAq?$AAu?$AAe?$AAn?$AAc@ 1007f9d0     LIBCMTD:strftime.obj
 0002:00011a48       ??_C@_1IE@EIDABBDG@?$AA?$CI?$AA?$CC?$AAI?$AAn?$AAv?$AAa?$AAl?$AAi?$AAd?$AA?5?$AAM?$AAB?$AAC?$AAS?$AA?5?$AAc?$AAh?$AAa?$AAr?$AAa?$AAc?$AAt?$AAe?$AAr?$AA?5?$AAs?$AAe?$AAq?$AAu?$AAe?$AAn?$AAc@ 1007fa48     LIBCMTD:strftime.obj
 0002:00011acc       ??_C@_03EBAPMIKO@a?1p?$AA@ 1007facc     LIBCMTD:strftime.obj
 0002:00011ad0       ??_C@_05JAMEPDIN@am?1pm?$AA@ 1007fad0     LIBCMTD:strftime.obj
 0002:00011ad8       ??_C@_1BE@NDMJHJJG@?$AAs?$AAt?$AAr?$AAn?$AAc?$AAp?$AAy?$AA_?$AAs?$AA?$AA@ 1007fad8     LIBCMTD:strncpy_s.obj
 0002:00011aec       ??_C@_0O@FMJNFNKE@united?9states?$AA@ 1007faec     LIBCMTD:getqloc.obj
 0002:00011afc       ??_C@_0P@NDHFFKCA@united?9kingdom?$AA@ 1007fafc     LIBCMTD:getqloc.obj
 0002:00011b0c       ??_C@_0BC@HHDADLGF@trinidad?5?$CG?5tobago?$AA@ 1007fb0c     LIBCMTD:getqloc.obj
 0002:00011b20       ??_C@_0M@IOAEBDAC@south?9korea?$AA@ 1007fb20     LIBCMTD:getqloc.obj
 0002:00011b2c       ??_C@_0N@FIELFKIJ@south?9africa?$AA@ 1007fb2c     LIBCMTD:getqloc.obj
 0002:00011b3c       ??_C@_0M@OPNDHCMC@south?5korea?$AA@ 1007fb3c     LIBCMTD:getqloc.obj
 0002:00011b48       ??_C@_0N@MDEOEPFI@south?5africa?$AA@ 1007fb48     LIBCMTD:getqloc.obj
 0002:00011b58       ??_C@_06FKAPCJLB@slovak?$AA@ 1007fb58     LIBCMTD:getqloc.obj
 0002:00011b60       ??_C@_0M@EFJANOAL@puerto?9rico?$AA@ 1007fb60     LIBCMTD:getqloc.obj
 0002:00011b6c       ??_C@_08PGOJKDAI@pr?9china?$AA@ 1007fb6c     LIBCMTD:getqloc.obj
 0002:00011b78       ??_C@_08JHDOMCMI@pr?5china?$AA@ 1007fb78     LIBCMTD:getqloc.obj
 0002:00011b84       ??_C@_02JHCHFBLL@nz?$AA@   1007fb84     LIBCMTD:getqloc.obj
 0002:00011b88       ??_C@_0M@LINHDHKP@new?9zealand?$AA@ 1007fb88     LIBCMTD:getqloc.obj
 0002:00011b94       ??_C@_09IIIPPBDB@hong?9kong?$AA@ 1007fb94     LIBCMTD:getqloc.obj
 0002:00011ba0       ??_C@_07HJLCKBG@holland?$AA@ 1007fba0     LIBCMTD:getqloc.obj
 0002:00011ba8       ??_C@_0O@LEHGMHAG@great?5britain?$AA@ 1007fba8     LIBCMTD:getqloc.obj
 0002:00011bb8       ??_C@_07FACOMELA@england?$AA@ 1007fbb8     LIBCMTD:getqloc.obj
 0002:00011bc0       ??_C@_05JIHCEICB@czech?$AA@ 1007fbc0     LIBCMTD:getqloc.obj
 0002:00011bc8       ??_C@_05BBJOBLGB@china?$AA@ 1007fbc8     LIBCMTD:getqloc.obj
 0002:00011bd0       ??_C@_07GPKPHICP@britain?$AA@ 1007fbd0     LIBCMTD:getqloc.obj
 0002:00011bd8       ??_C@_07MHIPBHMG@america?$AA@ 1007fbd8     LIBCMTD:getqloc.obj
 0002:00011be0       ??_C@_03KIALPMKC@usa?$AA@  1007fbe0     LIBCMTD:getqloc.obj
 0002:00011be4       ??_C@_02FGJGKGGD@us?$AA@   1007fbe4     LIBCMTD:getqloc.obj
 0002:00011be8       ??_C@_02NEINDODK@uk?$AA@   1007fbe8     LIBCMTD:getqloc.obj
 0002:00011bec       ??_C@_05JMPCFJFJ@swiss?$AA@ 1007fbec     LIBCMTD:getqloc.obj
 0002:00011bf4       ??_C@_0BA@HLOCPIOD@swedish?9finland?$AA@ 1007fbf4     LIBCMTD:getqloc.obj
 0002:00011c04       ??_C@_0BC@PKCNIABK@spanish?9venezuela?$AA@ 1007fc04     LIBCMTD:getqloc.obj
 0002:00011c18       ??_C@_0BA@GBHHMIJI@spanish?9uruguay?$AA@ 1007fc18     LIBCMTD:getqloc.obj
 0002:00011c28       ??_C@_0BE@BHDOHPMC@spanish?9puerto?5rico?$AA@ 1007fc28     LIBCMTD:getqloc.obj
 0002:00011c3c       ??_C@_0N@KMOIDGGN@spanish?9peru?$AA@ 1007fc3c     LIBCMTD:getqloc.obj
 0002:00011c4c       ??_C@_0BB@HMHLPGPH@spanish?9paraguay?$AA@ 1007fc4c     LIBCMTD:getqloc.obj
 0002:00011c60       ??_C@_0P@MCPKNGFD@spanish?9panama?$AA@ 1007fc60     LIBCMTD:getqloc.obj
 0002:00011c70       ??_C@_0BC@IHOHGAIL@spanish?9nicaragua?$AA@ 1007fc70     LIBCMTD:getqloc.obj
 0002:00011c84       ??_C@_0P@KLMJDNFJ@spanish?9modern?$AA@ 1007fc84     LIBCMTD:getqloc.obj
 0002:00011c94       ??_C@_0BA@BPAPGBCM@spanish?9mexican?$AA@ 1007fc94     LIBCMTD:getqloc.obj
 0002:00011ca4       ??_C@_0BB@PDECHHHE@spanish?9honduras?$AA@ 1007fca4     LIBCMTD:getqloc.obj
 0002:00011cb8       ??_C@_0BC@KLHKFGDB@spanish?9guatemala?$AA@ 1007fcb8     LIBCMTD:getqloc.obj
 0002:00011ccc       ??_C@_0BE@MFOOKJAI@spanish?9el?5salvador?$AA@ 1007fccc     LIBCMTD:getqloc.obj
 0002:00011ce0       ??_C@_0BA@FCOKFPFC@spanish?9ecuador?$AA@ 1007fce0     LIBCMTD:getqloc.obj
 0002:00011cf0       ??_C@_0BL@PLMGIMOO@spanish?9dominican?5republic?$AA@ 1007fcf0     LIBCMTD:getqloc.obj
 0002:00011d0c       ??_C@_0BD@HLGDNMHB@spanish?9costa?5rica?$AA@ 1007fd0c     LIBCMTD:getqloc.obj
 0002:00011d20       ??_C@_0BB@PKCBKCPE@spanish?9colombia?$AA@ 1007fd20     LIBCMTD:getqloc.obj
 0002:00011d34       ??_C@_0O@MCBIJGNE@spanish?9chile?$AA@ 1007fd34     LIBCMTD:getqloc.obj
 0002:00011d44       ??_C@_0BA@BEFEIGJJ@spanish?9bolivia?$AA@ 1007fd44     LIBCMTD:getqloc.obj
 0002:00011d54       ??_C@_0BC@EMECMPD@spanish?9argentina?$AA@ 1007fd54     LIBCMTD:getqloc.obj
 0002:00011d68       ??_C@_0BF@EALFLENP@portuguese?9brazilian?$AA@ 1007fd68     LIBCMTD:getqloc.obj
 0002:00011d80       ??_C@_0BC@HBLEBLNN@norwegian?9nynorsk?$AA@ 1007fd80     LIBCMTD:getqloc.obj
 0002:00011d94       ??_C@_0BB@HMACDDCK@norwegian?9bokmal?$AA@ 1007fd94     LIBCMTD:getqloc.obj
 0002:00011da8       ??_C@_09BAFFPPHE@norwegian?$AA@ 1007fda8     LIBCMTD:getqloc.obj
 0002:00011db4       ??_C@_0O@EAJFJDFG@italian?9swiss?$AA@ 1007fdb4     LIBCMTD:getqloc.obj
 0002:00011dc4       ??_C@_0O@CNOMPGD@irish?9english?$AA@ 1007fdc4     LIBCMTD:getqloc.obj
 0002:00011dd4       ??_C@_0N@EDHBGCKG@german?9swiss?$AA@ 1007fdd4     LIBCMTD:getqloc.obj
 0002:00011de4       ??_C@_0BC@JACMHNBP@german?9luxembourg?$AA@ 1007fde4     LIBCMTD:getqloc.obj
 0002:00011df8       ??_C@_0BE@HBGMGFEG@german?9lichtenstein?$AA@ 1007fdf8     LIBCMTD:getqloc.obj
 0002:00011e0c       ??_C@_0BA@HKKBIBKL@german?9austrian?$AA@ 1007fe0c     LIBCMTD:getqloc.obj
 0002:00011e1c       ??_C@_0N@GCAEPEBK@french?9swiss?$AA@ 1007fe1c     LIBCMTD:getqloc.obj
 0002:00011e2c       ??_C@_0BC@DJFJJCK@french?9luxembourg?$AA@ 1007fe2c     LIBCMTD:getqloc.obj
 0002:00011e40       ??_C@_0BA@NNCEDFIC@french?9canadian?$AA@ 1007fe40     LIBCMTD:getqloc.obj
 0002:00011e50       ??_C@_0P@CMPOCLM@french?9belgian?$AA@ 1007fe50     LIBCMTD:getqloc.obj
 0002:00011e60       ??_C@_0M@GHHDJOK@english?9usa?$AA@ 1007fe60     LIBCMTD:getqloc.obj
 0002:00011e6c       ??_C@_0L@PLDJKEIL@english?9us?$AA@ 1007fe6c     LIBCMTD:getqloc.obj
 0002:00011e78       ??_C@_0L@HJCCDMNC@english?9uk?$AA@ 1007fe78     LIBCMTD:getqloc.obj
 0002:00011e84       ??_C@_0BK@CKLIAGJB@english?9trinidad?5y?5tobago?$AA@ 1007fe84     LIBCMTD:getqloc.obj
 0002:00011ea0       ??_C@_0BF@JMJMGNNF@english?9south?5africa?$AA@ 1007fea0     LIBCMTD:getqloc.obj
 0002:00011eb8       ??_C@_0L@DKIIFDFD@english?9nz?$AA@ 1007feb8     LIBCMTD:getqloc.obj
 0002:00011ec4       ??_C@_0BA@ONHGJCLH@english?9jamaica?$AA@ 1007fec4     LIBCMTD:getqloc.obj
 0002:00011ed4       ??_C@_0M@HJBGHOPO@english?9ire?$AA@ 1007fed4     LIBCMTD:getqloc.obj
 0002:00011ee0       ??_C@_0BC@LFEKMIFB@english?9caribbean?$AA@ 1007fee0     LIBCMTD:getqloc.obj
 0002:00011ef4       ??_C@_0M@OLDPFKHI@english?9can?$AA@ 1007fef4     LIBCMTD:getqloc.obj
 0002:00011f00       ??_C@_0P@OMDEHBMP@english?9belize?$AA@ 1007ff00     LIBCMTD:getqloc.obj
 0002:00011f10       ??_C@_0M@KFHFPFED@english?9aus?$AA@ 1007ff10     LIBCMTD:getqloc.obj
 0002:00011f1c       ??_C@_0BB@MNMBKDFE@english?9american?$AA@ 1007ff1c     LIBCMTD:getqloc.obj
 0002:00011f30       ??_C@_0O@KIDLNNBA@dutch?9belgian?$AA@ 1007ff30     LIBCMTD:getqloc.obj
 0002:00011f40       ??_C@_0BE@JBKABBMH@chinese?9traditional?$AA@ 1007ff40     LIBCMTD:getqloc.obj
 0002:00011f54       ??_C@_0BC@MJJMPKCG@chinese?9singapore?$AA@ 1007ff54     LIBCMTD:getqloc.obj
 0002:00011f68       ??_C@_0BD@FDKADDCP@chinese?9simplified?$AA@ 1007ff68     LIBCMTD:getqloc.obj
 0002:00011f7c       ??_C@_0BB@DBEFDDME@chinese?9hongkong?$AA@ 1007ff7c     LIBCMTD:getqloc.obj
 0002:00011f90       ??_C@_07DHNMFMCI@chinese?$AA@ 1007ff90     LIBCMTD:getqloc.obj
 0002:00011f98       ??_C@_03FNDDCHI@chi?$AA@   1007ff98     LIBCMTD:getqloc.obj
 0002:00011f9c       ??_C@_03BMMIADDJ@chh?$AA@  1007ff9c     LIBCMTD:getqloc.obj
 0002:00011fa0       ??_C@_08OAIPJDGI@canadian?$AA@ 1007ffa0     LIBCMTD:getqloc.obj
 0002:00011fac       ??_C@_07HBPMNPNJ@belgian?$AA@ 1007ffac     LIBCMTD:getqloc.obj
 0002:00011fb4       ??_C@_0L@OEKOPBEL@australian?$AA@ 1007ffb4     LIBCMTD:getqloc.obj
 0002:00011fc0       ??_C@_0BB@MEIMBEDG@american?9english?$AA@ 1007ffc0     LIBCMTD:getqloc.obj
 0002:00011fd4       ??_C@_0BB@DFMDPDGB@american?5english?$AA@ 1007ffd4     LIBCMTD:getqloc.obj
 0002:00011fe8       ??_C@_08IJLOKOLL@american?$AA@ 1007ffe8     LIBCMTD:getqloc.obj
 0002:00011ff8       ___rg_language             1007fff8     LIBCMTD:getqloc.obj
 0002:00012200       ___rg_country              10080200     LIBCMTD:getqloc.obj
 0002:000122b8       ___rglangidNotDefault      100802b8     LIBCMTD:getqloc.obj
 0002:000122cc       ??_C@_0BC@NFIEMBLL@Norwegian?9Nynorsk?$AA@ 100802cc     LIBCMTD:getqloc.obj
 0002:000122e0       ??_C@_1OM@OECHDGCF@?$AAs?$AAt?$AAr?$AAc?$AAp?$AAy?$AA_?$AAs?$AA?$CI?$AAl?$AAp?$AAO?$AAu?$AAt?$AAS?$AAt?$AAr?$AA?9?$AA?$DO?$AAs?$AAz?$AAL?$AAa?$AAn?$AAg?$AAu?$AAa?$AAg?$AAe?$AA?0?$AA?5?$AA?$CI@ 100802e0     LIBCMTD:getqloc.obj
 0002:000123cc       ??_C@_1CO@NJACLALJ@?$AA_?$AA_?$AAg?$AAe?$AAt?$AA_?$AAq?$AAu?$AAa?$AAl?$AAi?$AAf?$AAi?$AAe?$AAd?$AA_?$AAl?$AAo?$AAc?$AAa?$AAl?$AAe?$AA?$AA@ 100803cc     LIBCMTD:getqloc.obj
 0002:000123fc       ??_C@_1BE@GIJNDGB@?$AAg?$AAe?$AAt?$AAq?$AAl?$AAo?$AAc?$AA?4?$AAc?$AA?$AA@ 100803fc     LIBCMTD:getqloc.obj
 0002:00012410       ??_C@_03NFKLAGEF@OCP?$AA@  10080410     LIBCMTD:getqloc.obj
 0002:00012414       ??_C@_03DFHEHBHG@ACP?$AA@  10080414     LIBCMTD:getqloc.obj
 0002:00012418       ??_C@_1BK@CLIEHFDF@?$AAp?$AAf?$AAl?$AAt?$AA?5?$AA?$CB?$AA?$DN?$AA?5?$AAN?$AAU?$AAL?$AAL?$AA?$AA@ 10080418     LIBCMTD:_fptostr.obj
 0002:00012438       ??_C@_1GM@CEDLGDDI@?$AAs?$AAi?$AAz?$AAe?$AAI?$AAn?$AAB?$AAy?$AAt?$AAe?$AAs?$AA?5?$AA?$DO?$AA?5?$AA?$CI?$AAs?$AAi?$AAz?$AAe?$AA_?$AAt?$AA?$CJ?$AA?$CI?$AA?$CI?$AAd?$AAi?$AAg?$AAi?$AAt?$AAs?$AA?5?$AA?$DO@ 10080438     LIBCMTD:_fptostr.obj
 0002:000124a4       ??_C@_1BC@OPALLEB@?$AA_?$AAf?$AAp?$AAt?$AAo?$AAs?$AAt?$AAr?$AA?$AA@ 100804a4     LIBCMTD:_fptostr.obj
 0002:000124b8       ??_C@_1BG@NJCNOLI@?$AA_?$AAf?$AAp?$AAt?$AAo?$AAs?$AAt?$AAr?$AA?4?$AAc?$AA?$AA@ 100804b8     LIBCMTD:_fptostr.obj
 0002:000124d0       ??_C@_1CG@EBJECAJM@?$AA_?$AAs?$AAe?$AAt?$AA_?$AAo?$AAu?$AAt?$AAp?$AAu?$AAt?$AA_?$AAf?$AAo?$AAr?$AAm?$AAa?$AAt?$AA?$AA@ 100804d0     LIBCMTD:outputformat.obj
 0002:000124f8       ??_C@_1BO@GAIJFBKM@?$AAo?$AAu?$AAt?$AAp?$AAu?$AAt?$AAf?$AAo?$AAr?$AAm?$AAa?$AAt?$AA?4?$AAc?$AA?$AA@ 100804f8     LIBCMTD:outputformat.obj
 0002:00012518       ??_C@_1EM@EGEEBJLG@?$AA?$CI?$AAo?$AAp?$AAt?$AAi?$AAo?$AAn?$AAs?$AA?5?$AA?$CG?$AA?5?$AA?$HO?$AA_?$AAT?$AAW?$AAO?$AA_?$AAD?$AAI?$AAG?$AAI?$AAT?$AA_?$AAE?$AAX?$AAP?$AAO?$AAN?$AAE?$AAN?$AAT?$AA?$CJ@ 10080518     LIBCMTD:outputformat.obj
 0002:00012564       ??_C@_06IMKFLFPG@1?$CDQNAN?$AA@ 10080564     LIBCMTD:x10fout.obj
 0002:00012570       ??_C@_1EG@MCFPJJEM@?$AAs?$AAt?$AAr?$AAc?$AAp?$AAy?$AA_?$AAs?$AA?$CI?$AAf?$AAo?$AAs?$AA?9?$AA?$DO?$AAm?$AAa?$AAn?$AA?0?$AA?5?$AA2?$AA1?$AA?$CL?$AA1?$AA?0?$AA?5?$AA?$CC?$AA1?$AA?$CD?$AAQ?$AAN?$AAA?$AAN@ 10080570     LIBCMTD:x10fout.obj
 0002:000125b8       ??_C@_05DNEBIAHO@1?$CDINF?$AA@ 100805b8     LIBCMTD:x10fout.obj
 0002:000125c0       ??_C@_1EE@ICBBBPAI@?$AAs?$AAt?$AAr?$AAc?$AAp?$AAy?$AA_?$AAs?$AA?$CI?$AAf?$AAo?$AAs?$AA?9?$AA?$DO?$AAm?$AAa?$AAn?$AA?0?$AA?5?$AA2?$AA1?$AA?$CL?$AA1?$AA?0?$AA?5?$AA?$CC?$AA1?$AA?$CD?$AAI?$AAN?$AAF?$AA?$CC@ 100805c0     LIBCMTD:x10fout.obj
 0002:00012604       ??_C@_05PHHOCPM@1?$CDIND?$AA@ 10080604     LIBCMTD:x10fout.obj
 0002:00012610       ??_C@_1EE@MADEBIHF@?$AAs?$AAt?$AAr?$AAc?$AAp?$AAy?$AA_?$AAs?$AA?$CI?$AAf?$AAo?$AAs?$AA?9?$AA?$DO?$AAm?$AAa?$AAn?$AA?0?$AA?5?$AA2?$AA1?$AA?$CL?$AA1?$AA?0?$AA?5?$AA?$CC?$AA1?$AA?$CD?$AAI?$AAN?$AAD?$AA?$CC@ 10080610     LIBCMTD:x10fout.obj
 0002:00012654       ??_C@_06PGGFOGJG@1?$CDSNAN?$AA@ 10080654     LIBCMTD:x10fout.obj
 0002:00012660       ??_C@_1EG@CDDBFNOB@?$AAs?$AAt?$AAr?$AAc?$AAp?$AAy?$AA_?$AAs?$AA?$CI?$AAf?$AAo?$AAs?$AA?9?$AA?$DO?$AAm?$AAa?$AAn?$AA?0?$AA?5?$AA2?$AA1?$AA?$CL?$AA1?$AA?0?$AA?5?$AA?$CC?$AA1?$AA?$CD?$AAS?$AAN?$AAA?$AAN@ 10080660     LIBCMTD:x10fout.obj
 0002:000126a8       ??_C@_1BI@ELMAAFLN@?$AA$?$AAI?$AA1?$AA0?$AA_?$AAO?$AAU?$AAT?$AAP?$AAU?$AAT?$AA?$AA@ 100806a8     LIBCMTD:x10fout.obj
 0002:000126c0       ??_C@_1BE@MNAKCECJ@?$AAx?$AA1?$AA0?$AAf?$AAo?$AAu?$AAt?$AA?4?$AAc?$AA?$AA@ 100806c0     LIBCMTD:x10fout.obj
 0002:000126d4       ??_C@_1BK@CDOALEA@?$AA_?$AAc?$AAo?$AAn?$AAt?$AAr?$AAo?$AAl?$AAf?$AAp?$AA_?$AAs?$AA?$AA@ 100806d4     LIBCMTD:contrlfp.obj
 0002:000126f0       ??_C@_1BG@MIJAHIEN@?$AAc?$AAo?$AAn?$AAt?$AAr?$AAl?$AAf?$AAp?$AA?4?$AAc?$AA?$AA@ 100806f0     LIBCMTD:contrlfp.obj
 0002:00012708       ??_C@_1DG@JNDMIEJL@?$AA?$CI?$AA?$CC?$AAI?$AAn?$AAv?$AAa?$AAl?$AAi?$AAd?$AA?5?$AAi?$AAn?$AAp?$AAu?$AAt?$AA?5?$AAv?$AAa?$AAl?$AAu?$AAe?$AA?$CC?$AA?0?$AA?5?$AA0?$AA?$CJ?$AA?$AA@ 10080708     LIBCMTD:contrlfp.obj
 0002:00012740       ??_C@_1BO@IHLJHOPI@?$AA_?$AA_?$AAs?$AAt?$AAr?$AAg?$AAt?$AAo?$AAl?$AAd?$AA1?$AA2?$AA_?$AAl?$AA?$AA@ 10080740     LIBCMTD:strgtold.obj
 0002:00012760       ??_C@_1DE@JLGAJID@?$AA?4?$AA?4?$AA?1?$AAi?$AAn?$AAc?$AAl?$AAu?$AAd?$AAe?$AA?2?$AAs?$AAt?$AAr?$AAg?$AAt?$AAo?$AAl?$AAd?$AA1?$AA2?$AA?4?$AAi?$AAn?$AAl?$AA?$AA@ 10080760     LIBCMTD:strgtold.obj
 0002:00012794       ??_C@_1CA@MBDBOHIB@?$AA_?$AAL?$AAo?$AAc?$AAa?$AAl?$AAe?$AA?5?$AA?$CB?$AA?$DN?$AA?5?$AAN?$AAU?$AAL?$AAL?$AA?$AA@ 10080794     LIBCMTD:strgtold.obj
 0002:000127b4       ??_C@_09MGNHMPHC@osfinfo?4c?$AA@ 100807b4     LIBCMTD:osfinfo.obj
 0002:000127c0       ??_C@_1BO@EMBOBGKE@?$AA_?$AAg?$AAe?$AAt?$AA_?$AAo?$AAs?$AAf?$AAh?$AAa?$AAn?$AAd?$AAl?$AAe?$AA?$AA@ 100807c0     LIBCMTD:osfinfo.obj
 0002:000127e0       ??_C@_1BE@MIGAHMPD@?$AAo?$AAs?$AAf?$AAi?$AAn?$AAf?$AAo?$AA?4?$AAc?$AA?$AA@ 100807e0     LIBCMTD:osfinfo.obj
 0002:000127f4       ??_C@_1BA@NGNGNDEP@?$AA_?$AAc?$AAp?$AAu?$AAt?$AAw?$AAs?$AA?$AA@ 100807f4     LIBCMTD:putwch.obj
 0002:00012804       ??_C@_1BC@HKEJKGAG@?$AAp?$AAu?$AAt?$AAw?$AAc?$AAh?$AA?4?$AAc?$AA?$AA@ 10080804     LIBCMTD:putwch.obj
 0002:00012818       ??_C@_1BC@MFKEFFNI@?$AAm?$AAb?$AAt?$AAo?$AAw?$AAc?$AA?4?$AAc?$AA?$AA@ 10080818     LIBCMTD:mbtowc.obj
 0002:00012830       ??_C@_1NC@EINCOKCO@?$AA_?$AAl?$AAo?$AAc?$AA_?$AAu?$AAp?$AAd?$AAa?$AAt?$AAe?$AA?4?$AAG?$AAe?$AAt?$AAL?$AAo?$AAc?$AAa?$AAl?$AAe?$AAT?$AA?$CI?$AA?$CJ?$AA?9?$AA?$DO?$AAl?$AAo?$AAc?$AAi?$AAn?$AAf@ 10080830     LIBCMTD:mbtowc.obj
 0002:00012904       ??_C@_1O@HJNPHHHB@?$AAf?$AAp?$AAu?$AAt?$AAw?$AAc?$AA?$AA@ 10080904     LIBCMTD:fputwc.obj
 0002:00012914       ??_C@_1BC@LJHBJFMP@?$AAf?$AAp?$AAu?$AAt?$AAw?$AAc?$AA?4?$AAc?$AA?$AA@ 10080914     LIBCMTD:fputwc.obj
 0002:00012928       ??_C@_1O@EGMJNCOI@?$AAf?$AAc?$AAl?$AAo?$AAs?$AAe?$AA?$AA@ 10080928     LIBCMTD:fclose.obj
 0002:00012938       ??_C@_1BC@MHEDMIA@?$AAf?$AAc?$AAl?$AAo?$AAs?$AAe?$AA?4?$AAc?$AA?$AA@ 10080938     LIBCMTD:fclose.obj
 0002:0001294c       ??_C@_1BO@JINCABEC@?$AA_?$AAf?$AAc?$AAl?$AAo?$AAs?$AAe?$AA_?$AAn?$AAo?$AAl?$AAo?$AAc?$AAk?$AA?$AA@ 1008094c     LIBCMTD:fclose.obj
 0002:0001296c       ??_C@_1BM@BENFBNLI@?$AA_?$AAm?$AAb?$AAs?$AAn?$AAb?$AAc?$AAa?$AAt?$AA_?$AAs?$AA_?$AAl?$AA?$AA@ 1008096c     LIBCMTD:mbsnbcat_s_l.obj
 0002:00012988       ??_C@_1GK@LCCDCHEO@?$AAF?$AA?3?$AA?2?$AAS?$AAP?$AA?2?$AAv?$AAc?$AAt?$AAo?$AAo?$AAl?$AAs?$AA?2?$AAc?$AAr?$AAt?$AA_?$AAb?$AAl?$AAd?$AA?2?$AAS?$AAE?$AAL?$AAF?$AA_?$AAX?$AA8?$AA6?$AA?2?$AAc@ 10080988     LIBCMTD:mbsnbcat_s_l.obj
 0002:000129f4       ??_C@_1BM@HBMHMBEM@?$AA_?$AAm?$AAb?$AAs?$AAn?$AAb?$AAc?$AAp?$AAy?$AA_?$AAs?$AA_?$AAl?$AA?$AA@ 100809f4     LIBCMTD:mbsnbcpy_s_l.obj
 0002:00012a10       ??_C@_1GK@HKJIIPOO@?$AAF?$AA?3?$AA?2?$AAS?$AAP?$AA?2?$AAv?$AAc?$AAt?$AAo?$AAo?$AAl?$AAs?$AA?2?$AAc?$AAr?$AAt?$AA_?$AAb?$AAl?$AAd?$AA?2?$AAS?$AAE?$AAL?$AAF?$AA_?$AAX?$AA8?$AA6?$AA?2?$AAc@ 10080a10     LIBCMTD:mbsnbcpy_s_l.obj
 0002:00012a7c       ??_C@_1CA@OEHMHBJF@?$AAv?$AAf?$AAp?$AAr?$AAi?$AAn?$AAt?$AAf?$AA_?$AAh?$AAe?$AAl?$AAp?$AAe?$AAr?$AA?$AA@ 10080a7c     LIBCMTD:vfprintf.obj
 0002:00012a9c       ??_C@_1BG@OKHDPPCK@?$AAv?$AAf?$AAp?$AAr?$AAi?$AAn?$AAt?$AAf?$AA?4?$AAc?$AA?$AA@ 10080a9c     LIBCMTD:vfprintf.obj
 0002:00012ab4       ??_C@_1BA@PCFLFGNC@?$AAw?$AAc?$AAs?$AAt?$AAo?$AAx?$AAl?$AA?$AA@ 10080ab4     LIBCMTD:wcstol.obj
 0002:00012ac4       ??_C@_1BC@KCPEGNFM@?$AAw?$AAc?$AAs?$AAt?$AAo?$AAl?$AA?4?$AAc?$AA?$AA@ 10080ac4     LIBCMTD:wcstol.obj
 0002:00012ad8       ??_C@_1BO@JGFPDJCP@?$AAv?$AAp?$AAr?$AAi?$AAn?$AAt?$AAf?$AA_?$AAh?$AAe?$AAl?$AAp?$AAe?$AAr?$AA?$AA@ 10080ad8     LIBCMTD:vprintf.obj
 0002:00012af8       ??_C@_1BE@DEJONPKH@?$AAv?$AAp?$AAr?$AAi?$AAn?$AAt?$AAf?$AA?4?$AAc?$AA?$AA@ 10080af8     LIBCMTD:vprintf.obj
 0002:00012b0c       ??_C@_0L@KBNGFDKM@convrtcp?4c?$AA@ 10080b0c     LIBCMTD:convrtcp.obj
 0002:00012b18       ___dnames                  10080b18     LIBCMTD:timeset.obj
 0002:00012b30       ___mnames                  10080b30     LIBCMTD:timeset.obj
 0002:00012b58       ??_C@_1BM@FIMHBHEB@?$AA_?$AAg?$AAe?$AAt?$AA_?$AAd?$AAa?$AAy?$AAl?$AAi?$AAg?$AAh?$AAt?$AA?$AA@ 10080b58     LIBCMTD:timeset.obj
 0002:00012b74       ??_C@_1BE@OINBFMF@?$AAt?$AAi?$AAm?$AAe?$AAs?$AAe?$AAt?$AA?4?$AAc?$AA?$AA@ 10080b74     LIBCMTD:timeset.obj
 0002:00012b88       ??_C@_1CI@MKJEHFPG@?$AA?$CI?$AA_?$AAD?$AAa?$AAy?$AAl?$AAi?$AAg?$AAh?$AAt?$AA?5?$AA?$CB?$AA?$DN?$AA?5?$AAN?$AAU?$AAL?$AAL?$AA?$CJ?$AA?$AA@ 10080b88     LIBCMTD:timeset.obj
 0002:00012bb0       ??_C@_1BK@EMODDHEE@?$AA_?$AAg?$AAe?$AAt?$AA_?$AAd?$AAs?$AAt?$AAb?$AAi?$AAa?$AAs?$AA?$AA@ 10080bb0     LIBCMTD:timeset.obj
 0002:00012bd0       ??_C@_1EC@PKDJPAAB@?$AA?$CI?$AA_?$AAD?$AAa?$AAy?$AAl?$AAi?$AAg?$AAh?$AAt?$AA_?$AAs?$AAa?$AAv?$AAi?$AAn?$AAg?$AAs?$AA_?$AAb?$AAi?$AAa?$AAs?$AA?5?$AA?$CB?$AA?$DN?$AA?5?$AAN?$AAU?$AAL?$AAL?$AA?$CJ@ 10080bd0     LIBCMTD:timeset.obj
 0002:00012c14       ??_C@_1BM@MGEAKPEJ@?$AA_?$AAg?$AAe?$AAt?$AA_?$AAt?$AAi?$AAm?$AAe?$AAz?$AAo?$AAn?$AAe?$AA?$AA@ 10080c14     LIBCMTD:timeset.obj
 0002:00012c30       ??_C@_1CI@PODJJGAL@?$AA?$CI?$AA_?$AAT?$AAi?$AAm?$AAe?$AAz?$AAo?$AAn?$AAe?$AA?5?$AA?$CB?$AA?$DN?$AA?5?$AAN?$AAU?$AAL?$AAL?$AA?$CJ?$AA?$AA@ 10080c30     LIBCMTD:timeset.obj
 0002:00012c58       ??_C@_1DG@HLGKANIP@?$AA_?$AAI?$AAn?$AAd?$AAe?$AAx?$AA?5?$AA?$DN?$AA?$DN?$AA?5?$AA0?$AA?5?$AA?$HM?$AA?$HM?$AA?5?$AA_?$AAI?$AAn?$AAd?$AAe?$AAx?$AA?5?$AA?$DN?$AA?$DN?$AA?5?$AA1?$AA?$AA@ 10080c58     LIBCMTD:timeset.obj
 0002:00012c90       ??_C@_1CK@GBKHKEI@?$AA_?$AAR?$AAe?$AAt?$AAu?$AAr?$AAn?$AAV?$AAa?$AAl?$AAu?$AAe?$AA?5?$AA?$CB?$AA?$DN?$AA?5?$AAN?$AAU?$AAL?$AAL?$AA?$AA@ 10080c90     LIBCMTD:timeset.obj
 0002:00012cbc       ??_C@_1BI@BHCKCCFA@?$AA_?$AAg?$AAe?$AAt?$AA_?$AAt?$AAz?$AAn?$AAa?$AAm?$AAe?$AA?$AA@ 10080cbc     LIBCMTD:timeset.obj
 0002:00012cd8       ??_C@_1KA@POFLNEC@?$AA?$CI?$AA_?$AAB?$AAu?$AAf?$AAf?$AAe?$AAr?$AA?5?$AA?$CB?$AA?$DN?$AA?5?$AAN?$AAU?$AAL?$AAL?$AA?5?$AA?$CG?$AA?$CG?$AA?5?$AA_?$AAS?$AAi?$AAz?$AAe?$AAI?$AAn?$AAB?$AAy?$AAt?$AAe?$AAs@ 10080cd8     LIBCMTD:timeset.obj
 0002:00012d78       ??_C@_1EA@GEPBEDLJ@?$AAs?$AAt?$AAr?$AAn?$AAc?$AAp?$AAy?$AA_?$AAs?$AA?$CI?$AAt?$AAz?$AAn?$AAa?$AAm?$AAe?$AA?$FL?$AA1?$AA?$FN?$AA?0?$AA?5?$AA6?$AA4?$AA?0?$AA?5?$AAT?$AAZ?$AA?0?$AA?5?$AA3?$AA?$CJ?$AA?$AA@ 10080d78     LIBCMTD:tzset.obj
 0002:00012db8       ??_C@_1EA@FIJBKALB@?$AAs?$AAt?$AAr?$AAn?$AAc?$AAp?$AAy?$AA_?$AAs?$AA?$CI?$AAt?$AAz?$AAn?$AAa?$AAm?$AAe?$AA?$FL?$AA0?$AA?$FN?$AA?0?$AA?5?$AA6?$AA4?$AA?0?$AA?5?$AAT?$AAZ?$AA?0?$AA?5?$AA3?$AA?$CJ?$AA?$AA@ 10080db8     LIBCMTD:tzset.obj
 0002:00012df8       ??_C@_1EK@MCAIMDPB@?$AAs?$AAt?$AAr?$AAc?$AAp?$AAy?$AA_?$AAs?$AA?$CI?$AAl?$AAa?$AAs?$AAt?$AAT?$AAZ?$AA?0?$AA?5?$AAs?$AAt?$AAr?$AAl?$AAe?$AAn?$AA?$CI?$AAT?$AAZ?$AA?$CJ?$AA?5?$AA?$CL?$AA?5?$AA1?$AA?0@ 10080df8     LIBCMTD:tzset.obj
 0002:00012e44       ??_C@_07LOOFNDIO@tzset?4c?$AA@ 10080e44     LIBCMTD:tzset.obj
 0002:00012e4c       ??_C@_02CLFPBFFP@TZ?$AA@   10080e4c     LIBCMTD:tzset.obj
 0002:00012e50       ??_C@_1CO@IMMOMMCB@?$AA_?$AAg?$AAe?$AAt?$AA_?$AAd?$AAs?$AAt?$AAb?$AAi?$AAa?$AAs?$AA?$CI?$AA?$CG?$AAd?$AAs?$AAt?$AAb?$AAi?$AAa?$AAs?$AA?$CJ?$AA?$AA@ 10080e50     LIBCMTD:tzset.obj
 0002:00012e80       ??_C@_1DC@MEHEMOPB@?$AA_?$AAg?$AAe?$AAt?$AA_?$AAd?$AAa?$AAy?$AAl?$AAi?$AAg?$AAh?$AAt?$AA?$CI?$AA?$CG?$AAd?$AAa?$AAy?$AAl?$AAi?$AAg?$AAh?$AAt?$AA?$CJ?$AA?$AA@ 10080e80     LIBCMTD:tzset.obj
 0002:00012eb4       ??_C@_1DC@CMKCHHFC@?$AA_?$AAg?$AAe?$AAt?$AA_?$AAt?$AAi?$AAm?$AAe?$AAz?$AAo?$AAn?$AAe?$AA?$CI?$AA?$CG?$AAt?$AAi?$AAm?$AAe?$AAz?$AAo?$AAn?$AAe?$AA?$CJ?$AA?$AA@ 10080eb4     LIBCMTD:tzset.obj
 0002:00012ee8       ??_C@_1BM@IIODHMJC@?$AA_?$AAt?$AAz?$AAs?$AAe?$AAt?$AA_?$AAn?$AAo?$AAl?$AAo?$AAc?$AAk?$AA?$AA@ 10080ee8     LIBCMTD:tzset.obj
 0002:00012f04       ??_C@_1BA@HIHOBNBL@?$AAt?$AAz?$AAs?$AAe?$AAt?$AA?4?$AAc?$AA?$AA@ 10080f04     LIBCMTD:tzset.obj
 0002:00012f14       ??_C@_1CA@GOLIIEDM@?$AA_?$AAi?$AAs?$AAi?$AAn?$AAd?$AAs?$AAt?$AA_?$AAn?$AAo?$AAl?$AAo?$AAc?$AAk?$AA?$AA@ 10080f14     LIBCMTD:tzset.obj
 0002:00012f34       ??_C@_1BA@GOCKIDGO@?$AAc?$AAv?$AAt?$AAd?$AAa?$AAt?$AAe?$AA?$AA@ 10080f34     LIBCMTD:tzset.obj
 0002:00012f44       ??_C@_1BG@GLLONOEH@?$AA_?$AAs?$AAt?$AAr?$AAi?$AAc?$AAm?$AAp?$AA_?$AAl?$AA?$AA@ 10080f44     LIBCMTD:stricmp.obj
 0002:00012f5c       ??_C@_1BE@OLHMELNO@?$AAs?$AAt?$AAr?$AAi?$AAc?$AAm?$AAp?$AA?4?$AAc?$AA?$AA@ 10080f5c     LIBCMTD:stricmp.obj
 0002:00012f70       ??_C@_1BC@JLGKKIIG@?$AA_?$AAs?$AAt?$AAr?$AAi?$AAc?$AAm?$AAp?$AA?$AA@ 10080f70     LIBCMTD:stricmp.obj
 0002:00012f84       ??_C@_1CC@JLPHKJPH@?$AAc?$AAo?$AAu?$AAn?$AAt?$AA?5?$AA?$DM?$AA?$DN?$AA?5?$AAI?$AAN?$AAT?$AA_?$AAM?$AAA?$AAX?$AA?$AA@ 10080f84     LIBCMTD:strnicmp.obj
 0002:00012fa8       ??_C@_1BI@BJLEPLEF@?$AA_?$AAs?$AAt?$AAr?$AAn?$AAi?$AAc?$AAm?$AAp?$AA_?$AAl?$AA?$AA@ 10080fa8     LIBCMTD:strnicmp.obj
 0002:00012fc0       ??_C@_1BG@DAODMAPG@?$AAs?$AAt?$AAr?$AAn?$AAi?$AAc?$AAm?$AAp?$AA?4?$AAc?$AA?$AA@ 10080fc0     LIBCMTD:strnicmp.obj
 0002:00012fd8       ??_C@_1BE@BHJDFFNA@?$AA_?$AAs?$AAt?$AAr?$AAn?$AAi?$AAc?$AAm?$AAp?$AA?$AA@ 10080fd8     LIBCMTD:strnicmp.obj
 0002:00012fec       ?commonFlags@?1??_control87@@9@9 10080fec     LIBCMTD:ieee87.obj
 0002:00012ff0       ??_C@_1GO@OKJGOMCB@?$AA_?$AAc?$AAo?$AAn?$AAt?$AAr?$AAo?$AAl?$AAf?$AAp?$AA_?$AAs?$AA?$CI?$AA?$CI?$AA?$CI?$AAv?$AAo?$AAi?$AAd?$AA?5?$AA?$CK?$AA?$CJ?$AA0?$AA?$CJ?$AA?0?$AA?5?$AAn?$AAe?$AAw?$AAc?$AAt?$AAr@ 10080ff0     LIBCMTD:ieee87.obj
 0002:00013060       ??_C@_1BO@OFDNCLL@?$AA_?$AAs?$AAe?$AAt?$AA_?$AAc?$AAo?$AAn?$AAt?$AAr?$AAo?$AAl?$AAf?$AAp?$AA?$AA@ 10081060     LIBCMTD:ieee87.obj
 0002:00013080       ??_C@_1BM@PNOCKIGC@?$AAi?$AA3?$AA8?$AA6?$AA?2?$AAi?$AAe?$AAe?$AAe?$AA8?$AA7?$AA?4?$AAc?$AA?$AA@ 10081080     LIBCMTD:ieee87.obj
 0002:0001309c       ??_C@_06GDENEHCP@CONIN$?$AA@ 1008109c     LIBCMTD:initcon.obj
 0002:000130a4       ??_C@_07GPDNMNG@CONOUT$?$AA@ 100810a4     LIBCMTD:initcon.obj
 0002:000130b0       ??_C@_1GC@BGLCIHJN@?$AAf?$AA?3?$AA?2?$AAs?$AAp?$AA?2?$AAv?$AAc?$AAt?$AAo?$AAo?$AAl?$AAs?$AA?2?$AAc?$AAr?$AAt?$AA_?$AAb?$AAl?$AAd?$AA?2?$AAs?$AAe?$AAl?$AAf?$AA_?$AAx?$AA8?$AA6?$AA?2?$AAc@ 100810b0     LIBCMTD:_flswbuf.obj
 0002:00013114       ??_C@_1O@EDEJGJBM@?$AA_?$AAc?$AAl?$AAo?$AAs?$AAe?$AA?$AA@ 10081114     LIBCMTD:close.obj
 0002:00013124       ??_C@_1BA@GOGDMMEN@?$AAc?$AAl?$AAo?$AAs?$AAe?$AA?4?$AAc?$AA?$AA@ 10081124     LIBCMTD:close.obj
 0002:00013134       ??_C@_1BE@IAKAIGJB@?$AAs?$AAt?$AAr?$AAn?$AAc?$AAa?$AAt?$AA_?$AAs?$AA?$AA@ 10081134     LIBCMTD:strncat_s.obj
 0002:00013148       ??_C@_1FA@HILOOCMA@?$AA?$CI?$AA_?$AAt?$AAc?$AAs?$AAn?$AAl?$AAe?$AAn?$AA?$CI?$AAo?$AAp?$AAt?$AAi?$AAo?$AAn?$AA?0?$AA?5?$AA_?$AAM?$AAA?$AAX?$AA_?$AAE?$AAN?$AAV?$AA?$CJ?$AA?5?$AA?$DM?$AA?5?$AA_?$AAM@ 10081148     LIBCMTD:getenv.obj
 0002:00013198       ??_C@_1O@GMKGKCJO@?$AAg?$AAe?$AAt?$AAe?$AAn?$AAv?$AA?$AA@ 10081198     LIBCMTD:getenv.obj
 0002:000131a8       ??_C@_1BC@CPAPBFCO@?$AAg?$AAe?$AAt?$AAe?$AAn?$AAv?$AA?4?$AAc?$AA?$AA@ 100811a8     LIBCMTD:getenv.obj
 0002:000131bc       ??_C@_1CC@FKAOHHLO@?$AA?$CI?$AAo?$AAp?$AAt?$AAi?$AAo?$AAn?$AA?5?$AA?$CB?$AA?$DN?$AA?5?$AAN?$AAU?$AAL?$AAL?$AA?$CJ?$AA?$AA@ 100811bc     LIBCMTD:getenv.obj
 0002:000131e0       ??_C@_1GI@JBIFPFJH@?$AA_?$AAt?$AAc?$AAs?$AAn?$AAl?$AAe?$AAn?$AA?$CI?$AA?$CK?$AAs?$AAe?$AAa?$AAr?$AAc?$AAh?$AA?5?$AA?$CL?$AA?5?$AAl?$AAe?$AAn?$AAg?$AAt?$AAh?$AA?5?$AA?$CL?$AA?5?$AA1?$AA?0?$AA?5?$AA_@ 100811e0     LIBCMTD:getenv.obj
 0002:00013248       ??_C@_1EI@HHOBPCFK@?$AAs?$AAt?$AAr?$AAc?$AAp?$AAy?$AA_?$AAs?$AA?$CI?$AAb?$AAu?$AAf?$AAf?$AAe?$AAr?$AA?0?$AA?5?$AAs?$AAi?$AAz?$AAe?$AAI?$AAn?$AAT?$AAC?$AAh?$AAa?$AAr?$AAs?$AA?0?$AA?5?$AAs@ 10081248     LIBCMTD:getenv.obj
 0002:00013290       ??_C@_1JM@NLPGJJPH@?$AA?$CI?$AAb?$AAu?$AAf?$AAf?$AAe?$AAr?$AA?5?$AA?$CB?$AA?$DN?$AA?5?$AAN?$AAU?$AAL?$AAL?$AA?5?$AA?$CG?$AA?$CG?$AA?5?$AAs?$AAi?$AAz?$AAe?$AAI?$AAn?$AAT?$AAC?$AAh?$AAa?$AAr?$AAs?$AA?5@ 10081290     LIBCMTD:getenv.obj
 0002:0001332c       ??_C@_1CC@BAJKDIIF@?$AA_?$AAg?$AAe?$AAt?$AAe?$AAn?$AAv?$AA_?$AAs?$AA_?$AAh?$AAe?$AAl?$AAp?$AAe?$AAr?$AA?$AA@ 1008132c     LIBCMTD:getenv.obj
 0002:00013350       ??_C@_1CK@PIKDAOCL@?$AAp?$AAR?$AAe?$AAt?$AAu?$AAr?$AAn?$AAV?$AAa?$AAl?$AAu?$AAe?$AA?5?$AA?$CB?$AA?$DN?$AA?5?$AAN?$AAU?$AAL?$AAL?$AA?$AA@ 10081350     LIBCMTD:getenv.obj
 0002:0001337c       ??_C@_1DM@GNKNEGJO@?$AAs?$AAt?$AAr?$AAc?$AAp?$AAy?$AA_?$AAs?$AA?$CI?$AA?$CK?$AAp?$AAB?$AAu?$AAf?$AAf?$AAe?$AAr?$AA?0?$AA?5?$AAs?$AAi?$AAz?$AAe?$AA?0?$AA?5?$AAs?$AAt?$AAr?$AA?$CJ?$AA?$AA@ 1008137c     LIBCMTD:getenv.obj
 0002:000133b8       ??_C@_1CA@GDBKELOE@?$AAv?$AAa?$AAr?$AAn?$AAa?$AAm?$AAe?$AA?5?$AA?$CB?$AA?$DN?$AA?5?$AAN?$AAU?$AAL?$AAL?$AA?$AA@ 100813b8     LIBCMTD:getenv.obj
 0002:000133d8       ??_C@_1CC@KPLOPIEM@?$AA_?$AAd?$AAu?$AAp?$AAe?$AAn?$AAv?$AA_?$AAs?$AA_?$AAh?$AAe?$AAl?$AAp?$AAe?$AAr?$AA?$AA@ 100813d8     LIBCMTD:getenv.obj
 0002:000133fc       ??_C@_1CA@FHNFMDOJ@?$AAp?$AAB?$AAu?$AAf?$AAf?$AAe?$AAr?$AA?5?$AA?$CB?$AA?$DN?$AA?5?$AAN?$AAU?$AAL?$AAL?$AA?$AA@ 100813fc     LIBCMTD:getenv.obj
 0002:0001341c       ??_C@_1BG@GBJNMPFA@?$AAs?$AA2?$AA?5?$AA?$CB?$AA?$DN?$AA?5?$AAN?$AAU?$AAL?$AAL?$AA?$AA@ 1008141c     LIBCMTD:mbsnbico.obj
 0002:00013434       ??_C@_1BM@FKNNDAHH@?$AA_?$AAm?$AAb?$AAs?$AAn?$AAb?$AAi?$AAc?$AAo?$AAl?$AAl?$AA_?$AAl?$AA?$AA@ 10081434     LIBCMTD:mbsnbico.obj
 0002:00013450       ??_C@_1BG@MHEMLGJO@?$AAm?$AAb?$AAs?$AAn?$AAb?$AAi?$AAc?$AAo?$AA?4?$AAc?$AA?$AA@ 10081450     LIBCMTD:mbsnbico.obj
 0002:00013468       ??_C@_1BG@MODEICJK@?$AAs?$AA1?$AA?5?$AA?$CB?$AA?$DN?$AA?5?$AAN?$AAU?$AAL?$AAL?$AA?$AA@ 10081468     LIBCMTD:mbsnbico.obj
 0002:00013480       ??_C@_0L@CELCHBFJ@wtombenv?4c?$AA@ 10081480     LIBCMTD:wtombenv.obj
 0002:0001348c       ??_C@_1BA@DGECELNE@?$AAa?$AA_?$AAc?$AAm?$AAp?$AA?4?$AAc?$AA?$AA@ 1008148c     LIBCMTD:a_cmp.obj
 0002:000134a0       ??_C@_1HK@ELDMAMK@?$AAc?$AAc?$AAh?$AAC?$AAo?$AAu?$AAn?$AAt?$AA1?$AA?$DN?$AA?$DN?$AA0?$AA?5?$AA?$CG?$AA?$CG?$AA?5?$AAc?$AAc?$AAh?$AAC?$AAo?$AAu?$AAn?$AAt?$AA2?$AA?$DN?$AA?$DN?$AA1?$AA?5?$AA?$HM?$AA?$HM?$AA?5@ 100814a0     LIBCMTD:a_cmp.obj
 0002:0001351c       ??_C@_1CC@CNADELFK@?$AA_?$AAs?$AAt?$AAr?$AAi?$AAn?$AAg?$AA2?$AA?5?$AA?$CB?$AA?$DN?$AA?5?$AAN?$AAU?$AAL?$AAL?$AA?$AA@ 1008151c     LIBCMTD:strnicol.obj
 0002:00013540       ??_C@_1BK@IOJEBPLP@?$AA_?$AAs?$AAt?$AAr?$AAn?$AAi?$AAc?$AAo?$AAl?$AAl?$AA_?$AAl?$AA?$AA@ 10081540     LIBCMTD:strnicol.obj
 0002:0001355c       ??_C@_1BG@BPACDEKP@?$AAs?$AAt?$AAr?$AAn?$AAi?$AAc?$AAo?$AAl?$AA?4?$AAc?$AA?$AA@ 1008155c     LIBCMTD:strnicol.obj
 0002:00013574       ??_C@_1CC@ICKKAGJA@?$AA_?$AAs?$AAt?$AAr?$AAi?$AAn?$AAg?$AA1?$AA?5?$AA?$CB?$AA?$DN?$AA?5?$AAN?$AAU?$AAL?$AAL?$AA?$AA@ 10081574     LIBCMTD:strnicol.obj
 0002:00013598       ??_C@_1FG@OKIAKKPK@?$AAs?$AAt?$AAr?$AAc?$AAp?$AAy?$AA_?$AAs?$AA?$CI?$AAn?$AAa?$AAm?$AAe?$AA?0?$AA?5?$AAs?$AAt?$AAr?$AAl?$AAe?$AAn?$AA?$CI?$AAo?$AAp?$AAt?$AAi?$AAo?$AAn?$AA?$CJ?$AA?5?$AA?$CL?$AA?5@ 10081598     LIBCMTD:setenv.obj
 0002:000135f0       ??_C@_1EI@GHDNAPMG@?$AA?$CI?$AA?$CC?$AAC?$AAR?$AAT?$AA?5?$AAL?$AAo?$AAg?$AAi?$AAc?$AA?5?$AAe?$AAr?$AAr?$AAo?$AAr?$AA?5?$AAd?$AAu?$AAr?$AAi?$AAn?$AAg?$AA?5?$AAs?$AAe?$AAt?$AAe?$AAn?$AAv?$AA?$CC@ 100815f0     LIBCMTD:setenv.obj
 0002:00013638       ??_C@_08BMJILFKN@setenv?4c?$AA@ 10081638     LIBCMTD:setenv.obj
 0002:00013648       ??_C@_1FC@EEJIEIDF@?$AA_?$AAt?$AAc?$AAs?$AAn?$AAl?$AAe?$AAn?$AA?$CI?$AAe?$AAq?$AAu?$AAa?$AAl?$AA?5?$AA?$CL?$AA?5?$AA1?$AA?0?$AA?5?$AA_?$AAM?$AAA?$AAX?$AA_?$AAE?$AAN?$AAV?$AA?$CJ?$AA?5?$AA?$DM?$AA?5@ 10081648     LIBCMTD:setenv.obj
 0002:0001369c       ??_C@_1DE@EEHFNNGH@?$AAe?$AAq?$AAu?$AAa?$AAl?$AA?5?$AA?9?$AA?5?$AAo?$AAp?$AAt?$AAi?$AAo?$AAn?$AA?5?$AA?$DM?$AA?5?$AA_?$AAM?$AAA?$AAX?$AA_?$AAE?$AAN?$AAV?$AA?$AA@ 1008169c     LIBCMTD:setenv.obj
 0002:000136d0       ??_C@_1BI@CDAFOAAL@?$AA_?$AA_?$AAc?$AAr?$AAt?$AAs?$AAe?$AAt?$AAe?$AAn?$AAv?$AA?$AA@ 100816d0     LIBCMTD:setenv.obj
 0002:000136e8       ??_C@_1BC@KAEJODA@?$AAs?$AAe?$AAt?$AAe?$AAn?$AAv?$AA?4?$AAc?$AA?$AA@ 100816e8     LIBCMTD:setenv.obj
 0002:000136fc       ??_C@_1CA@LMBEKBDN@?$AAp?$AAo?$AAp?$AAt?$AAi?$AAo?$AAn?$AA?5?$AA?$CB?$AA?$DN?$AA?5?$AAN?$AAU?$AAL?$AAL?$AA?$AA@ 100816fc     LIBCMTD:setenv.obj
 0002:00013720       ??_C@_1FK@DNFLNPD@?$AAs?$AAt?$AAr?$AAc?$AAp?$AAy?$AA_?$AAs?$AA?$CI?$AA?$CK?$AAn?$AAe?$AAw?$AAe?$AAn?$AAv?$AAp?$AAt?$AAr?$AA?0?$AA?5?$AAe?$AAn?$AAv?$AAp?$AAt?$AAr?$AAS?$AAi?$AAz?$AAe?$AA?0@ 10081720     LIBCMTD:setenv.obj
 0002:0001377c       ??_C@_1BK@ECKIJLPM@?$AAc?$AAo?$AAp?$AAy?$AA_?$AAe?$AAn?$AAv?$AAi?$AAr?$AAo?$AAn?$AA?$AA@ 1008177c     LIBCMTD:setenv.obj
 0002:00013798       ??_C@_1BE@JKKFLIKJ@?$AA_?$AAm?$AAb?$AAs?$AAc?$AAh?$AAr?$AA_?$AAl?$AA?$AA@ 10081798     LIBCMTD:mbschr.obj
 0002:000137ac       ??_C@_1BC@MDNHFJEJ@?$AAm?$AAb?$AAs?$AAc?$AAh?$AAr?$AA?4?$AAc?$AA?$AA@ 100817ac     LIBCMTD:mbschr.obj
 0002:000137c0       ??_C@_1BO@JIBAMMGI@?$AAs?$AAt?$AAr?$AAi?$AAn?$AAg?$AA?5?$AA?$CB?$AA?$DN?$AA?5?$AAN?$AAU?$AAL?$AAL?$AA?$AA@ 100817c0     LIBCMTD:mbschr.obj
 0002:000137e0       ??_C@_07CIFAGBMG@unknown?$AA@ 100817e0     libcpmtd:stdthrow.obj
 0002:000137e8       ??_C@_0M@LLHBPFNE@exception?3?5?$AA@ 100817e8     libcpmtd:stdthrow.obj
 0002:000137f8       ??_C@_0CO@FEHNDPFD@F?3?2SP?2vctools?2crt_bld?2SELF_X86?2c@ 100817f8     libcpmtd:xdebug.obj
 0002:00013828       ??_C@_0BA@JFNIOLAK@string?5too?5long?$AA@ 10081828     libcpmtd:string.obj
 0002:00013838       ??_C@_0BI@CFPLBAOH@invalid?5string?5position?$AA@ 10081838     libcpmtd:string.obj
 0002:00013854       ??_7out_of_range@std@@6B@  10081854     libcpmtd:string.obj
 0002:0001385c       ??_C@_0BI@ILCMCLF@invalid?5string?5argument?$AA@ 1008185c     libcpmtd:string.obj
 0002:00013878       ??_7invalid_argument@std@@6B@ 10081878     libcpmtd:string.obj
 0002:00013880       ??_C@_1FO@PEMFKBJI@?$AAF?$AA?3?$AA?2?$AAS?$AAP?$AA?2?$AAv?$AAc?$AAt?$AAo?$AAo?$AAl?$AAs?$AA?2?$AAc?$AAr?$AAt?$AA_?$AAb?$AAl?$AAd?$AA?2?$AAS?$AAE?$AAL?$AAF?$AA_?$AAX?$AA8?$AA6?$AA?2?$AAc@ 10081880     libcpmtd:string.obj
 0002:00013950       ??_R4bad_alloc@std@@6B@    10081950     HanReportForClientImpl.obj
 0002:00013964       ??_R3bad_alloc@std@@8      10081964     HanReportForClientImpl.obj
 0002:00013974       ??_R2bad_alloc@std@@8      10081974     HanReportForClientImpl.obj
 0002:00013980       ??_R1A@?0A@EA@bad_alloc@std@@8 10081980     HanReportForClientImpl.obj
 0002:0001399c       ??_R1A@?0A@EA@exception@std@@8 1008199c     HanReportForClientImpl.obj
 0002:000139b8       ??_R3exception@std@@8      100819b8     HanReportForClientImpl.obj
 0002:000139c8       ??_R2exception@std@@8      100819c8     HanReportForClientImpl.obj
 0002:000139d0       ??_R4CMD5@@6B@             100819d0     MD5.obj
 0002:000139e4       ??_R3CMD5@@8               100819e4     MD5.obj
 0002:000139f4       ??_R2CMD5@@8               100819f4     MD5.obj
 0002:000139fc       ??_R1A@?0A@EA@CMD5@@8      100819fc     MD5.obj
 0002:00013a18       ??_R4CMetpParser@hgx@@6B@  10081a18     MetpParserD:MetpParser.obj
 0002:00013a2c       ??_R3CMetpParser@hgx@@8    10081a2c     MetpParserD:MetpParser.obj
 0002:00013a3c       ??_R2CMetpParser@hgx@@8    10081a3c     MetpParserD:MetpParser.obj
 0002:00013a44       ??_R1A@?0A@EA@CMetpParser@hgx@@8 10081a44     MetpParserD:MetpParser.obj
 0002:00013a60       ??_R4length_error@std@@6B@ 10081a60     MetpParserD:MetpParser.obj
 0002:00013a74       ??_R3length_error@std@@8   10081a74     MetpParserD:MetpParser.obj
 0002:00013a84       ??_R2length_error@std@@8   10081a84     MetpParserD:MetpParser.obj
 0002:00013a94       ??_R1A@?0A@EA@length_error@std@@8 10081a94     MetpParserD:MetpParser.obj
 0002:00013ab0       ??_R1A@?0A@EA@logic_error@std@@8 10081ab0     MetpParserD:MetpParser.obj
 0002:00013acc       ??_R3logic_error@std@@8    10081acc     MetpParserD:MetpParser.obj
 0002:00013adc       ??_R2logic_error@std@@8    10081adc     MetpParserD:MetpParser.obj
 0002:00013ae8       ??_R4logic_error@std@@6B@  10081ae8     MetpParserD:MetpParser.obj
 0002:00013afc       ??_R4CLibDocZip@@6B@       10081afc     MetpParserD:LibDocZip.obj
 0002:00013b10       ??_R3CLibDocZip@@8         10081b10     MetpParserD:LibDocZip.obj
 0002:00013b20       ??_R2CLibDocZip@@8         10081b20     MetpParserD:LibDocZip.obj
 0002:00013b28       ??_R1A@?0A@EA@CLibDocZip@@8 10081b28     MetpParserD:LibDocZip.obj
 0002:00013b44       ??_R4Wbers@@6B@            10081b44     WbersClientLibD:Wbers.obj
 0002:00013b58       ??_R3Wbers@@8              10081b58     WbersClientLibD:Wbers.obj
 0002:00013b68       ??_R2Wbers@@8              10081b68     WbersClientLibD:Wbers.obj
 0002:00013b70       ??_R1A@?0A@EA@Wbers@@8     10081b70     WbersClientLibD:Wbers.obj
 0002:00013b8c       ??_R4SyncObject@@6B@       10081b8c     CommLibForSvr:Sync.obj
 0002:00013ba0       ??_R3SyncObject@@8         10081ba0     CommLibForSvr:Sync.obj
 0002:00013bb0       ??_R2SyncObject@@8         10081bb0     CommLibForSvr:Sync.obj
 0002:00013bb8       ??_R1A@?0A@EA@SyncObject@@8 10081bb8     CommLibForSvr:Sync.obj
 0002:00013bd4       ??_R4HanCriticalSection@@6B@ 10081bd4     CommLibForSvr:Sync.obj
 0002:00013be8       ??_R3HanCriticalSection@@8 10081be8     CommLibForSvr:Sync.obj
 0002:00013bf8       ??_R2HanCriticalSection@@8 10081bf8     CommLibForSvr:Sync.obj
 0002:00013c04       ??_R1A@?0A@EA@HanCriticalSection@@8 10081c04     CommLibForSvr:Sync.obj
 0002:00013c20       ??_R4HanLock@@6B@          10081c20     CommLibForSvr:Sync.obj
 0002:00013c34       ??_R3HanLock@@8            10081c34     CommLibForSvr:Sync.obj
 0002:00013c44       ??_R2HanLock@@8            10081c44     CommLibForSvr:Sync.obj
 0002:00013c4c       ??_R1A@?0A@EA@HanLock@@8   10081c4c     CommLibForSvr:Sync.obj
 0002:00013c68       ??_R4type_info@@6B@        10081c68     LIBCMTD:typinfo.obj
 0002:00013c7c       ??_R3type_info@@8          10081c7c     LIBCMTD:typinfo.obj
 0002:00013c8c       ??_R2type_info@@8          10081c8c     LIBCMTD:typinfo.obj
 0002:00013c94       ??_R1A@?0A@EA@type_info@@8 10081c94     LIBCMTD:typinfo.obj
 0002:00013cb0       ??_R4exception@std@@6B@    10081cb0     LIBCMTD:stdexcpt.obj
 0002:00013cc4       ??_R4bad_cast@std@@6B@     10081cc4     LIBCMTD:stdexcpt.obj
 0002:00013cd8       ??_R3bad_cast@std@@8       10081cd8     LIBCMTD:stdexcpt.obj
 0002:00013ce8       ??_R2bad_cast@std@@8       10081ce8     LIBCMTD:stdexcpt.obj
 0002:00013cf4       ??_R1A@?0A@EA@bad_cast@std@@8 10081cf4     LIBCMTD:stdexcpt.obj
 0002:00013d10       ??_R4bad_typeid@std@@6B@   10081d10     LIBCMTD:stdexcpt.obj
 0002:00013d24       ??_R3bad_typeid@std@@8     10081d24     LIBCMTD:stdexcpt.obj
 0002:00013d34       ??_R2bad_typeid@std@@8     10081d34     LIBCMTD:stdexcpt.obj
 0002:00013d40       ??_R1A@?0A@EA@bad_typeid@std@@8 10081d40     LIBCMTD:stdexcpt.obj
 0002:00013d5c       ??_R4__non_rtti_object@std@@6B@ 10081d5c     LIBCMTD:stdexcpt.obj
 0002:00013d70       ??_R3__non_rtti_object@std@@8 10081d70     LIBCMTD:stdexcpt.obj
 0002:00013d80       ??_R2__non_rtti_object@std@@8 10081d80     LIBCMTD:stdexcpt.obj
 0002:00013d90       ??_R1A@?0A@EA@__non_rtti_object@std@@8 10081d90     LIBCMTD:stdexcpt.obj
 0002:00013dac       ??_R4bad_exception@std@@6B@ 10081dac     LIBCMTD:frame.obj
 0002:00013dc0       ??_R3bad_exception@std@@8  10081dc0     LIBCMTD:frame.obj
 0002:00013dd0       ??_R2bad_exception@std@@8  10081dd0     LIBCMTD:frame.obj
 0002:00013ddc       ??_R1A@?0A@EA@bad_exception@std@@8 10081ddc     LIBCMTD:frame.obj
 0002:00013df8       ??_R4DNameNode@@6B@        10081df8     LIBCMTD:undname.obj
 0002:00013e0c       ??_R3DNameNode@@8          10081e0c     LIBCMTD:undname.obj
 0002:00013e1c       ??_R2DNameNode@@8          10081e1c     LIBCMTD:undname.obj
 0002:00013e24       ??_R1A@?0A@EA@DNameNode@@8 10081e24     LIBCMTD:undname.obj
 0002:00013e40       ??_R4charNode@@6B@         10081e40     LIBCMTD:undname.obj
 0002:00013e54       ??_R3charNode@@8           10081e54     LIBCMTD:undname.obj
 0002:00013e64       ??_R2charNode@@8           10081e64     LIBCMTD:undname.obj
 0002:00013e70       ??_R1A@?0A@EA@charNode@@8  10081e70     LIBCMTD:undname.obj
 0002:00013e8c       ??_R4pcharNode@@6B@        10081e8c     LIBCMTD:undname.obj
 0002:00013ea0       ??_R3pcharNode@@8          10081ea0     LIBCMTD:undname.obj
 0002:00013eb0       ??_R2pcharNode@@8          10081eb0     LIBCMTD:undname.obj
 0002:00013ebc       ??_R1A@?0A@EA@pcharNode@@8 10081ebc     LIBCMTD:undname.obj
 0002:00013ed8       ??_R4pDNameNode@@6B@       10081ed8     LIBCMTD:undname.obj
 0002:00013eec       ??_R3pDNameNode@@8         10081eec     LIBCMTD:undname.obj
 0002:00013efc       ??_R2pDNameNode@@8         10081efc     LIBCMTD:undname.obj
 0002:00013f08       ??_R1A@?0A@EA@pDNameNode@@8 10081f08     LIBCMTD:undname.obj
 0002:00013f24       ??_R4DNameStatusNode@@6B@  10081f24     LIBCMTD:undname.obj
 0002:00013f38       ??_R3DNameStatusNode@@8    10081f38     LIBCMTD:undname.obj
 0002:00013f48       ??_R2DNameStatusNode@@8    10081f48     LIBCMTD:undname.obj
 0002:00013f54       ??_R1A@?0A@EA@DNameStatusNode@@8 10081f54     LIBCMTD:undname.obj
 0002:00013f70       ??_R4out_of_range@std@@6B@ 10081f70     libcpmtd:string.obj
 0002:00013f84       ??_R3out_of_range@std@@8   10081f84     libcpmtd:string.obj
 0002:00013f94       ??_R2out_of_range@std@@8   10081f94     libcpmtd:string.obj
 0002:00013fa4       ??_R1A@?0A@EA@out_of_range@std@@8 10081fa4     libcpmtd:string.obj
 0002:00013fc0       ??_R4invalid_argument@std@@6B@ 10081fc0     libcpmtd:string.obj
 0002:00013fd4       ??_R3invalid_argument@std@@8 10081fd4     libcpmtd:string.obj
 0002:00013fe4       ??_R2invalid_argument@std@@8 10081fe4     libcpmtd:string.obj
 0002:00013ff4       ??_R1A@?0A@EA@invalid_argument@std@@8 10081ff4     libcpmtd:string.obj
 0002:00014010       ___rtc_iaa                 10082010     LIBCMTD:initsect.obj
 0002:0001403c       ___rtc_izz                 1008203c     LIBCMTD:initsect.obj
 0002:00014040       ___rtc_taa                 10082040     LIBCMTD:initsect.obj
 0002:0001406c       ___rtc_tzz                 1008206c     LIBCMTD:initsect.obj
 0002:000143dc       __TI2?AVbad_alloc@std@@    100823dc     HanReportForClientImpl.obj
 0002:000143ec       __CTA2?AVbad_alloc@std@@   100823ec     HanReportForClientImpl.obj
 0002:000143f8       __CT??_R0?AVbad_alloc@std@@@8??0bad_alloc@std@@QAE@ABV01@@Z12 100823f8     HanReportForClientImpl.obj
 0002:00014414       __CT??_R0?AVexception@std@@@8??0exception@std@@QAE@ABV01@@Z12 10082414     HanReportForClientImpl.obj
 0002:00014da0       __TI3?AVlength_error@std@@ 10082da0     MetpParserD:MetpParser.obj
 0002:00014ddc       __CTA3?AVlength_error@std@@ 10082ddc     MetpParserD:MetpParser.obj
 0002:00014dec       __CT??_R0?AVlength_error@std@@@8??0length_error@std@@QAE@ABV01@@Z44 10082dec     MetpParserD:MetpParser.obj
 0002:00014e08       __CT??_R0?AVlogic_error@std@@@8??0logic_error@std@@QAE@ABV01@@Z44 10082e08     MetpParserD:MetpParser.obj
 0002:0001589c       __TI2?AVbad_exception@std@@ 1008389c     LIBCMTD:frame.obj
 0002:000158ac       __CTA2?AVbad_exception@std@@ 100838ac     LIBCMTD:frame.obj
 0002:000158b8       __CT??_R0?AVbad_exception@std@@@8??0bad_exception@std@@QAE@ABV01@@Z12 100838b8     LIBCMTD:frame.obj
 0002:00016260       __TI3?AVout_of_range@std@@ 10084260     libcpmtd:string.obj
 0002:0001629c       __CTA3?AVout_of_range@std@@ 1008429c     libcpmtd:string.obj
 0002:000162ac       __CT??_R0?AVout_of_range@std@@@8??0out_of_range@std@@QAE@ABV01@@Z44 100842ac     libcpmtd:string.obj
 0002:000162c8       __TI3?AVinvalid_argument@std@@ 100842c8     libcpmtd:string.obj
 0002:00016304       __CTA3?AVinvalid_argument@std@@ 10084304     libcpmtd:string.obj
 0002:00016314       __CT??_R0?AVinvalid_argument@std@@@8??0invalid_argument@std@@QAE@ABV01@@Z44 10084314     libcpmtd:string.obj
 0002:0001636c       __IMPORT_DESCRIPTOR_KERNEL32 1008436c     kernel32:KERNEL32.dll
 0002:00016380       __IMPORT_DESCRIPTOR_USER32 10084380     user32:USER32.dll
 0002:00016394       __IMPORT_DESCRIPTOR_dbghelp 10084394     dbghelp:dbghelp.dll
 0002:000163a8       __IMPORT_DESCRIPTOR_WININET 100843a8     wininet:WININET.dll
 0002:000163bc       __IMPORT_DESCRIPTOR_imagehlp 100843bc     imagehlp:imagehlp.dll
 0002:000163d0       __NULL_IMPORT_DESCRIPTOR   100843d0     kernel32:KERNEL32.dll
 0003:00000004       ?__LINE__Var@?1??HanReportInitGameString@@YGHPAD_N@Z@4JA 10086004     HanReportForClientImpl.obj
 0003:00000008       ?__LINE__Var@?1??HanReportInit@@YGHPADH_N@Z@4JA 10086008     HanReportForClientImpl.obj
 0003:0000000c       ?__LINE__Var@?1??HanReportSendSync@@YAHPAD0@Z@4JA 1008600c     HanReportForClientImpl.obj
 0003:00000010       ?__LINE__Var@?1??HanReportSend@@YGHPAD0@Z@4JA 10086010     HanReportForClientImpl.obj
 0003:00000014       ?__LINE__Var@?1??HanReportGetNationCode@@YGHPADPAH@Z@4JA 10086014     HanReportForClientImpl.obj
 0003:00000018       ?__LINE__Var@?1??HanReportGetServiceTypeCode@@YGHPADPAH@Z@4JA 10086018     HanReportForClientImpl.obj
 0003:0000001c       ?__LINE__Var@?1??HanReportGetSiteCode@@YGHPADPAH@Z@4JA 1008601c     HanReportForClientImpl.obj
 0003:00000020       ??_R0?AVbad_alloc@std@@@8  10086020     HanReportForClientImpl.obj
 0003:0000003c       ??_R0?AVexception@std@@@8  1008603c     HanReportForClientImpl.obj
 0003:00000058       ??_R0?AVCMD5@@@8           10086058     MD5.obj
 0003:00000070       ?g_szEncryptKey@hgx@@3PBDB 10086070     MetpParserD:MetpParser.obj
 0003:00000074       ??_R0?AVCMetpParser@hgx@@@8 10086074     MetpParserD:MetpParser.obj
 0003:00000094       ?__LINE__Var@?1???4CMetpParser@hgx@@QAEAAV12@AAV12@@Z@4JA 10086094     MetpParserD:MetpParser.obj
 0003:00000098       ?__LINE__Var@?1??SetHeader@CMetpParser@hgx@@IAE_NPBD00H0G@Z@4JA 10086098     MetpParserD:MetpParser.obj
 0003:0000009c       ?__LINE__Var@?1??SetURL@CMetpParser@hgx@@IAE_NPBDH0@Z@4JA 1008609c     MetpParserD:MetpParser.obj
 0003:000000a0       ?__LINE__Var@?1??IsExistKey@CMetpParser@hgx@@QAE_NPBD@Z@4JA 100860a0     MetpParserD:MetpParser.obj
 0003:000000a4       ?__LINE__Var@?1??AddData@CMetpParser@hgx@@QAE_NPAXH@Z@4JA 100860a4     MetpParserD:MetpParser.obj
 0003:000000a8       ?__LINE__Var@?1??GetValue@CMetpParser@hgx@@QAE_NPBDAA_N@Z@4JA 100860a8     MetpParserD:MetpParser.obj
 0003:000000ac       ?__LINE__Var@?1??GetValue@CMetpParser@hgx@@QAE_NPBDAAPADAAH@Z@4JA 100860ac     MetpParserD:MetpParser.obj
 0003:000000b0       ?__LINE__Var@?1??DelKey@CMetpParser@hgx@@QAE_NPBD@Z@4JA 100860b0     MetpParserD:MetpParser.obj
 0003:000000b4       ?__LINE__Var@?1??GetValue@CMetpParser@hgx@@QAE_NPBDAAPAD@Z@4JA 100860b4     MetpParserD:MetpParser.obj
 0003:000000b8       ?__LINE__Var@?1??SetItemize@CMetpParser@hgx@@IAE_NXZ@4JA 100860b8     MetpParserD:MetpParser.obj
 0003:000000bc       ?__LINE__Var@?1??allocNewItemData@CMetpParser@hgx@@IAEPAVCItemData@23@PBDH@Z@4JA 100860bc     MetpParserD:MetpParser.obj
 0003:000000c0       ?__LINE__Var@?1??insertNewKey@CMetpParser@hgx@@IAE_NAAU?$pair@V?$basic_string@DU?$char_traits@D@std@@V?$allocator@D@2@@std@@PAVCItemData@CMetpParser@hgx@@@std@@@Z@4JA 100860c0     MetpParserD:MetpParser.obj
 0003:000000c4       ??_R0?AVlength_error@std@@@8 100860c4     MetpParserD:MetpParser.obj
 0003:000000e4       ??_R0?AVlogic_error@std@@@8 100860e4     MetpParserD:MetpParser.obj
 0003:00000104       ??_R0?AVCLibDocZip@@@8     10086104     MetpParserD:LibDocZip.obj
 0003:00000164       ?keyCookie1@Key@PubProtocol@@2PADA 10086164     PubProtocolD:PubProtocol.obj
 0003:00000168       ?keyCookie2@Key@PubProtocol@@2PADA 10086168     PubProtocolD:PubProtocol.obj
 0003:0000016c       ?keyCookie3@Key@PubProtocol@@2PADA 1008616c     PubProtocolD:PubProtocol.obj
 0003:00000170       ?keyCookie4@Key@PubProtocol@@2PADA 10086170     PubProtocolD:PubProtocol.obj
 0003:00000174       ?keyCookie5@Key@PubProtocol@@2PADA 10086174     PubProtocolD:PubProtocol.obj
 0003:00000178       ?keyCookie6@Key@PubProtocol@@2PADA 10086178     PubProtocolD:PubProtocol.obj
 0003:0000017c       ?keyCookie7@Key@PubProtocol@@2PADA 1008617c     PubProtocolD:PubProtocol.obj
 0003:00000180       ?keyCookie8@Key@PubProtocol@@2PADA 10086180     PubProtocolD:PubProtocol.obj
 0003:00000184       ?keyCookie9@Key@PubProtocol@@2PADA 10086184     PubProtocolD:PubProtocol.obj
 0003:00000188       ?keyServiceCode@Key@PubProtocol@@2PADA 10086188     PubProtocolD:PubProtocol.obj
 0003:0000018c       ?keyMarketingTag@Key@PubProtocol@@2PADA 1008618c     PubProtocolD:PubProtocol.obj
 0003:00000190       ?keyBillingUSN@Key@PubProtocol@@2PADA 10086190     PubProtocolD:PubProtocol.obj
 0003:00000194       ?keyMemberId@Key@PubProtocol@@2PADA 10086194     PubProtocolD:PubProtocol.obj
 0003:00000198       ?keyGameId@Key@PubProtocol@@2PADA 10086198     PubProtocolD:PubProtocol.obj
 0003:0000019c       ??_R0?AVWbers@@@8          1008619c     WbersClientLibD:Wbers.obj
 0003:000001b0       ?__LINE__Var@?1??InetPost@@YAKPBD00G@Z@4JA 100861b0     WbersClientLibD:InetPost.obj
 0003:000001b4       ?__LINE__Var@?1??GetFileContents@@YAKABV?$basic_string@DU?$char_traits@D@std@@V?$allocator@D@2@@std@@AAPADAAK@Z@4JA 100861b4     WbersClientLibD:InetPost.obj
 0003:000001b8       ??_R0?AVSyncObject@@@8     100861b8     CommLibForSvr:Sync.obj
 0003:000001d4       ??_R0?AVHanCriticalSection@@@8 100861d4     CommLibForSvr:Sync.obj
 0003:000001f8       ??_R0?AVHanLock@@@8        100861f8     CommLibForSvr:Sync.obj
 0003:00000210       ___security_cookie         10086210     LIBCMTD:gs_cookie.obj
 0003:00000214       ___security_cookie_complement 10086214     LIBCMTD:gs_cookie.obj
 0003:00000294       ??_R0?AVtype_info@@@8      10086294     LIBCMTD:typinfo.obj
 0003:000002b0       ??_R0?AVbad_cast@std@@@8   100862b0     LIBCMTD:stdexcpt.obj
 0003:000002cc       ??_R0?AVbad_typeid@std@@@8 100862cc     LIBCMTD:stdexcpt.obj
 0003:000002ec       ??_R0?AV__non_rtti_object@std@@@8 100862ec     LIBCMTD:stdexcpt.obj
 0003:00000310       __crtDbgFlag               10086310     LIBCMTD:dbgheap.obj
 0003:00000314       ___crtDebugFillThreshold   10086314     LIBCMTD:dbgheap.obj
 0003:0000031c       __crtBreakAlloc            1008631c     LIBCMTD:dbgheap.obj
 0003:00000330       __fltused                  10086330     LIBCMTD:fpinit.obj
 0003:00000334       __ldused                   10086334     LIBCMTD:fpinit.obj
 0003:00000338       ?_RTC_ErrorLevels@@3PAHA   10086338     LIBCMTD:error.obj
 0003:00000364       __aexit_rtn                10086364     LIBCMTD:crt0dat.obj
 0003:00000368       __iob                      10086368     LIBCMTD:_file.obj
 0003:000005e8       ___abort_behavior          100865e8     LIBCMTD:abort.obj
 0003:00000624       ??_R0?AVbad_exception@std@@@8 10086624     LIBCMTD:frame.obj
 0003:00000650       ___flsindex                10086650     LIBCMTD:tidtable.obj
 0003:00000654       ___getvalueindex           10086654     LIBCMTD:tidtable.obj
 0003:00000660       ___nullstring              10086660     LIBCMTD:output.obj
 0003:00000664       ___wnullstring             10086664     LIBCMTD:output.obj
 0003:000007d8       __pfnAllocHook             100867d8     LIBCMTD:dbghook.obj
 0003:00000900       __crtAssertBusy            10086900     LIBCMTD:dbgrptt.obj
 0003:00000904       __CrtDbgMode               10086904     LIBCMTD:dbgrptt.obj
 0003:00000910       __CrtDbgFile               10086910     LIBCMTD:dbgrptt.obj
 0003:00000940       __amblksiz                 10086940     LIBCMTD:heapinit.obj
 0003:00000948       ___initialmbcinfo          10086948     LIBCMTD:mbctype.obj
 0003:00000b68       __mbctype                  10086b68     LIBCMTD:mbctype.obj
 0003:00000c70       __mbcasemap                10086c70     LIBCMTD:mbctype.obj
 0003:00000d70       ___ptmbcinfo               10086d70     LIBCMTD:mbctype.obj
 0003:00000e6c       ___globallocalestatus      10086e6c     LIBCMTD:glstatus.obj
 0003:00000e70       ___clocalestr              10086e70     LIBCMTD:nlsdata2.obj
 0003:00000e78       ___initiallocinfo          10086e78     LIBCMTD:nlsdata2.obj
 0003:00000f50       ___ptlocinfo               10086f50     LIBCMTD:nlsdata2.obj
 0003:00000f54       ___lc_clike                10086f54     LIBCMTD:nlsdata2.obj
 0003:00000f58       ___initiallocalestructinfo 10086f58     LIBCMTD:nlsdata2.obj
 0003:00000f60       ___badioinfo               10086f60     LIBCMTD:ioinit.obj
 0003:00000f98       __XcptActTab               10086f98     LIBCMTD:winxfltr.obj
 0003:00001010       __First_FPE_Indx           10087010     LIBCMTD:winxfltr.obj
 0003:00001014       __Num_FPE                  10087014     LIBCMTD:winxfltr.obj
 0003:00001018       __XcptActTabSize           10087018     LIBCMTD:winxfltr.obj
 0003:0000101c       __XcptActTabCount          1008701c     LIBCMTD:winxfltr.obj
 0003:00001020       __cfltcvt_tab              10087020     LIBCMTD:cmiscdat.obj
 0003:00001050       __HUGE                     10087050     LIBCMTD:huge.obj
 0003:00001118       __NLG_Destination          10087118     LIBCMTD:exsup.obj
 0003:0000112c       ??_R0?AVDNameNode@@@8      1008712c     LIBCMTD:undname.obj
 0003:00001144       ??_R0?AVcharNode@@@8       10087144     LIBCMTD:undname.obj
 0003:0000115c       ??_R0?AVpcharNode@@@8      1008715c     LIBCMTD:undname.obj
 0003:00001174       ??_R0?AVpDNameNode@@@8     10087174     LIBCMTD:undname.obj
 0003:00001190       ??_R0?AVDNameStatusNode@@@8 10087190     LIBCMTD:undname.obj
 0003:000011b0       __pctype                   100871b0     LIBCMTD:ctype.obj
 0003:000011b4       __pwctype                  100871b4     LIBCMTD:ctype.obj
 0003:000011b8       ___lc_time_c               100871b8     LIBCMTD:strftime.obj
 0003:00001270       ___lc_time_curr            10087270     LIBCMTD:strftime.obj
 0003:00001274       ___lconv_static_decimal    10087274     LIBCMTD:lconv.obj
 0003:00001278       ___lconv_c                 10087278     LIBCMTD:lconv.obj
 0003:000012a8       ___lconv                   100872a8     LIBCMTD:lconv.obj
 0003:000012ac       ___mb_cur_max              100872ac     LIBCMTD:nlsdata1.obj
 0003:000012b0       ___decimal_point           100872b0     LIBCMTD:nlsdata1.obj
 0003:000012b4       ___decimal_point_length    100872b4     LIBCMTD:nlsdata1.obj
 0003:000012f8       __timezone                 100872f8     LIBCMTD:timeset.obj
 0003:000012fc       __daylight                 100872fc     LIBCMTD:timeset.obj
 0003:00001300       __dstbias                  10087300     LIBCMTD:timeset.obj
 0003:00001388       __tzname                   10087388     LIBCMTD:timeset.obj
 0003:000013a8       __pow10pos                 100873a8     LIBCMTD:constpow.obj
 0003:00001508       __pow10neg                 10087508     LIBCMTD:constpow.obj
 0003:00001664       __coninpfh                 10087664     LIBCMTD:initcon.obj
 0003:00001668       __confh                    10087668     LIBCMTD:initcon.obj
 0003:0000166c       __lpdays                   1008766c     LIBCMTD:days.obj
 0003:000016a0       __days                     100876a0     LIBCMTD:days.obj
 0003:0000170c       ??_R0?AVout_of_range@std@@@8 1008770c     libcpmtd:string.obj
 0003:0000172c       ??_R0?AVinvalid_argument@std@@@8 1008772c     libcpmtd:string.obj
 0003:00001760       ?g_hInstance@@3PAUHINSTANCE__@@A 10087760     HanReportForClient.obj
 0003:00001768       ?g_szPosSubject@@3PADA     10087768     HanReportForClientImpl.obj
 0003:000017a8       ?g_bIsInit@@3_NA           100877a8     HanReportForClientImpl.obj
 0003:000017ac       ?g_nServiceCode@@3HA       100877ac     HanReportForClientImpl.obj
 0003:000057b0       ?s_exit_handler@SEHError@@2P6A_NXZA 1008b7b0     WbersClientLibD:SEHError.obj
 0003:000057b4       ?s_status@SEHError@@0HA    1008b7b4     WbersClientLibD:SEHError.obj
 0003:000057b8       ?default_se_filename@@3V?$basic_string@DU?$char_traits@D@std@@V?$allocator@D@2@@std@@A 1008b7b8     WbersClientLibD:SEHError.obj
 0003:000057d8       ?s_version@SEHError@@0V?$basic_string@DU?$char_traits@D@std@@V?$allocator@D@2@@std@@A 1008b7d8     WbersClientLibD:SEHError.obj
 0003:000057f8       ?s_subjectName@SEHError@@0V?$basic_string@DU?$char_traits@D@std@@V?$allocator@D@2@@std@@A 1008b7f8     WbersClientLibD:SEHError.obj
 0003:00005818       ?s_dumpFilename@SEHError@@2V?$basic_string@DU?$char_traits@D@std@@V?$allocator@D@2@@std@@A 1008b818     WbersClientLibD:SEHError.obj
 0003:00005838       ?s_userid@SEHError@@0V?$basic_string@DU?$char_traits@D@std@@V?$allocator@D@2@@std@@A 1008b838     WbersClientLibD:SEHError.obj
 0003:00005858       ?s_gameid@SEHError@@0V?$basic_string@DU?$char_traits@D@std@@V?$allocator@D@2@@std@@A 1008b858     WbersClientLibD:SEHError.obj
 0003:00005878       ?s_serverPort@Wbers@@2HA   1008b878     WbersClientLibD:Wbers.obj
 0003:0000587c       ?s_bRunning@Wbers@@2_NA    1008b87c     WbersClientLibD:Wbers.obj
 0003:00005880       ?s_nRunningCount@Wbers@@2IA 1008b880     WbersClientLibD:Wbers.obj
 0003:00005884       ?start_time@Wbers@@2KA     1008b884     WbersClientLibD:Wbers.obj
 0003:00005888       ?s_serverIp@Wbers@@2V?$basic_string@DU?$char_traits@D@std@@V?$allocator@D@2@@std@@A 1008b888     WbersClientLibD:Wbers.obj
 0003:000058a8       ?s_serverFile@Wbers@@2V?$basic_string@DU?$char_traits@D@std@@V?$allocator@D@2@@std@@A 1008b8a8     WbersClientLibD:Wbers.obj
 0003:000058c8       ?s_projectName@Wbers@@2V?$basic_string@DU?$char_traits@D@std@@V?$allocator@D@2@@std@@A 1008b8c8     WbersClientLibD:Wbers.obj
 0003:000058e8       ?g_cs@@3VHanCriticalSection@@A 1008b8e8     WbersClientLibD:Wbers.obj
 0003:000078fc       ___pInvalidArgHandler      1008d8fc     LIBCMTD:invarg.obj
 0003:00007914       ?_pfnDumpClient@@3P6AXPAXI@ZA 1008d914     LIBCMTD:dbgheap.obj
 0003:0000791c       ___crtDebugCheckCount      1008d91c     LIBCMTD:dbgheap.obj
 0003:00007938       __aenvptr                  1008d938     LIBCMTD:dllcrt0.obj
 0003:0000793c       __wenvptr                  1008d93c     LIBCMTD:dllcrt0.obj
 0003:00007940       ___error_mode              1008d940     LIBCMTD:dllcrt0.obj
 0003:00007944       ___app_type                1008d944     LIBCMTD:dllcrt0.obj
 0003:00007948       ___fastflag                1008d948     LIBCMTD:fpinit.obj
 0003:0000794c       __adjust_fdiv              1008d94c     LIBCMTD:fpinit.obj
 0003:00007950       ?wsprintffp@@3P6AHPADPBDZZA 1008d950     LIBCMTD:error.obj
 0003:00007c84       __umaskval                 1008dc84     LIBCMTD:crt0dat.obj
 0003:00007c88       __osplatform               1008dc88     LIBCMTD:crt0dat.obj
 0003:00007c8c       __osver                    1008dc8c     LIBCMTD:crt0dat.obj
 0003:00007c90       __winver                   1008dc90     LIBCMTD:crt0dat.obj
 0003:00007c94       __winmajor                 1008dc94     LIBCMTD:crt0dat.obj
 0003:00007c98       __winminor                 1008dc98     LIBCMTD:crt0dat.obj
 0003:00007c9c       ___argc                    1008dc9c     LIBCMTD:crt0dat.obj
 0003:00007ca0       ___argv                    1008dca0     LIBCMTD:crt0dat.obj
 0003:00007ca4       ___wargv                   1008dca4     LIBCMTD:crt0dat.obj
 0003:00007ca8       __environ                  1008dca8     LIBCMTD:crt0dat.obj
 0003:00007cac       ___initenv                 1008dcac     LIBCMTD:crt0dat.obj
 0003:00007cb0       __wenviron                 1008dcb0     LIBCMTD:crt0dat.obj
 0003:00007cb4       ___winitenv                1008dcb4     LIBCMTD:crt0dat.obj
 0003:00007cb8       __pgmptr                   1008dcb8     LIBCMTD:crt0dat.obj
 0003:00007cbc       __wpgmptr                  1008dcbc     LIBCMTD:crt0dat.obj
 0003:00007cc0       __exitflag                 1008dcc0     LIBCMTD:crt0dat.obj
 0003:00007cc4       __C_Termination_Done       1008dcc4     LIBCMTD:crt0dat.obj
 0003:00007cc8       __C_Exit_Done              1008dcc8     LIBCMTD:crt0dat.obj
 0003:00007cf8       __cflush                   1008dcf8     LIBCMTD:_file.obj
 0003:00007cfc       _gpFlsAlloc                1008dcfc     LIBCMTD:tidtable.obj
 0003:00007d00       _gpFlsGetValue             1008dd00     LIBCMTD:tidtable.obj
 0003:00007d04       _gpFlsSetValue             1008dd04     LIBCMTD:tidtable.obj
 0003:00007d08       _gpFlsFree                 1008dd08     LIBCMTD:tidtable.obj
 0003:00007d0c       ?__pInconsistency@@3P6AXXZA 1008dd0c     LIBCMTD:hooks.obj
 0003:00007e80       __newmode                  1008de80     LIBCMTD:_newmode.obj
 0003:00007e84       ?_pnhHeap@@3P6AHI@ZA       1008de84     LIBCMTD:handler.obj
 0003:00007e88       __crtheap                  1008de88     LIBCMTD:heapinit.obj
 0003:00007e8c       ___sbh_pHeaderDefer        1008de8c     LIBCMTD:sbheap.obj
 0003:00007e94       ___mbulinfo                1008de94     LIBCMTD:mbctype.obj
 0003:00007ea0       ___mbcodepage              1008dea0     LIBCMTD:mbctype.obj
 0003:00007ea4       ___ismbcodepage            1008dea4     LIBCMTD:mbctype.obj
 0003:00007ea8       ___mblcid                  1008dea8     LIBCMTD:mbctype.obj
 0003:00007eac       ___locale_changed          1008deac     LIBCMTD:setlocal.obj
 0003:00007eb0       ___lc_handle               1008deb0     LIBCMTD:nlsdata2.obj
 0003:00007ec8       ___lc_codepage             1008dec8     LIBCMTD:nlsdata2.obj
 0003:00007ecc       ___lc_collate_cp           1008decc     LIBCMTD:nlsdata2.obj
 0003:00008304       ___pPurecall               1008e304     LIBCMTD:inithelp.obj
 0003:00008310       __stdbuf                   1008e310     LIBCMTD:_sftbuf.obj
 0003:00008344       ?pArgList@UnDecorator@@0PAVReplicator@@A 1008e344     LIBCMTD:undname.obj
 0003:00008348       ?pZNameList@UnDecorator@@0PAVReplicator@@A 1008e348     LIBCMTD:undname.obj
 0003:0000834c       ?pTemplateArgList@UnDecorator@@0PAVReplicator@@A 1008e34c     LIBCMTD:undname.obj
 0003:00008350       ?gName@UnDecorator@@0PBDB  1008e350     LIBCMTD:undname.obj
 0003:00008354       ?name@UnDecorator@@0PBDB   1008e354     LIBCMTD:undname.obj
 0003:00008358       ?outputString@UnDecorator@@0PADA 1008e358     LIBCMTD:undname.obj
 0003:0000835c       ?maxStringLength@UnDecorator@@0HA 1008e35c     LIBCMTD:undname.obj
 0003:00008360       ?disableFlags@UnDecorator@@0KA 1008e360     LIBCMTD:undname.obj
 0003:00008364       ?m_pGetParameter@UnDecorator@@0P6APADJ@ZA 1008e364     LIBCMTD:undname.obj
 0003:00008368       ?fExplicitTemplateParams@UnDecorator@@0_NA 1008e368     LIBCMTD:undname.obj
 0003:00008369       ?fGetTemplateArgumentList@UnDecorator@@0_NA 1008e369     LIBCMTD:undname.obj
 0003:000083c8       ___lconv_static_null       1008e3c8     LIBCMTD:lconv.obj
 0003:000083cc       __outputformat             1008e3cc     LIBCMTD:outputformat.obj
 0003:0000850c       __nhandle                  1008e50c     <common>
 0003:00008520       ___pioinfo                 1008e520     <common>
 0003:00008620       ___setlc_active            1008e620     <common>
 0003:00008624       ___unguarded_readlc_active 1008e624     <common>
 0003:00008628       ___sbh_initialized         1008e628     <common>
 0003:0000862c       ___sbh_cntHeaderList       1008e62c     <common>
 0003:00008630       ___sbh_pHeaderList         1008e630     <common>
 0003:00008634       ___sbh_threshold           1008e634     <common>
 0003:00008638       ___sbh_pHeaderScan         1008e638     <common>
 0003:0000863c       ___sbh_sizeHeaderList      1008e63c     <common>
 0003:00008640       ___sbh_indGroupDefer       1008e640     <common>
 0003:00008644       ___active_heap             1008e644     <common>
 0003:00008648       __pfnReportHook            1008e648     <common>
 0003:0000864c       __pReportHookListW         1008e64c     <common>
 0003:00008650       __pReportHookList          1008e650     <common>
 0003:00008654       __debugger_hook_dummy      1008e654     <common>
 0003:00008658       ___use_sse2_mathfcns       1008e658     <common>
 0003:0000865c       ___sse2_available          1008e65c     <common>
 0003:00008660       ___piob                    1008e660     <common>
 0003:00008680       __bufin                    1008e680     <common>
 0003:00009680       __nstream                  1008f680     <common>
 0003:00009684       ___env_initialized         1008f684     <common>
 0003:00009688       ___onexitend               1008f688     <common>
 0003:0000968c       ___onexitbegin             1008f68c     <common>
 0003:00009690       ___mbctype_initialized     1008f690     <common>
 0003:00009694       ___dyn_tls_init_callback   1008f694     <common>
 0003:00009698       __acmdln                   1008f698     <common>

 entry point at        0001:00024f40

 Static symbols

 0001:fffff000       __ehhandler$?_Copy@?$basic_string@DU?$char_traits@D@std@@V?$allocator@D@2@@std@@IAEXII@Z 10000000 f   libcpmtd:string.obj
 0001:fffff000       __unwindfunclet$??1?$basic_string@DU?$char_traits@D@std@@V?$allocator@D@2@@std@@QAE@XZ$0 10000000 f   MetpParserD:MetpParser.obj
 0001:fffff000       __ehhandler$?_Copy@?$basic_string@DU?$char_traits@D@std@@V?$allocator@D@2@@std@@IAEXII@Z 10000000 f   MetpParserD:MetpParser.obj
 0001:fffff000       __unwindfunclet$??0?$basic_string@DU?$char_traits@D@std@@V?$allocator@D@2@@std@@QAE@PBD@Z$0 10000000 f   MetpParserD:MetpParser.obj
 0001:fffff000       __unwindfunclet$??1?$basic_string@DU?$char_traits@D@std@@V?$allocator@D@2@@std@@QAE@XZ$0 10000000 f   libcpmtd:string.obj
 0001:fffff000       __unwindfunclet$??0?$basic_string@DU?$char_traits@D@std@@V?$allocator@D@2@@std@@QAE@XZ$0 10000000 f   WbersClientLibD:InetPost.obj
 0001:fffff000       __unwindfunclet$??0?$basic_string@DU?$char_traits@D@std@@V?$allocator@D@2@@std@@QAE@ABV01@@Z$0 10000000 f   libcpmtd:string.obj
 0001:fffff000       __unwindfunclet$??0?$basic_string@DU?$char_traits@D@std@@V?$allocator@D@2@@std@@QAE@PBD@Z$0 10000000 f   WbersClientLibD:InetPost.obj
 0001:fffff000       __unwindfunclet$??0?$basic_string@DU?$char_traits@D@std@@V?$allocator@D@2@@std@@QAE@PBD@Z$0 10000000 f   libcpmtd:string.obj
 0001:fffff000       __unwindfunclet$??0?$basic_string@DU?$char_traits@D@std@@V?$allocator@D@2@@std@@QAE@ABV01@@Z$0 10000000 f   WbersClientLibD:InetPost.obj
 0001:fffff000       __unwindfunclet$??0logic_error@std@@QAE@ABV01@@Z$0 10000000 f   libcpmtd:string.obj
 0001:fffff000       __unwindfunclet$??1?$basic_string@DU?$char_traits@D@std@@V?$allocator@D@2@@std@@QAE@XZ$0 10000000 f   WbersClientLibD:InetPost.obj
 0001:fffff000       __unwindfunclet$??0logic_error@std@@QAE@ABV?$basic_string@DU?$char_traits@D@std@@V?$allocator@D@2@@1@@Z$0 10000000 f   libcpmtd:string.obj
 0001:fffff000       __ehhandler$?_Copy@?$basic_string@DU?$char_traits@D@std@@V?$allocator@D@2@@std@@IAEXII@Z 10000000 f   WbersClientLibD:InetPost.obj
 0001:fffff000       __unwindfunclet$??0?$basic_string@DU?$char_traits@D@std@@V?$allocator@D@2@@std@@QAE@XZ$0 10000000 f   WbersClientLibD:Wbers.obj
 0001:fffff000       __ehhandler$?_Copy@?$basic_string@DU?$char_traits@D@std@@V?$allocator@D@2@@std@@IAEXII@Z 10000000 f   WbersClientLibD:Wbers.obj
 0001:fffff000       __unwindfunclet$??0?$basic_string@DU?$char_traits@D@std@@V?$allocator@D@2@@std@@QAE@XZ$0 10000000 f   WbersClientLibD:LogBuilder.obj
 0001:fffff000       __unwindfunclet$??1?$basic_string@DU?$char_traits@D@std@@V?$allocator@D@2@@std@@QAE@XZ$0 10000000 f   WbersClientLibD:LogBuilder.obj
 0001:fffff000       __ehhandler$?_Copy@?$basic_string@DU?$char_traits@D@std@@V?$allocator@D@2@@std@@IAEXII@Z 10000000 f   WbersClientLibD:LogBuilder.obj
 0001:fffff000       __unwindfunclet$??1?$basic_string@DU?$char_traits@D@std@@V?$allocator@D@2@@std@@QAE@XZ$0 10000000 f   WbersClientLibD:Wbers.obj
 0001:fffff000       __unwindfunclet$??0?$basic_string@DU?$char_traits@D@std@@V?$allocator@D@2@@std@@QAE@PBD@Z$0 10000000 f   WbersClientLibD:SEHError.obj
 0001:fffff000       __unwindfunclet$??0?$basic_string@DU?$char_traits@D@std@@V?$allocator@D@2@@std@@QAE@ABV01@@Z$0 10000000 f   WbersClientLibD:Wbers.obj
 0001:fffff000       __unwindfunclet$??1?$basic_string@DU?$char_traits@D@std@@V?$allocator@D@2@@std@@QAE@XZ$0 10000000 f   WbersClientLibD:SEHError.obj
 0001:fffff000       __unwindfunclet$??0?$basic_string@DU?$char_traits@D@std@@V?$allocator@D@2@@std@@QAE@PBD@Z$0 10000000 f   WbersClientLibD:Wbers.obj
 0001:fffff000       __ehhandler$?_Copy@?$basic_string@DU?$char_traits@D@std@@V?$allocator@D@2@@std@@IAEXII@Z 10000000 f   WbersClientLibD:SEHError.obj
 0001:fffff008       __ehhandler$??1?$basic_string@DU?$char_traits@D@std@@V?$allocator@D@2@@std@@QAE@XZ 10000008 f   MetpParserD:MetpParser.obj
 0001:fffff008       __ehhandler$??0?$basic_string@DU?$char_traits@D@std@@V?$allocator@D@2@@std@@QAE@ABV01@@Z 10000008 f   libcpmtd:string.obj
 0001:fffff008       __ehhandler$??1?$basic_string@DU?$char_traits@D@std@@V?$allocator@D@2@@std@@QAE@XZ 10000008 f   WbersClientLibD:SEHError.obj
 0001:fffff008       __ehhandler$??0?$basic_string@DU?$char_traits@D@std@@V?$allocator@D@2@@std@@QAE@PBD@Z 10000008 f   WbersClientLibD:Wbers.obj
 0001:fffff008       __ehhandler$??0?$basic_string@DU?$char_traits@D@std@@V?$allocator@D@2@@std@@QAE@PBD@Z 10000008 f   WbersClientLibD:SEHError.obj
 0001:fffff008       __ehhandler$??0?$basic_string@DU?$char_traits@D@std@@V?$allocator@D@2@@std@@QAE@ABV01@@Z 10000008 f   WbersClientLibD:Wbers.obj
 0001:fffff008       __ehhandler$??1?$basic_string@DU?$char_traits@D@std@@V?$allocator@D@2@@std@@QAE@XZ 10000008 f   WbersClientLibD:Wbers.obj
 0001:fffff008       __ehhandler$??0?$basic_string@DU?$char_traits@D@std@@V?$allocator@D@2@@std@@QAE@XZ 10000008 f   WbersClientLibD:InetPost.obj
 0001:fffff008       __ehhandler$??1?$basic_string@DU?$char_traits@D@std@@V?$allocator@D@2@@std@@QAE@XZ 10000008 f   libcpmtd:string.obj
 0001:fffff008       __ehhandler$??1?$basic_string@DU?$char_traits@D@std@@V?$allocator@D@2@@std@@QAE@XZ 10000008 f   WbersClientLibD:LogBuilder.obj
 0001:fffff008       __ehhandler$??0?$basic_string@DU?$char_traits@D@std@@V?$allocator@D@2@@std@@QAE@PBD@Z 10000008 f   libcpmtd:string.obj
 0001:fffff008       __ehhandler$??0?$basic_string@DU?$char_traits@D@std@@V?$allocator@D@2@@std@@QAE@XZ 10000008 f   WbersClientLibD:LogBuilder.obj
 0001:fffff008       __ehhandler$??0?$basic_string@DU?$char_traits@D@std@@V?$allocator@D@2@@std@@QAE@PBD@Z 10000008 f   MetpParserD:MetpParser.obj
 0001:fffff008       __ehhandler$??0?$basic_string@DU?$char_traits@D@std@@V?$allocator@D@2@@std@@QAE@XZ 10000008 f   WbersClientLibD:Wbers.obj
 0001:fffff008       __ehhandler$??0?$basic_string@DU?$char_traits@D@std@@V?$allocator@D@2@@std@@QAE@PBD@Z 10000008 f   WbersClientLibD:InetPost.obj
 0001:fffff008       __ehhandler$??0logic_error@std@@QAE@ABV01@@Z 10000008 f   libcpmtd:string.obj
 0001:fffff008       __ehhandler$??1?$basic_string@DU?$char_traits@D@std@@V?$allocator@D@2@@std@@QAE@XZ 10000008 f   WbersClientLibD:InetPost.obj
 0001:fffff008       __ehhandler$??0logic_error@std@@QAE@ABV?$basic_string@DU?$char_traits@D@std@@V?$allocator@D@2@@1@@Z 10000008 f   libcpmtd:string.obj
 0001:fffff008       __ehhandler$??0?$basic_string@DU?$char_traits@D@std@@V?$allocator@D@2@@std@@QAE@ABV01@@Z 10000008 f   WbersClientLibD:InetPost.obj
 0001:fffff0bb       __catch$?_Copy@?$basic_string@DU?$char_traits@D@std@@V?$allocator@D@2@@std@@IAEXII@Z$0 100000bb f   libcpmtd:string.obj
 0001:fffff0d8       __catch$?_Copy@?$basic_string@DU?$char_traits@D@std@@V?$allocator@D@2@@std@@IAEXII@Z$0 100000d8 f   WbersClientLibD:SEHError.obj
 0001:fffff0d8       __catch$?_Copy@?$basic_string@DU?$char_traits@D@std@@V?$allocator@D@2@@std@@IAEXII@Z$0 100000d8 f   WbersClientLibD:LogBuilder.obj
 0001:fffff0d8       __catch$?_Copy@?$basic_string@DU?$char_traits@D@std@@V?$allocator@D@2@@std@@IAEXII@Z$0 100000d8 f   MetpParserD:MetpParser.obj
 0001:fffff0d8       __catch$?_Copy@?$basic_string@DU?$char_traits@D@std@@V?$allocator@D@2@@std@@IAEXII@Z$0 100000d8 f   WbersClientLibD:Wbers.obj
 0001:fffff0d8       __catch$?_Copy@?$basic_string@DU?$char_traits@D@std@@V?$allocator@D@2@@std@@IAEXII@Z$0 100000d8 f   WbersClientLibD:InetPost.obj
 0001:fffff0e5       __catch$?_Copy@?$basic_string@DU?$char_traits@D@std@@V?$allocator@D@2@@std@@IAEXII@Z$1 100000e5 f   libcpmtd:string.obj
 0001:fffff108       __catch$?_Copy@?$basic_string@DU?$char_traits@D@std@@V?$allocator@D@2@@std@@IAEXII@Z$1 10000108 f   WbersClientLibD:Wbers.obj
 0001:fffff108       __catch$?_Copy@?$basic_string@DU?$char_traits@D@std@@V?$allocator@D@2@@std@@IAEXII@Z$1 10000108 f   MetpParserD:MetpParser.obj
 0001:fffff108       __catch$?_Copy@?$basic_string@DU?$char_traits@D@std@@V?$allocator@D@2@@std@@IAEXII@Z$1 10000108 f   WbersClientLibD:LogBuilder.obj
 0001:fffff108       __catch$?_Copy@?$basic_string@DU?$char_traits@D@std@@V?$allocator@D@2@@std@@IAEXII@Z$1 10000108 f   WbersClientLibD:SEHError.obj
 0001:fffff108       __catch$?_Copy@?$basic_string@DU?$char_traits@D@std@@V?$allocator@D@2@@std@@IAEXII@Z$1 10000108 f   WbersClientLibD:InetPost.obj
 0001:00003948       __catch$?_Copy@?$basic_string@DU?$char_traits@D@std@@V?$allocator@D@2@@std@@IAEXII@Z$0 10004948 f i HanReportForClientImpl.obj
 0001:00003978       __catch$?_Copy@?$basic_string@DU?$char_traits@D@std@@V?$allocator@D@2@@std@@IAEXII@Z$1 10004978 f i HanReportForClientImpl.obj
 0001:0000e8ed       __catch$?_Buynode@?$_Tree@V?$_Tmap_traits@V?$basic_string@DU?$char_traits@D@std@@V?$allocator@D@2@@std@@PAVCItemData@CMetpParser@hgx@@U?$less@V?$basic_string@DU?$char_traits@D@std@@V?$allocator@D@2@@std@@@2@V?$allocator@U?$pair@$$CBV?$basic_string@DU?$char_traits@D@std@@V?$allocator@D@2@@std@@PAVCItemData@CMetpParser@hgx@@@std@@@2@$0A@@std@@@std@@IAEPAU_Node@?$_Tree_nod@V?$_Tmap_traits@V?$basic_string@DU?$char_traits@D@std@@V?$allocator@D@2@@std@@PAVCItemData@CMetpParser@hgx@@U?$less@V?$basic_string@DU?$char_traits@D@std@@V?$allocator@D@2@@std@@@2@V?$allocator@U?$pair@$$CBV?$basic_string@DU?$char_traits@D@std@@V?$allocator@D@2@@std@@PAVCItemData@CMetpParser@hgx@@@std@@@2@$0A@@std@@@2@PAU342@00ABU?$pair@$$CBV?$basic_string@DU?$char_traits@D@std@@V?$allocator@D@2@@std@@PAVCItemData@CMetpParser@hgx@@@2@D@Z$0 1000f8ed f i MetpParserD:MetpParser.obj
 0001:0000ef0e       __catch$?_Buynode@?$_Tree@V?$_Tmap_traits@V?$basic_string@DU?$char_traits@D@std@@V?$allocator@D@2@@std@@PAVCItemData@CMetpParser@hgx@@U?$less@V?$basic_string@DU?$char_traits@D@std@@V?$allocator@D@2@@std@@@2@V?$allocator@U?$pair@$$CBV?$basic_string@DU?$char_traits@D@std@@V?$allocator@D@2@@std@@PAVCItemData@CMetpParser@hgx@@@std@@@2@$0A@@std@@@std@@IAEPAU_Node@?$_Tree_nod@V?$_Tmap_traits@V?$basic_string@DU?$char_traits@D@std@@V?$allocator@D@2@@std@@PAVCItemData@CMetpParser@hgx@@U?$less@V?$basic_string@DU?$char_traits@D@std@@V?$allocator@D@2@@std@@@2@V?$allocator@U?$pair@$$CBV?$basic_string@DU?$char_traits@D@std@@V?$allocator@D@2@@std@@PAVCItemData@CMetpParser@hgx@@@std@@@2@$0A@@std@@@2@XZ$0 1000ff0e f i MetpParserD:MetpParser.obj
 0001:00010c00       _putShortMSB               10011c00 f   MetpParserD:deflate.obj
 0001:00010c30       _flush_pending             10011c30 f   MetpParserD:deflate.obj
 0001:000116d0       _read_buf                  100126d0 f   MetpParserD:deflate.obj
 0001:00011740       _lm_init                   10012740 f   MetpParserD:deflate.obj
 0001:000117d0       _longest_match_fast        100127d0 f   MetpParserD:deflate.obj
 0001:000118a0       _fill_window               100128a0 f   MetpParserD:deflate.obj
 0001:00011980       _deflate_stored            10012980 f   MetpParserD:deflate.obj
 0001:00011ab0       _deflate_fast              10012ab0 f   MetpParserD:deflate.obj
 0001:00011dd0       _deflate_slow              10012dd0 f   MetpParserD:deflate.obj
 0001:00012780       _fixedtables               10013780 f   MetpParserD:inflate.obj
 0001:000127a0       _updatewindow              100137a0 f   MetpParserD:inflate.obj
 0001:00013fd0       _syncsearch                10014fd0 f   MetpParserD:inflate.obj
 0001:000145d0       _tr_static_init            100155d0 f   MetpParserD:trees.obj
 0001:000145e0       _init_block                100155e0 f   MetpParserD:trees.obj
 0001:00014650       _pqdownheap                10015650 f   MetpParserD:trees.obj
 0001:00014720       _gen_bitlen                10015720 f   MetpParserD:trees.obj
 0001:00014940       _scan_tree                 10015940 f   MetpParserD:trees.obj
 0001:00014a30       _send_tree                 10015a30 f   MetpParserD:trees.obj
 0001:00014f50       _send_all_trees            10015f50 f   MetpParserD:trees.obj
 0001:00015250       _compress_block            10016250 f   MetpParserD:trees.obj
 0001:00015660       _set_data_type             10016660 f   MetpParserD:trees.obj
 0001:00015730       _bi_reverse                10016730 f   MetpParserD:trees.obj
 0001:00015750       _bi_flush                  10016750 f   MetpParserD:trees.obj
 0001:000157d0       _bi_windup                 100167d0 f   MetpParserD:trees.obj
 0001:00015850       _copy_block                10016850 f   MetpParserD:trees.obj
 0001:00015950       _gen_codes                 10016950 f   MetpParserD:trees.obj
 0001:000159c0       _build_tree                100169c0 f   MetpParserD:trees.obj
 0001:00015bc0       _build_bl_tree             10016bc0 f   MetpParserD:trees.obj
 0001:00016140       _crc32_little              10017140 f   MetpParserD:crc32.obj
 0001:000163e0       _crc32_big                 100173e0 f   MetpParserD:crc32.obj
 0001:000166d0       _gf2_matrix_times          100176d0 f   MetpParserD:crc32.obj
 0001:000166f0       _gf2_matrix_square         100176f0 f   MetpParserD:crc32.obj
 0001:000168e0       $$$00001                   100178e0 f   MetpParserD:inffas32.obj
 0001:00016910       invalid_literal_length_code_msg 10017910 f   MetpParserD:inffas32.obj
 0001:0001692c       invalid_distance_code_msg  1001792c f   MetpParserD:inffas32.obj
 0001:00016944       invalid_distance_too_far_msg 10017944 f   MetpParserD:inffas32.obj
 0001:00016964       inflate_fast_mask          10017964 f   MetpParserD:inffas32.obj
 0001:000169e8       inflate_fast_entry         100179e8 f   MetpParserD:inffas32.obj
 0001:00016aa2       L_align_long               10017aa2 f   MetpParserD:inffas32.obj
 0001:00016aba       L_is_aligned               10017aba f   MetpParserD:inffas32.obj
 0001:00016abe       L_check_mmx                10017abe f   MetpParserD:inffas32.obj
 0001:00016b1b       L_use_mmx                  10017b1b f   MetpParserD:inffas32.obj
 0001:00016b27       L_dont_use_mmx             10017b27 f   MetpParserD:inffas32.obj
 0001:00016b31       L_check_mmx_pop            10017b31 f   MetpParserD:inffas32.obj
 0001:00016b38       L_do_loop                  10017b38 f   MetpParserD:inffas32.obj
 0001:00016b4a       L_get_length_code          10017b4a f   MetpParserD:inffas32.obj
 0001:00016b56       L_dolen                    10017b56 f   MetpParserD:inffas32.obj
 0001:00016b64       L_while_test               10017b64 f   MetpParserD:inffas32.obj
 0001:00016b79       L_test_for_length_base     10017b79 f   MetpParserD:inffas32.obj
 0001:00016ba2       L_add_bits_to_len          10017ba2 f   MetpParserD:inffas32.obj
 0001:00016bb2       L_save_len                 10017bb2 f   MetpParserD:inffas32.obj
 0001:00016bb6       L_decode_distance          10017bb6 f   MetpParserD:inffas32.obj
 0001:00016bc8       L_get_distance_code        10017bc8 f   MetpParserD:inffas32.obj
 0001:00016bd5       L_dodist                   10017bd5 f   MetpParserD:inffas32.obj
 0001:00016c04       L_add_bits_to_dist         10017c04 f   MetpParserD:inffas32.obj
 0001:00016c16       L_check_window             10017c16 f   MetpParserD:inffas32.obj
 0001:00016c54       L_check_dist_one           10017c54 f   MetpParserD:inffas32.obj
 0001:00016c7c       L_test_for_second_level_length 10017c7c f   MetpParserD:inffas32.obj
 0001:00016c9c       L_test_for_second_level_dist 10017c9c f   MetpParserD:inffas32.obj
 0001:00016cbc       L_clip_window              10017cbc f   MetpParserD:inffas32.obj
 0001:00016cfd       L_wrap_around_window       10017cfd f   MetpParserD:inffas32.obj
 0001:00016d31       L_contiguous_in_window     10017d31 f   MetpParserD:inffas32.obj
 0001:00016d45       L_do_copy1                 10017d45 f   MetpParserD:inffas32.obj
 0001:00016d54       L_init_mmx                 10017d54 f   MetpParserD:inffas32.obj
 0001:00016d74       L_do_loop_mmx              10017d74 f   MetpParserD:inffas32.obj
 0001:00016d8e       L_get_length_code_mmx      10017d8e f   MetpParserD:inffas32.obj
 0001:00016d9a       L_dolen_mmx                10017d9a f   MetpParserD:inffas32.obj
 0001:00016daa       L_while_test_mmx           10017daa f   MetpParserD:inffas32.obj
 0001:00016dbf       L_test_for_length_base_mmx 10017dbf f   MetpParserD:inffas32.obj
 0001:00016de5       L_decode_distance_mmx      10017de5 f   MetpParserD:inffas32.obj
 0001:00016dff       L_get_dist_code_mmx        10017dff f   MetpParserD:inffas32.obj
 0001:00016e0f       L_dodist_mmx               10017e0f f   MetpParserD:inffas32.obj
 0001:00016e29       L_add_bits_to_dist_mmx     10017e29 f   MetpParserD:inffas32.obj
 0001:00016e3d       L_check_window_mmx         10017e3d f   MetpParserD:inffas32.obj
 0001:00016e80       L_check_dist_one_mmx       10017e80 f   MetpParserD:inffas32.obj
 0001:00016eac       L_test_for_second_level_length_mmx 10017eac f   MetpParserD:inffas32.obj
 0001:00016ed0       L_test_for_second_level_dist_mmx 10017ed0 f   MetpParserD:inffas32.obj
 0001:00016ef8       L_clip_window_mmx          10017ef8 f   MetpParserD:inffas32.obj
 0001:00016f35       L_wrap_around_window_mmx   10017f35 f   MetpParserD:inffas32.obj
 0001:00016f65       L_contiguous_in_window_mmx 10017f65 f   MetpParserD:inffas32.obj
 0001:00016f75       L_do_copy1_mmx             10017f75 f   MetpParserD:inffas32.obj
 0001:00016f86       L_invalid_distance_code    10017f86 f   MetpParserD:inffas32.obj
 0001:00016f92       L_test_for_end_of_block    10017f92 f   MetpParserD:inffas32.obj
 0001:00016fa2       L_invalid_literal_length_code 10017fa2 f   MetpParserD:inffas32.obj
 0001:00016fae       L_invalid_distance_too_far 10017fae f   MetpParserD:inffas32.obj
 0001:00016fbe       L_update_stream_state      10017fbe f   MetpParserD:inffas32.obj
 0001:00016fc9       L_skip_msg                 10017fc9 f   MetpParserD:inffas32.obj
 0001:00016fd0       L_break_loop               10017fd0 f   MetpParserD:inffas32.obj
 0001:00016fdb       L_update_next_in           10017fdb f   MetpParserD:inffas32.obj
 0001:00017014       L_buf_not_used             10018014 f   MetpParserD:inffas32.obj
 0001:0001702f       L_update_hold              1001802f f   MetpParserD:inffas32.obj
 0001:00017046       L_last_is_smaller          10018046 f   MetpParserD:inffas32.obj
 0001:00017050       L_fixup_out                10018050 f   MetpParserD:inffas32.obj
 0001:00017065       L_end_is_smaller           10018065 f   MetpParserD:inffas32.obj
 0001:00017072       L_done                     10018072 f   MetpParserD:inffas32.obj
 0001:0001c000       _time                      1001d000 f   WbersClientLibD:InetPost.obj
 0001:0001e180       _swprintf                  1001f180 f   LIBCMTD:wassert.obj
 0001:0001e3f0       ?CatchGuardHandler@@YA?AW4_EXCEPTION_DISPOSITION@@PAUEHExceptionRecord@@PAUCatchGuardRN@@PAX2@Z 1001f3f0 f   LIBCMTD:trnsctrl.obj
 0001:0001e530       ?TranslatorGuardHandler@@YA?AW4_EXCEPTION_DISPOSITION@@PAUEHExceptionRecord@@PAUTranslatorGuardRN@@PAX2@Z 1001f530 f   LIBCMTD:trnsctrl.obj
 0001:00020550       _cmpBYTE                   10021550 f   LIBCMTD:memcmp.obj
 0001:00020580       _cmpResult                 10021580 f   LIBCMTD:memcmp.obj
 0001:000205a0       _unaligned_memcmp          100215a0 f   LIBCMTD:memcmp.obj
 0001:00020cb0       _cmpWORD                   10021cb0 f   LIBCMTD:memcmp.obj
 0001:00020d30       _cmpDWORD                  10021d30 f   LIBCMTD:memcmp.obj
 0001:00021540       _realloc_help              10022540 f   LIBCMTD:dbgheap.obj
 0001:00022610       _CheckBytes                10023610 f   LIBCMTD:dbgheap.obj
 0001:00023590       ?_CrtMemDumpAllObjectsSince_stat@@YAXPBU_CrtMemState@@PAUlocaleinfo_struct@@@Z 10024590 f   LIBCMTD:dbgheap.obj
 0001:000238a0       __printMemBlockData        100248a0 f   LIBCMTD:dbgheap.obj
 0001:00024f70       ___DllMainCRTStartup       10025f70 f   LIBCMTD:dllcrt0.obj
 0001:000253d0       _xtoa@16                   100263d0 f   LIBCMTD:xtoa.obj
 0001:00025550       @x64toa@20                 10026550 f   LIBCMTD:xtoa.obj
 0001:00025b10       ?strtoxl@@YAKPAUlocaleinfo_struct@@PBDPAPBDHH@Z 10026b10 f   LIBCMTD:strtol.obj
 0001:000262a0       ?DebuggerProbe@@YAHK@Z     100272a0 f   LIBCMTD:error.obj
 0001:00026380       ?failwithmessage@@YAXPAXHHPBD@Z 10027380 f   LIBCMTD:error.obj
 0001:000265c0       ?DebuggerRuntime@@YAHKHPAXPB_W@Z 100275c0 f   LIBCMTD:error.obj
 0001:000268c0       ?_getMemBlockDataString@@YAXPAD00I@Z 100278c0 f   LIBCMTD:error.obj
 0001:00026ca0       __onexit_nolock            10027ca0 f   LIBCMTD:onexit.obj
 0001:00027fc0       _doexit                    10028fc0 f   LIBCMTD:crt0dat.obj
 0001:00028240       __initterm                 10029240 f   LIBCMTD:crt0dat.obj
 0001:00028d20       _ctrlevent_capture@4       10029d20 f   LIBCMTD:winsig.obj
 0001:00029120       _siglookup                 1002a120 f   LIBCMTD:winsig.obj
 0001:000294c0       _xtow_s@20                 1002a4c0 f   LIBCMTD:xtows.obj
 0001:000298f0       @x64tow_s@24               1002a8f0 f   LIBCMTD:xtows.obj
 0001:0002ae20       _flsall                    1002be20 f   LIBCMTD:fflush.obj
 0001:0002d0b0       ?wcsncnt@@YAIPB_WI@Z       1002e0b0 f   LIBCMTD:wcstombs.obj
 0001:0002df70       ?FindHandler@@YAXPAUEHExceptionRecord@@PAUEHRegistrationNode@@PAU_CONTEXT@@PAXPBU_s_FuncInfo@@EH1@Z 1002ef70 f   LIBCMTD:frame.obj
 0001:0002e4c0       ?FindHandlerForForeignException@@YAXPAUEHExceptionRecord@@PAUEHRegistrationNode@@PAU_CONTEXT@@PAXPBU_s_FuncInfo@@HH1@Z 1002f4c0 f   LIBCMTD:frame.obj
 0001:0002e8e0       ?CatchIt@@YAXPAUEHExceptionRecord@@PAUEHRegistrationNode@@PAU_CONTEXT@@PAXPBU_s_FuncInfo@@PBU_s_HandlerType@@PBU_s_CatchableType@@PBU_s_TryBlockMapEntry@@H1E@Z 1002f8e0 f   LIBCMTD:frame.obj
 0001:0002e9a0       ?CallCatchBlock@@YAPAXPAUEHExceptionRecord@@PAUEHRegistrationNode@@PAU_CONTEXT@@PBU_s_FuncInfo@@PAXHK@Z 1002f9a0 f   LIBCMTD:frame.obj
 0001:0002ec30       ?ExFilterRethrow@@YAHPAU_EXCEPTION_POINTERS@@@Z 1002fc30 f   LIBCMTD:frame.obj
 0001:0002f870       ?IsInExceptionSpec@@YAEPAUEHExceptionRecord@@PBU_s_ESTypeList@@@Z 10030870 f   LIBCMTD:frame.obj
 0001:0002f930       ?CallUnexpected@@YAXPBU_s_ESTypeList@@@Z 10030930 f   LIBCMTD:frame.obj
 0001:0002f97c       __catch$?CallUnexpected@@YAXPBU_s_ESTypeList@@@Z$0 1003097c f   LIBCMTD:frame.obj
 0001:0002f9c0       ?Is_bad_exception_allowed@@YAEPBU_s_ESTypeList@@@Z 100309c0 f   LIBCMTD:frame.obj
 0001:0002fbe0       __use_encode_pointer       10030be0 f   LIBCMTD:tidtable.obj
 0001:00030700       _fastzero_I                10031700 f   LIBCMTD:p4_memset.obj
 0001:00031e30       _write_char                10032e30 f   LIBCMTD:output.obj
 0001:00031ed0       _write_multi_char          10032ed0 f   LIBCMTD:output.obj
 0001:00031f10       _write_string              10032f10 f   LIBCMTD:output.obj
 0001:00033e10       _ValidateLocalCookies      10034e10 f   LIBCMTD:chandler4.obj
 0001:00038070       ?getSystemCP@@YAHH@Z       10039070 f   LIBCMTD:mbctype.obj
 0001:000384d0       ?CPtoLCID@@YAHH@Z          100394d0 f   LIBCMTD:mbctype.obj
 0001:00038550       ?setSBCS@@YAXPAUthreadmbcinfostruct@@@Z 10039550 f   LIBCMTD:mbctype.obj
 0001:00038630       ?setSBUpLow@@YAXPAUthreadmbcinfostruct@@@Z 10039630 f   LIBCMTD:mbctype.obj
 0001:00039030       __updatetlocinfoEx_nolock  1003a030 f   LIBCMTD:setlocal.obj
 0001:00039560       __copytlocinfo_nolock      1003a560 f   LIBCMTD:setlocal.obj
 0001:00039940       _sync_legacy_variables_lk  1003a940 f   LIBCMTD:setlocal.obj
 0001:000399c0       __setlocale_nolock         1003a9c0 f   LIBCMTD:setlocal.obj
 0001:00039db0       __setlocale_set_cat        1003adb0 f   LIBCMTD:setlocal.obj
 0001:0003a2e0       __setlocale_get_all        1003b2e0 f   LIBCMTD:setlocal.obj
 0001:0003b250       _fastcopy_I                1003c250 f   LIBCMTD:p4_memcpy.obj
 0001:0003bad0       _parse_cmdline             1003cad0 f   LIBCMTD:stdargv.obj
 0001:0003c3a0       _xcptlookup                1003d3a0 f   LIBCMTD:winxfltr.obj
 0001:0003c450       ?strtoxq@@YA_KPAUlocaleinfo_struct@@PBDPAPBDHH@Z 1003d450 f   LIBCMTD:strtoq.obj
 0001:0003cf60       __cftoe2_l                 1003df60 f   LIBCMTD:cvt.obj
 0001:0003dcf0       __cftof2_l                 1003ecf0 f   LIBCMTD:cvt.obj
 0001:0003e2c0       __shift                    1003f2c0 f   LIBCMTD:cvt.obj
 0001:0003e9c0       ?GetPdbDll@@YAPAUHINSTANCE__@@XZ 1003f9c0 f   LIBCMTD:pdblkup.obj
 0001:0003ffe0       _write_char                10040fe0 f   LIBCMTD:outputs.obj
 0001:00040080       _write_multi_char          10041080 f   LIBCMTD:outputs.obj
 0001:000400c0       _write_string              100410c0 f   LIBCMTD:outputs.obj
 0001:00043e50       _write_char                10044e50 f   LIBCMTD:outputp.obj
 0001:00043ef0       _write_multi_char          10044ef0 f   LIBCMTD:outputp.obj
 0001:00043f30       _write_string              10044f30 f   LIBCMTD:outputp.obj
 0001:00044b30       ___crtInitCritSecNoSpinCount@8 10045b30 f   LIBCMTD:initcrit.obj
 0001:00046cb0       _write_char                10047cb0 f   LIBCMTD:woutput.obj
 0001:00046d10       _write_multi_char          10047d10 f   LIBCMTD:woutput.obj
 0001:00046d50       _write_string              10047d50 f   LIBCMTD:woutput.obj
 0001:00047510       _xtoa_s@20                 10048510 f   LIBCMTD:xtoas.obj
 0001:00047920       @x64toa_s@24               10048920 f   LIBCMTD:xtoas.obj
 0001:00049300       _write_char                1004a300 f   LIBCMTD:woutputs.obj
 0001:00049360       _write_multi_char          1004a360 f   LIBCMTD:woutputs.obj
 0001:000493a0       _write_string              1004a3a0 f   LIBCMTD:woutputs.obj
 0001:0004ccc0       _write_char                1004dcc0 f   LIBCMTD:woutputp.obj
 0001:0004cd20       _write_multi_char          1004dd20 f   LIBCMTD:woutputp.obj
 0001:0004cd60       _write_string              1004dd60 f   LIBCMTD:woutputp.obj
 0001:0004ce70       __unwind_handler           1004de70 f   LIBCMTD:exsup.obj
 0001:0004d000       _has_osfxsr_set            1004e000 f   LIBCMTD:cpu_disp.obj
 0001:0004e844       __unwind_handler4          1004f844 f   LIBCMTD:exsup4.obj
 0001:000581d0       ?und_strlen@@YAIPBD@Z      100591d0 f   LIBCMTD:undname.obj
 0001:00058210       ?und_strncpy@@YAPADPADPBDI@Z 10059210 f   LIBCMTD:undname.obj
 0001:00058260       ?und_strncmp@@YAIPBD0I@Z   10059260 f   LIBCMTD:undname.obj
 0001:00058320       ?__crtLCMapStringA_stat@@YAHPAUlocaleinfo_struct@@KKPBDHPADHHH@Z 10059320 f   LIBCMTD:a_map.obj
 0001:000588b0       ?strncnt@@YAHPBDH@Z        100598b0 f   LIBCMTD:a_map.obj
 0001:00058960       ?__crtGetStringTypeA_stat@@YAHPAUlocaleinfo_struct@@KPBDHPAGHHH@Z 10059960 f   LIBCMTD:a_str.obj
 0001:00058ce0       __get_lc_time              10059ce0 f   LIBCMTD:inittime.obj
 0001:000598f0       _fix_grouping              1005a8f0 f   LIBCMTD:initnum.obj
 0001:00059e60       _fix_grouping              1005ae60 f   LIBCMTD:initmon.obj
 0001:0005b4f0       ?_expandtime@@YAHPAUlocaleinfo_struct@@DPBUtm@@PAPADPAIPAU__lc_time_data@@I@Z 1005c4f0 f   LIBCMTD:strftime.obj
 0001:0005c4b0       ?_store_str@@YAXPADPAPADPAI@Z 1005d4b0 f   LIBCMTD:strftime.obj
 0001:0005c500       ?_store_num@@YAXHHPAPADPAII@Z 1005d500 f   LIBCMTD:strftime.obj
 0001:0005c5b0       ?_store_number@@YAXHPAPADPAI@Z 1005d5b0 f   LIBCMTD:strftime.obj
 0001:0005c660       ?_store_winword@@YAHPAUlocaleinfo_struct@@HPBUtm@@PAPADPAIPAU__lc_time_data@@@Z 1005d660 f   LIBCMTD:strftime.obj
 0001:0005d600       _TranslateName             1005e600 f   LIBCMTD:getqloc.obj
 0001:0005d690       _GetLcidFromLangCountry    1005e690 f   LIBCMTD:getqloc.obj
 0001:0005d750       _LangCountryEnumProc@4     1005e750 f   LIBCMTD:getqloc.obj
 0001:0005db90       _GetLcidFromLanguage       1005eb90 f   LIBCMTD:getqloc.obj
 0001:0005dc10       _LanguageEnumProc@4        1005ec10 f   LIBCMTD:getqloc.obj
 0001:0005ddb0       _GetLcidFromCountry        1005edb0 f   LIBCMTD:getqloc.obj
 0001:0005de00       _CountryEnumProc@4         1005ee00 f   LIBCMTD:getqloc.obj
 0001:0005df00       _GetLcidFromDefault        1005ef00 f   LIBCMTD:getqloc.obj
 0001:0005df30       _ProcessCodePage           1005ef30 f   LIBCMTD:getqloc.obj
 0001:0005dfe0       _TestDefaultCountry        1005efe0 f   LIBCMTD:getqloc.obj
 0001:0005e030       _TestDefaultLanguage       1005f030 f   LIBCMTD:getqloc.obj
 0001:0005e0d0       _LcidFromHexString         1005f0d0 f   LIBCMTD:getqloc.obj
 0001:0005e150       _GetPrimaryLen             1005f150 f   LIBCMTD:getqloc.obj
 0001:0005e4d0       ?x_ismbbtype_l@@YAHPAUlocaleinfo_struct@@IHH@Z 1005f4d0 f   LIBCMTD:ismbbyte.obj
 0001:00061990       ?__crtGetLocaleInfoW_stat@@YAHPAUlocaleinfo_struct@@KKPA_WHH@Z 10062990 f   LIBCMTD:w_loc.obj
 0001:00061b60       ?__crtGetLocaleInfoA_stat@@YAHPAUlocaleinfo_struct@@KKPADHH@Z 10062b60 f   LIBCMTD:a_loc.obj
 0001:000644c0       ?wcstoxl@@YAKPAUlocaleinfo_struct@@PB_WPAPB_WHH@Z 100654c0 f   LIBCMTD:wcstol.obj
 0001:00065400       __tzset_nolock             10066400 f   LIBCMTD:tzset.obj
 0001:000659e0       __isindst_nolock           100669e0 f   LIBCMTD:tzset.obj
 0001:00065cf0       _cvtdate                   10066cf0 f   LIBCMTD:tzset.obj
 0001:000669f0       __abstract_cw              100679f0 f   LIBCMTD:ieee87.obj
 0001:00066b40       __hw_cw                    10067b40 f   LIBCMTD:ieee87.obj
 0001:00066ca0       __abstract_sw              10067ca0 f   LIBCMTD:ieee87.obj
 0001:00066d30       ___statusfp_sse2           10067d30 f   LIBCMTD:ieee87.obj
 0001:00066d50       ___clearfp_sse2            10067d50 f   LIBCMTD:ieee87.obj
 0001:00066d70       ___control87_sse2          10067d70 f   LIBCMTD:ieee87.obj
 0001:00066df0       ___abstract_cw_sse2        10067df0 f   LIBCMTD:ieee87.obj
 0001:00066f40       ___hw_cw_sse2              10067f40 f   LIBCMTD:ieee87.obj
 0001:00067090       ___abstract_sw_sse2        10068090 f   LIBCMTD:ieee87.obj
 0001:00067120       ___fpreset_sse2            10068120 f   LIBCMTD:ieee87.obj
 0001:00068110       ?__crtGetStringTypeW_stat@@YAHPAUlocaleinfo_struct@@KPB_WHPAGHH@Z 10069110 f   LIBCMTD:w_str.obj
 0001:000686c0       __getenv_s_helper          100696c0 f   LIBCMTD:getenv.obj
 0001:00068920       __dupenv_s_helper          10069920 f   LIBCMTD:getenv.obj
 0001:00069230       ?__crtCompareStringA_stat@@YAHPAUlocaleinfo_struct@@KKPBDH1HH@Z 1006a230 f   LIBCMTD:a_cmp.obj
 0001:00069740       ?strncnt@@YAHPBDH@Z        1006a740 f   LIBCMTD:a_cmp.obj
 0001:00069f00       _findenv                   1006af00 f   LIBCMTD:setenv.obj
 0001:00069f80       _copy_environ              1006af80 f   LIBCMTD:setenv.obj
 0001:0006afe0       __unwindfunclet$?HanReportInitGameString@@YGHPAD_N@Z$0 1006bfe0 f   HanReportForClientImpl.obj
 0001:0006afe8       __ehhandler$?HanReportInitGameString@@YGHPAD_N@Z 1006bfe8 f   HanReportForClientImpl.obj
 0001:0006b010       __unwindfunclet$?HanReportInit@@YGHPADH_N@Z$0 1006c010 f   HanReportForClientImpl.obj
 0001:0006b01b       __unwindfunclet$?HanReportInit@@YGHPADH_N@Z$1 1006c01b f   HanReportForClientImpl.obj
 0001:0006b026       __unwindfunclet$?HanReportInit@@YGHPADH_N@Z$2 1006c026 f   HanReportForClientImpl.obj
 0001:0006b031       __unwindfunclet$?HanReportInit@@YGHPADH_N@Z$3 1006c031 f   HanReportForClientImpl.obj
 0001:0006b03c       __unwindfunclet$?HanReportInit@@YGHPADH_N@Z$4 1006c03c f   HanReportForClientImpl.obj
 0001:0006b047       __unwindfunclet$?HanReportInit@@YGHPADH_N@Z$5 1006c047 f   HanReportForClientImpl.obj
 0001:0006b052       __unwindfunclet$?HanReportInit@@YGHPADH_N@Z$6 1006c052 f   HanReportForClientImpl.obj
 0001:0006b05d       __unwindfunclet$?HanReportInit@@YGHPADH_N@Z$7 1006c05d f   HanReportForClientImpl.obj
 0001:0006b068       __unwindfunclet$?HanReportInit@@YGHPADH_N@Z$8 1006c068 f   HanReportForClientImpl.obj
 0001:0006b073       __unwindfunclet$?HanReportInit@@YGHPADH_N@Z$9 1006c073 f   HanReportForClientImpl.obj
 0001:0006b07e       __unwindfunclet$?HanReportInit@@YGHPADH_N@Z$10 1006c07e f   HanReportForClientImpl.obj
 0001:0006b089       __unwindfunclet$?HanReportInit@@YGHPADH_N@Z$11 1006c089 f   HanReportForClientImpl.obj
 0001:0006b094       __unwindfunclet$?HanReportInit@@YGHPADH_N@Z$12 1006c094 f   HanReportForClientImpl.obj
 0001:0006b09f       __unwindfunclet$?HanReportInit@@YGHPADH_N@Z$13 1006c09f f   HanReportForClientImpl.obj
 0001:0006b0aa       __unwindfunclet$?HanReportInit@@YGHPADH_N@Z$14 1006c0aa f   HanReportForClientImpl.obj
 0001:0006b0b5       __unwindfunclet$?HanReportInit@@YGHPADH_N@Z$15 1006c0b5 f   HanReportForClientImpl.obj
 0001:0006b0c0       __unwindfunclet$?HanReportInit@@YGHPADH_N@Z$16 1006c0c0 f   HanReportForClientImpl.obj
 0001:0006b0cb       __unwindfunclet$?HanReportInit@@YGHPADH_N@Z$17 1006c0cb f   HanReportForClientImpl.obj
 0001:0006b0d6       __unwindfunclet$?HanReportInit@@YGHPADH_N@Z$18 1006c0d6 f   HanReportForClientImpl.obj
 0001:0006b0e1       __unwindfunclet$?HanReportInit@@YGHPADH_N@Z$19 1006c0e1 f   HanReportForClientImpl.obj
 0001:0006b0ec       __unwindfunclet$?HanReportInit@@YGHPADH_N@Z$20 1006c0ec f   HanReportForClientImpl.obj
 0001:0006b0f7       __unwindfunclet$?HanReportInit@@YGHPADH_N@Z$21 1006c0f7 f   HanReportForClientImpl.obj
 0001:0006b102       __unwindfunclet$?HanReportInit@@YGHPADH_N@Z$22 1006c102 f   HanReportForClientImpl.obj
 0001:0006b10d       __unwindfunclet$?HanReportInit@@YGHPADH_N@Z$23 1006c10d f   HanReportForClientImpl.obj
 0001:0006b118       __unwindfunclet$?HanReportInit@@YGHPADH_N@Z$24 1006c118 f   HanReportForClientImpl.obj
 0001:0006b123       __unwindfunclet$?HanReportInit@@YGHPADH_N@Z$25 1006c123 f   HanReportForClientImpl.obj
 0001:0006b12e       __unwindfunclet$?HanReportInit@@YGHPADH_N@Z$26 1006c12e f   HanReportForClientImpl.obj
 0001:0006b139       __ehhandler$?HanReportInit@@YGHPADH_N@Z 1006c139 f   HanReportForClientImpl.obj
 0001:0006b170       __unwindfunclet$?HanReportSendSync@@YAHPAD0@Z$0 1006c170 f   HanReportForClientImpl.obj
 0001:0006b17b       __unwindfunclet$?HanReportSendSync@@YAHPAD0@Z$1 1006c17b f   HanReportForClientImpl.obj
 0001:0006b183       __ehhandler$?HanReportSendSync@@YAHPAD0@Z 1006c183 f   HanReportForClientImpl.obj
 0001:0006b1b0       __unwindfunclet$?HanReportSendPosLogSync@@YGHPAD@Z$0 1006c1b0 f   HanReportForClientImpl.obj
 0001:0006b1b8       __unwindfunclet$?HanReportSendPosLogSync@@YGHPAD@Z$1 1006c1b8 f   HanReportForClientImpl.obj
 0001:0006b1c0       __unwindfunclet$?HanReportSendPosLogSync@@YGHPAD@Z$2 1006c1c0 f   HanReportForClientImpl.obj
 0001:0006b1cb       __unwindfunclet$?HanReportSendPosLogSync@@YGHPAD@Z$3 1006c1cb f   HanReportForClientImpl.obj
 0001:0006b1d6       __unwindfunclet$?HanReportSendPosLogSync@@YGHPAD@Z$4 1006c1d6 f   HanReportForClientImpl.obj
 0001:0006b1e1       __ehhandler$?HanReportSendPosLogSync@@YGHPAD@Z 1006c1e1 f   HanReportForClientImpl.obj
 0001:0006b210       __unwindfunclet$?HanReportSendPosLog@@YGHPAD@Z$0 1006c210 f   HanReportForClientImpl.obj
 0001:0006b218       __unwindfunclet$?HanReportSendPosLog@@YGHPAD@Z$1 1006c218 f   HanReportForClientImpl.obj
 0001:0006b220       __unwindfunclet$?HanReportSendPosLog@@YGHPAD@Z$2 1006c220 f   HanReportForClientImpl.obj
 0001:0006b22b       __unwindfunclet$?HanReportSendPosLog@@YGHPAD@Z$3 1006c22b f   HanReportForClientImpl.obj
 0001:0006b236       __unwindfunclet$?HanReportSendPosLog@@YGHPAD@Z$4 1006c236 f   HanReportForClientImpl.obj
 0001:0006b241       __ehhandler$?HanReportSendPosLog@@YGHPAD@Z 1006c241 f   HanReportForClientImpl.obj
 0001:0006b270       __unwindfunclet$?HanReportSend@@YGHPAD0@Z$0 1006c270 f   HanReportForClientImpl.obj
 0001:0006b27b       __unwindfunclet$?HanReportSend@@YGHPAD0@Z$1 1006c27b f   HanReportForClientImpl.obj
 0001:0006b283       __ehhandler$?HanReportSend@@YGHPAD0@Z 1006c283 f   HanReportForClientImpl.obj
 0001:0006b2b0       __unwindfunclet$?HanReportGetNationCode@@YGHPADPAH@Z$0 1006c2b0 f   HanReportForClientImpl.obj
 0001:0006b2b8       __ehhandler$?HanReportGetNationCode@@YGHPADPAH@Z 1006c2b8 f   HanReportForClientImpl.obj
 0001:0006b2e0       __unwindfunclet$?HanReportGetServiceTypeCode@@YGHPADPAH@Z$0 1006c2e0 f   HanReportForClientImpl.obj
 0001:0006b2e8       __ehhandler$?HanReportGetServiceTypeCode@@YGHPADPAH@Z 1006c2e8 f   HanReportForClientImpl.obj
 0001:0006b310       __unwindfunclet$?HanReportGetSiteCode@@YGHPADPAH@Z$0 1006c310 f   HanReportForClientImpl.obj
 0001:0006b318       __ehhandler$?HanReportGetSiteCode@@YGHPADPAH@Z 1006c318 f   HanReportForClientImpl.obj
 0001:0006b340       __unwindfunclet$?HanReportConvertMD5@@YGHPAD0@Z$0 1006c340 f   HanReportForClientImpl.obj
 0001:0006b34b       __ehhandler$?HanReportConvertMD5@@YGHPAD0@Z 1006c34b f   HanReportForClientImpl.obj
 0001:0006b380       __unwindfunclet$??0?$basic_string@DU?$char_traits@D@std@@V?$allocator@D@2@@std@@QAE@XZ$0 1006c380 f   HanReportForClientImpl.obj
 0001:0006b388       __ehhandler$??0?$basic_string@DU?$char_traits@D@std@@V?$allocator@D@2@@std@@QAE@XZ 1006c388 f   HanReportForClientImpl.obj
 0001:0006b3b0       __unwindfunclet$??0?$basic_string@DU?$char_traits@D@std@@V?$allocator@D@2@@std@@QAE@PBD@Z$0 1006c3b0 f   HanReportForClientImpl.obj
 0001:0006b3b8       __ehhandler$??0?$basic_string@DU?$char_traits@D@std@@V?$allocator@D@2@@std@@QAE@PBD@Z 1006c3b8 f   HanReportForClientImpl.obj
 0001:0006b3e0       __unwindfunclet$??1?$basic_string@DU?$char_traits@D@std@@V?$allocator@D@2@@std@@QAE@XZ$0 1006c3e0 f   HanReportForClientImpl.obj
 0001:0006b3e8       __ehhandler$??1?$basic_string@DU?$char_traits@D@std@@V?$allocator@D@2@@std@@QAE@XZ 1006c3e8 f   HanReportForClientImpl.obj
 0001:0006b410       __ehhandler$?_Copy@?$basic_string@DU?$char_traits@D@std@@V?$allocator@D@2@@std@@IAEXII@Z 1006c410 f   HanReportForClientImpl.obj
 0001:0006b430       __unwindfunclet$??0CMetpParser@hgx@@QAE@XZ$0 1006c430 f   MetpParserD:MetpParser.obj
 0001:0006b43b       __ehhandler$??0CMetpParser@hgx@@QAE@XZ 1006c43b f   MetpParserD:MetpParser.obj
 0001:0006b460       __unwindfunclet$??0CMetpParser@hgx@@QAE@PBDH0@Z$0 1006c460 f   MetpParserD:MetpParser.obj
 0001:0006b46b       __ehhandler$??0CMetpParser@hgx@@QAE@PBDH0@Z 1006c46b f   MetpParserD:MetpParser.obj
 0001:0006b490       __unwindfunclet$??0CMetpParser@hgx@@QAE@PBD00H0G@Z$0 1006c490 f   MetpParserD:MetpParser.obj
 0001:0006b49b       __ehhandler$??0CMetpParser@hgx@@QAE@PBD00H0G@Z 1006c49b f   MetpParserD:MetpParser.obj
 0001:0006b4c0       __unwindfunclet$??0CMetpParser@hgx@@QAE@AAV01@@Z$0 1006c4c0 f   MetpParserD:MetpParser.obj
 0001:0006b4cb       __ehhandler$??0CMetpParser@hgx@@QAE@AAV01@@Z 1006c4cb f   MetpParserD:MetpParser.obj
 0001:0006b4f0       __unwindfunclet$??4CMetpParser@hgx@@QAEAAV01@AAV01@@Z$0 1006c4f0 f   MetpParserD:MetpParser.obj
 0001:0006b4f8       __unwindfunclet$??4CMetpParser@hgx@@QAEAAV01@AAV01@@Z$1 1006c4f8 f   MetpParserD:MetpParser.obj
 0001:0006b503       __ehhandler$??4CMetpParser@hgx@@QAEAAV01@AAV01@@Z 1006c503 f   MetpParserD:MetpParser.obj
 0001:0006b530       __unwindfunclet$??1_Iterator_base@std@@QAE@XZ$0 1006c530 f   MetpParserD:MetpParser.obj
 0001:0006b538       __ehhandler$??1_Iterator_base@std@@QAE@XZ 1006c538 f   MetpParserD:MetpParser.obj
 0001:0006b560       __unwindfunclet$??1CMetpParser@hgx@@UAE@XZ$0 1006c560 f   MetpParserD:MetpParser.obj
 0001:0006b56b       __ehhandler$??1CMetpParser@hgx@@UAE@XZ 1006c56b f   MetpParserD:MetpParser.obj
 0001:0006b590       __unwindfunclet$?IsExistKey@CMetpParser@hgx@@QAE_NPBD@Z$0 1006c590 f   MetpParserD:MetpParser.obj
 0001:0006b59b       __unwindfunclet$?IsExistKey@CMetpParser@hgx@@QAE_NPBD@Z$1 1006c59b f   MetpParserD:MetpParser.obj
 0001:0006b5a6       __unwindfunclet$?IsExistKey@CMetpParser@hgx@@QAE_NPBD@Z$2 1006c5a6 f   MetpParserD:MetpParser.obj
 0001:0006b5b1       __ehhandler$?IsExistKey@CMetpParser@hgx@@QAE_NPBD@Z 1006c5b1 f   MetpParserD:MetpParser.obj
 0001:0006b5d0       __unwindfunclet$?AddValue@CMetpParser@hgx@@QAE_NPBDH@Z$0 1006c5d0 f   MetpParserD:MetpParser.obj
 0001:0006b5db       __unwindfunclet$?AddValue@CMetpParser@hgx@@QAE_NPBDH@Z$1 1006c5db f   MetpParserD:MetpParser.obj
 0001:0006b5e3       __ehhandler$?AddValue@CMetpParser@hgx@@QAE_NPBDH@Z 1006c5e3 f   MetpParserD:MetpParser.obj
 0001:0006b610       __unwindfunclet$?AddValue@CMetpParser@hgx@@QAE_NPBDI@Z$0 1006c610 f   MetpParserD:MetpParser.obj
 0001:0006b61b       __unwindfunclet$?AddValue@CMetpParser@hgx@@QAE_NPBDI@Z$1 1006c61b f   MetpParserD:MetpParser.obj
 0001:0006b623       __ehhandler$?AddValue@CMetpParser@hgx@@QAE_NPBDI@Z 1006c623 f   MetpParserD:MetpParser.obj
 0001:0006b650       __unwindfunclet$?AddValue@CMetpParser@hgx@@QAE_NPBD_J@Z$0 1006c650 f   MetpParserD:MetpParser.obj
 0001:0006b65b       __unwindfunclet$?AddValue@CMetpParser@hgx@@QAE_NPBD_J@Z$1 1006c65b f   MetpParserD:MetpParser.obj
 0001:0006b663       __ehhandler$?AddValue@CMetpParser@hgx@@QAE_NPBD_J@Z 1006c663 f   MetpParserD:MetpParser.obj
 0001:0006b690       __unwindfunclet$?AddValue@CMetpParser@hgx@@QAE_NPBD_K@Z$0 1006c690 f   MetpParserD:MetpParser.obj
 0001:0006b69b       __unwindfunclet$?AddValue@CMetpParser@hgx@@QAE_NPBD_K@Z$1 1006c69b f   MetpParserD:MetpParser.obj
 0001:0006b6a3       __ehhandler$?AddValue@CMetpParser@hgx@@QAE_NPBD_K@Z 1006c6a3 f   MetpParserD:MetpParser.obj
 0001:0006b6d0       __unwindfunclet$?AddValue@CMetpParser@hgx@@QAE_NPBDG@Z$0 1006c6d0 f   MetpParserD:MetpParser.obj
 0001:0006b6db       __unwindfunclet$?AddValue@CMetpParser@hgx@@QAE_NPBDG@Z$1 1006c6db f   MetpParserD:MetpParser.obj
 0001:0006b6e3       __ehhandler$?AddValue@CMetpParser@hgx@@QAE_NPBDG@Z 1006c6e3 f   MetpParserD:MetpParser.obj
 0001:0006b710       __unwindfunclet$?AddValue@CMetpParser@hgx@@QAE_NPBDN@Z$0 1006c710 f   MetpParserD:MetpParser.obj
 0001:0006b71b       __unwindfunclet$?AddValue@CMetpParser@hgx@@QAE_NPBDN@Z$1 1006c71b f   MetpParserD:MetpParser.obj
 0001:0006b726       __ehhandler$?AddValue@CMetpParser@hgx@@QAE_NPBDN@Z 1006c726 f   MetpParserD:MetpParser.obj
 0001:0006b750       __unwindfunclet$?AddValue@CMetpParser@hgx@@QAE_NPBD0@Z$0 1006c750 f   MetpParserD:MetpParser.obj
 0001:0006b75b       __unwindfunclet$?AddValue@CMetpParser@hgx@@QAE_NPBD0@Z$1 1006c75b f   MetpParserD:MetpParser.obj
 0001:0006b763       __ehhandler$?AddValue@CMetpParser@hgx@@QAE_NPBD0@Z 1006c763 f   MetpParserD:MetpParser.obj
 0001:0006b790       __unwindfunclet$?GetValue@CMetpParser@hgx@@QAE_NPBDAAPADAAH@Z$0 1006c790 f   MetpParserD:MetpParser.obj
 0001:0006b79b       __unwindfunclet$?GetValue@CMetpParser@hgx@@QAE_NPBDAAPADAAH@Z$1 1006c79b f   MetpParserD:MetpParser.obj
 0001:0006b7a3       __unwindfunclet$?GetValue@CMetpParser@hgx@@QAE_NPBDAAPADAAH@Z$2 1006c7a3 f   MetpParserD:MetpParser.obj
 0001:0006b7ae       __ehhandler$?GetValue@CMetpParser@hgx@@QAE_NPBDAAPADAAH@Z 1006c7ae f   MetpParserD:MetpParser.obj
 0001:0006b7d0       __unwindfunclet$?SetValue@CMetpParser@hgx@@QAE_NPBDH@Z$0 1006c7d0 f   MetpParserD:MetpParser.obj
 0001:0006b7db       __unwindfunclet$?SetValue@CMetpParser@hgx@@QAE_NPBDH@Z$1 1006c7db f   MetpParserD:MetpParser.obj
 0001:0006b7e3       __unwindfunclet$?SetValue@CMetpParser@hgx@@QAE_NPBDH@Z$2 1006c7e3 f   MetpParserD:MetpParser.obj
 0001:0006b7ee       __ehhandler$?SetValue@CMetpParser@hgx@@QAE_NPBDH@Z 1006c7ee f   MetpParserD:MetpParser.obj
 0001:0006b820       __unwindfunclet$?SetValue@CMetpParser@hgx@@QAE_NPBDI@Z$0 1006c820 f   MetpParserD:MetpParser.obj
 0001:0006b82b       __unwindfunclet$?SetValue@CMetpParser@hgx@@QAE_NPBDI@Z$1 1006c82b f   MetpParserD:MetpParser.obj
 0001:0006b833       __unwindfunclet$?SetValue@CMetpParser@hgx@@QAE_NPBDI@Z$2 1006c833 f   MetpParserD:MetpParser.obj
 0001:0006b83e       __ehhandler$?SetValue@CMetpParser@hgx@@QAE_NPBDI@Z 1006c83e f   MetpParserD:MetpParser.obj
 0001:0006b870       __unwindfunclet$?SetValue@CMetpParser@hgx@@QAE_NPBD_J@Z$0 1006c870 f   MetpParserD:MetpParser.obj
 0001:0006b87b       __unwindfunclet$?SetValue@CMetpParser@hgx@@QAE_NPBD_J@Z$1 1006c87b f   MetpParserD:MetpParser.obj
 0001:0006b883       __unwindfunclet$?SetValue@CMetpParser@hgx@@QAE_NPBD_J@Z$2 1006c883 f   MetpParserD:MetpParser.obj
 0001:0006b88e       __ehhandler$?SetValue@CMetpParser@hgx@@QAE_NPBD_J@Z 1006c88e f   MetpParserD:MetpParser.obj
 0001:0006b8c0       __unwindfunclet$?SetValue@CMetpParser@hgx@@QAE_NPBD_K@Z$0 1006c8c0 f   MetpParserD:MetpParser.obj
 0001:0006b8cb       __unwindfunclet$?SetValue@CMetpParser@hgx@@QAE_NPBD_K@Z$1 1006c8cb f   MetpParserD:MetpParser.obj
 0001:0006b8d3       __unwindfunclet$?SetValue@CMetpParser@hgx@@QAE_NPBD_K@Z$2 1006c8d3 f   MetpParserD:MetpParser.obj
 0001:0006b8de       __ehhandler$?SetValue@CMetpParser@hgx@@QAE_NPBD_K@Z 1006c8de f   MetpParserD:MetpParser.obj
 0001:0006b910       __unwindfunclet$?SetValue@CMetpParser@hgx@@QAE_NPBDG@Z$0 1006c910 f   MetpParserD:MetpParser.obj
 0001:0006b91b       __unwindfunclet$?SetValue@CMetpParser@hgx@@QAE_NPBDG@Z$1 1006c91b f   MetpParserD:MetpParser.obj
 0001:0006b923       __unwindfunclet$?SetValue@CMetpParser@hgx@@QAE_NPBDG@Z$2 1006c923 f   MetpParserD:MetpParser.obj
 0001:0006b92e       __ehhandler$?SetValue@CMetpParser@hgx@@QAE_NPBDG@Z 1006c92e f   MetpParserD:MetpParser.obj
 0001:0006b960       __unwindfunclet$?SetValue@CMetpParser@hgx@@QAE_NPBDN@Z$0 1006c960 f   MetpParserD:MetpParser.obj
 0001:0006b96b       __unwindfunclet$?SetValue@CMetpParser@hgx@@QAE_NPBDN@Z$1 1006c96b f   MetpParserD:MetpParser.obj
 0001:0006b973       __unwindfunclet$?SetValue@CMetpParser@hgx@@QAE_NPBDN@Z$2 1006c973 f   MetpParserD:MetpParser.obj
 0001:0006b97e       __ehhandler$?SetValue@CMetpParser@hgx@@QAE_NPBDN@Z 1006c97e f   MetpParserD:MetpParser.obj
 0001:0006b9b0       __unwindfunclet$?SetValue@CMetpParser@hgx@@QAE_NPBD0@Z$0 1006c9b0 f   MetpParserD:MetpParser.obj
 0001:0006b9bb       __unwindfunclet$?SetValue@CMetpParser@hgx@@QAE_NPBD0@Z$1 1006c9bb f   MetpParserD:MetpParser.obj
 0001:0006b9c3       __unwindfunclet$?SetValue@CMetpParser@hgx@@QAE_NPBD0@Z$2 1006c9c3 f   MetpParserD:MetpParser.obj
 0001:0006b9ce       __ehhandler$?SetValue@CMetpParser@hgx@@QAE_NPBD0@Z 1006c9ce f   MetpParserD:MetpParser.obj
 0001:0006b9f0       __unwindfunclet$?DelKey@CMetpParser@hgx@@QAE_NPBD@Z$0 1006c9f0 f   MetpParserD:MetpParser.obj
 0001:0006b9fb       __unwindfunclet$?DelKey@CMetpParser@hgx@@QAE_NPBD@Z$1 1006c9fb f   MetpParserD:MetpParser.obj
 0001:0006ba03       __unwindfunclet$?DelKey@CMetpParser@hgx@@QAE_NPBD@Z$2 1006ca03 f   MetpParserD:MetpParser.obj
 0001:0006ba0e       __ehhandler$?DelKey@CMetpParser@hgx@@QAE_NPBD@Z 1006ca0e f   MetpParserD:MetpParser.obj
 0001:0006ba30       __unwindfunclet$??4_Iterator_base@std@@QAEAAV01@ABV01@@Z$0 1006ca30 f   MetpParserD:MetpParser.obj
 0001:0006ba38       __ehhandler$??4_Iterator_base@std@@QAEAAV01@ABV01@@Z 1006ca38 f   MetpParserD:MetpParser.obj
 0001:0006ba60       __unwindfunclet$?_Adopt@_Iterator_base@std@@QAEXPBV_Container_base@2@@Z$0 1006ca60 f   MetpParserD:MetpParser.obj
 0001:0006ba68       __ehhandler$?_Adopt@_Iterator_base@std@@QAEXPBV_Container_base@2@@Z 1006ca68 f   MetpParserD:MetpParser.obj
 0001:0006ba90       __unwindfunclet$?GetValue@CMetpParser@hgx@@QAE_NPBDAAPAD@Z$0 1006ca90 f   MetpParserD:MetpParser.obj
 0001:0006ba9b       __unwindfunclet$?GetValue@CMetpParser@hgx@@QAE_NPBDAAPAD@Z$1 1006ca9b f   MetpParserD:MetpParser.obj
 0001:0006baa3       __unwindfunclet$?GetValue@CMetpParser@hgx@@QAE_NPBDAAPAD@Z$2 1006caa3 f   MetpParserD:MetpParser.obj
 0001:0006baae       __ehhandler$?GetValue@CMetpParser@hgx@@QAE_NPBDAAPAD@Z 1006caae f   MetpParserD:MetpParser.obj
 0001:0006bad0       __unwindfunclet$?GetTextURL@CMetpParser@hgx@@IAE_NAAPADAAH@Z$0 1006cad0 f   MetpParserD:MetpParser.obj
 0001:0006bad8       __unwindfunclet$?GetTextURL@CMetpParser@hgx@@IAE_NAAPADAAH@Z$2 1006cad8 f   MetpParserD:MetpParser.obj
 0001:0006bae3       __ehhandler$?GetTextURL@CMetpParser@hgx@@IAE_NAAPADAAH@Z 1006cae3 f   MetpParserD:MetpParser.obj
 0001:0006bb10       __unwindfunclet$?GetTotalItemLen@CMetpParser@hgx@@IAEHXZ$0 1006cb10 f   MetpParserD:MetpParser.obj
 0001:0006bb18       __unwindfunclet$?GetTotalItemLen@CMetpParser@hgx@@IAEHXZ$2 1006cb18 f   MetpParserD:MetpParser.obj
 0001:0006bb23       __ehhandler$?GetTotalItemLen@CMetpParser@hgx@@IAEHXZ 1006cb23 f   MetpParserD:MetpParser.obj
 0001:0006bb50       __unwindfunclet$?UnZipMetp@CMetpParser@hgx@@IAE_NPAPAEPAKPAEK@Z$0 1006cb50 f   MetpParserD:MetpParser.obj
 0001:0006bb5b       __ehhandler$?UnZipMetp@CMetpParser@hgx@@IAE_NPAPAEPAKPAEK@Z 1006cb5b f   MetpParserD:MetpParser.obj
 0001:0006bb90       __unwindfunclet$?ZipMetp@CMetpParser@hgx@@IAE_NPAPAEPAKPAEK@Z$0 1006cb90 f   MetpParserD:MetpParser.obj
 0001:0006bb98       __ehhandler$?ZipMetp@CMetpParser@hgx@@IAE_NPAPAEPAKPAEK@Z 1006cb98 f   MetpParserD:MetpParser.obj
 0001:0006bbc0       __unwindfunclet$?Clear@CMetpParser@hgx@@QAEXXZ$0 1006cbc0 f   MetpParserD:MetpParser.obj
 0001:0006bbcb       __ehhandler$?Clear@CMetpParser@hgx@@QAEXXZ 1006cbcb f   MetpParserD:MetpParser.obj
 0001:0006bbf0       __unwindfunclet$?allocNewItemData@CMetpParser@hgx@@IAEPAVCItemData@12@PBDH@Z$0 1006cbf0 f   MetpParserD:MetpParser.obj
 0001:0006bbfe       __ehhandler$?allocNewItemData@CMetpParser@hgx@@IAEPAVCItemData@12@PBDH@Z 1006cbfe f   MetpParserD:MetpParser.obj
 0001:0006bc20       __unwindfunclet$?insertNewKey@CMetpParser@hgx@@IAE_NAAU?$pair@V?$basic_string@DU?$char_traits@D@std@@V?$allocator@D@2@@std@@PAVCItemData@CMetpParser@hgx@@@std@@@Z$0 1006cc20 f   MetpParserD:MetpParser.obj
 0001:0006bc2b       __ehhandler$?insertNewKey@CMetpParser@hgx@@IAE_NAAU?$pair@V?$basic_string@DU?$char_traits@D@std@@V?$allocator@D@2@@std@@PAVCItemData@CMetpParser@hgx@@@std@@@Z 1006cc2b f   MetpParserD:MetpParser.obj
 0001:0006bc50       __unwindfunclet$??1?$_Tree@V?$_Tmap_traits@V?$basic_string@DU?$char_traits@D@std@@V?$allocator@D@2@@std@@PAVCItemData@CMetpParser@hgx@@U?$less@V?$basic_string@DU?$char_traits@D@std@@V?$allocator@D@2@@std@@@2@V?$allocator@U?$pair@$$CBV?$basic_string@DU?$char_traits@D@std@@V?$allocator@D@2@@std@@PAVCItemData@CMetpParser@hgx@@@std@@@2@$0A@@std@@@std@@QAE@XZ$0 1006cc50 f   MetpParserD:MetpParser.obj
 0001:0006bc58       __ehhandler$??1?$_Tree@V?$_Tmap_traits@V?$basic_string@DU?$char_traits@D@std@@V?$allocator@D@2@@std@@PAVCItemData@CMetpParser@hgx@@U?$less@V?$basic_string@DU?$char_traits@D@std@@V?$allocator@D@2@@std@@@2@V?$allocator@U?$pair@$$CBV?$basic_string@DU?$char_traits@D@std@@V?$allocator@D@2@@std@@PAVCItemData@CMetpParser@hgx@@@std@@@2@$0A@@std@@@std@@QAE@XZ 1006cc58 f   MetpParserD:MetpParser.obj
 0001:0006bc80       __unwindfunclet$?insert@?$_Tree@V?$_Tmap_traits@V?$basic_string@DU?$char_traits@D@std@@V?$allocator@D@2@@std@@PAVCItemData@CMetpParser@hgx@@U?$less@V?$basic_string@DU?$char_traits@D@std@@V?$allocator@D@2@@std@@@2@V?$allocator@U?$pair@$$CBV?$basic_string@DU?$char_traits@D@std@@V?$allocator@D@2@@std@@PAVCItemData@CMetpParser@hgx@@@std@@@2@$0A@@std@@@std@@QAE?AU?$pair@Viterator@?$_Tree@V?$_Tmap_traits@V?$basic_string@DU?$char_traits@D@std@@V?$allocator@D@2@@std@@PAVCItemData@CMetpParser@hgx@@U?$less@V?$basic_string@DU?$char_traits@D@std@@V?$allocator@D@2@@std@@@2@V?$allocator@U?$pair@$$CBV?$basic_string@DU?$char_traits@D@std@@V?$allocator@D@2@@std@@PAVCItemData@CMetpParser@hgx@@@std@@@2@$0A@@std@@@std@@_N@2@ABU?$pair@$$CBV?$basic_string@DU?$char_traits@D@std@@V?$allocator@D@2@@std@@PAVCItemData@CMetpParser@hgx@@@2@@Z$0 1006cc80 f   MetpParserD:MetpParser.obj
 0001:0006bc8b       __unwindfunclet$?insert@?$_Tree@V?$_Tmap_traits@V?$basic_string@DU?$char_traits@D@std@@V?$allocator@D@2@@std@@PAVCItemData@CMetpParser@hgx@@U?$less@V?$basic_string@DU?$char_traits@D@std@@V?$allocator@D@2@@std@@@2@V?$allocator@U?$pair@$$CBV?$basic_string@DU?$char_traits@D@std@@V?$allocator@D@2@@std@@PAVCItemData@CMetpParser@hgx@@@std@@@2@$0A@@std@@@std@@QAE?AU?$pair@Viterator@?$_Tree@V?$_Tmap_traits@V?$basic_string@DU?$char_traits@D@std@@V?$allocator@D@2@@std@@PAVCItemData@CMetpParser@hgx@@U?$less@V?$basic_string@DU?$char_traits@D@std@@V?$allocator@D@2@@std@@@2@V?$allocator@U?$pair@$$CBV?$basic_string@DU?$char_traits@D@std@@V?$allocator@D@2@@std@@PAVCItemData@CMetpParser@hgx@@@std@@@2@$0A@@std@@@std@@_N@2@ABU?$pair@$$CBV?$basic_string@DU?$char_traits@D@std@@V?$allocator@D@2@@std@@PAVCItemData@CMetpParser@hgx@@@2@@Z$1 1006cc8b f   MetpParserD:MetpParser.obj
 0001:0006bcaa       __unwindfunclet$?insert@?$_Tree@V?$_Tmap_traits@V?$basic_string@DU?$char_traits@D@std@@V?$allocator@D@2@@std@@PAVCItemData@CMetpParser@hgx@@U?$less@V?$basic_string@DU?$char_traits@D@std@@V?$allocator@D@2@@std@@@2@V?$allocator@U?$pair@$$CBV?$basic_string@DU?$char_traits@D@std@@V?$allocator@D@2@@std@@PAVCItemData@CMetpParser@hgx@@@std@@@2@$0A@@std@@@std@@QAE?AU?$pair@Viterator@?$_Tree@V?$_Tmap_traits@V?$basic_string@DU?$char_traits@D@std@@V?$allocator@D@2@@std@@PAVCItemData@CMetpParser@hgx@@U?$less@V?$basic_string@DU?$char_traits@D@std@@V?$allocator@D@2@@std@@@2@V?$allocator@U?$pair@$$CBV?$basic_string@DU?$char_traits@D@std@@V?$allocator@D@2@@std@@PAVCItemData@CMetpParser@hgx@@@std@@@2@$0A@@std@@@std@@_N@2@ABU?$pair@$$CBV?$basic_string@DU?$char_traits@D@std@@V?$allocator@D@2@@std@@PAVCItemData@CMetpParser@hgx@@@2@@Z$2 1006ccaa f   MetpParserD:MetpParser.obj
 0001:0006bcb2       __unwindfunclet$?insert@?$_Tree@V?$_Tmap_traits@V?$basic_string@DU?$char_traits@D@std@@V?$allocator@D@2@@std@@PAVCItemData@CMetpParser@hgx@@U?$less@V?$basic_string@DU?$char_traits@D@std@@V?$allocator@D@2@@std@@@2@V?$allocator@U?$pair@$$CBV?$basic_string@DU?$char_traits@D@std@@V?$allocator@D@2@@std@@PAVCItemData@CMetpParser@hgx@@@std@@@2@$0A@@std@@@std@@QAE?AU?$pair@Viterator@?$_Tree@V?$_Tmap_traits@V?$basic_string@DU?$char_traits@D@std@@V?$allocator@D@2@@std@@PAVCItemData@CMetpParser@hgx@@U?$less@V?$basic_string@DU?$char_traits@D@std@@V?$allocator@D@2@@std@@@2@V?$allocator@U?$pair@$$CBV?$basic_string@DU?$char_traits@D@std@@V?$allocator@D@2@@std@@PAVCItemData@CMetpParser@hgx@@@std@@@2@$0A@@std@@@std@@_N@2@ABU?$pair@$$CBV?$basic_string@DU?$char_traits@D@std@@V?$allocator@D@2@@std@@PAVCItemData@CMetpParser@hgx@@@2@@Z$3 1006ccb2 f   MetpParserD:MetpParser.obj
 0001:0006bcbd       __unwindfunclet$?insert@?$_Tree@V?$_Tmap_traits@V?$basic_string@DU?$char_traits@D@std@@V?$allocator@D@2@@std@@PAVCItemData@CMetpParser@hgx@@U?$less@V?$basic_string@DU?$char_traits@D@std@@V?$allocator@D@2@@std@@@2@V?$allocator@U?$pair@$$CBV?$basic_string@DU?$char_traits@D@std@@V?$allocator@D@2@@std@@PAVCItemData@CMetpParser@hgx@@@std@@@2@$0A@@std@@@std@@QAE?AU?$pair@Viterator@?$_Tree@V?$_Tmap_traits@V?$basic_string@DU?$char_traits@D@std@@V?$allocator@D@2@@std@@PAVCItemData@CMetpParser@hgx@@U?$less@V?$basic_string@DU?$char_traits@D@std@@V?$allocator@D@2@@std@@@2@V?$allocator@U?$pair@$$CBV?$basic_string@DU?$char_traits@D@std@@V?$allocator@D@2@@std@@PAVCItemData@CMetpParser@hgx@@@std@@@2@$0A@@std@@@std@@_N@2@ABU?$pair@$$CBV?$basic_string@DU?$char_traits@D@std@@V?$allocator@D@2@@std@@PAVCItemData@CMetpParser@hgx@@@2@@Z$4 1006ccbd f   MetpParserD:MetpParser.obj
 0001:0006bcc8       __unwindfunclet$?insert@?$_Tree@V?$_Tmap_traits@V?$basic_string@DU?$char_traits@D@std@@V?$allocator@D@2@@std@@PAVCItemData@CMetpParser@hgx@@U?$less@V?$basic_string@DU?$char_traits@D@std@@V?$allocator@D@2@@std@@@2@V?$allocator@U?$pair@$$CBV?$basic_string@DU?$char_traits@D@std@@V?$allocator@D@2@@std@@PAVCItemData@CMetpParser@hgx@@@std@@@2@$0A@@std@@@std@@QAE?AU?$pair@Viterator@?$_Tree@V?$_Tmap_traits@V?$basic_string@DU?$char_traits@D@std@@V?$allocator@D@2@@std@@PAVCItemData@CMetpParser@hgx@@U?$less@V?$basic_string@DU?$char_traits@D@std@@V?$allocator@D@2@@std@@@2@V?$allocator@U?$pair@$$CBV?$basic_string@DU?$char_traits@D@std@@V?$allocator@D@2@@std@@PAVCItemData@CMetpParser@hgx@@@std@@@2@$0A@@std@@@std@@_N@2@ABU?$pair@$$CBV?$basic_string@DU?$char_traits@D@std@@V?$allocator@D@2@@std@@PAVCItemData@CMetpParser@hgx@@@2@@Z$5 1006ccc8 f   MetpParserD:MetpParser.obj
 0001:0006bcd3       __ehhandler$?insert@?$_Tree@V?$_Tmap_traits@V?$basic_string@DU?$char_traits@D@std@@V?$allocator@D@2@@std@@PAVCItemData@CMetpParser@hgx@@U?$less@V?$basic_string@DU?$char_traits@D@std@@V?$allocator@D@2@@std@@@2@V?$allocator@U?$pair@$$CBV?$basic_string@DU?$char_traits@D@std@@V?$allocator@D@2@@std@@PAVCItemData@CMetpParser@hgx@@@std@@@2@$0A@@std@@@std@@QAE?AU?$pair@Viterator@?$_Tree@V?$_Tmap_traits@V?$basic_string@DU?$char_traits@D@std@@V?$allocator@D@2@@std@@PAVCItemData@CMetpParser@hgx@@U?$less@V?$basic_string@DU?$char_traits@D@std@@V?$allocator@D@2@@std@@@2@V?$allocator@U?$pair@$$CBV?$basic_string@DU?$char_traits@D@std@@V?$allocator@D@2@@std@@PAVCItemData@CMetpParser@hgx@@@std@@@2@$0A@@std@@@std@@_N@2@ABU?$pair@$$CBV?$basic_string@DU?$char_traits@D@std@@V?$allocator@D@2@@std@@PAVCItemData@CMetpParser@hgx@@@2@@Z 1006ccd3 f   MetpParserD:MetpParser.obj
 0001:0006bd00       __unwindfunclet$?erase@?$_Tree@V?$_Tmap_traits@V?$basic_string@DU?$char_traits@D@std@@V?$allocator@D@2@@std@@PAVCItemData@CMetpParser@hgx@@U?$less@V?$basic_string@DU?$char_traits@D@std@@V?$allocator@D@2@@std@@@2@V?$allocator@U?$pair@$$CBV?$basic_string@DU?$char_traits@D@std@@V?$allocator@D@2@@std@@PAVCItemData@CMetpParser@hgx@@@std@@@2@$0A@@std@@@std@@QAE?AViterator@12@V312@@Z$0 1006cd00 f   MetpParserD:MetpParser.obj
 0001:0006bd08       __unwindfunclet$?erase@?$_Tree@V?$_Tmap_traits@V?$basic_string@DU?$char_traits@D@std@@V?$allocator@D@2@@std@@PAVCItemData@CMetpParser@hgx@@U?$less@V?$basic_string@DU?$char_traits@D@std@@V?$allocator@D@2@@std@@@2@V?$allocator@U?$pair@$$CBV?$basic_string@DU?$char_traits@D@std@@V?$allocator@D@2@@std@@PAVCItemData@CMetpParser@hgx@@@std@@@2@$0A@@std@@@std@@QAE?AViterator@12@V312@@Z$1 1006cd08 f   MetpParserD:MetpParser.obj
 0001:0006bd27       __ehhandler$?erase@?$_Tree@V?$_Tmap_traits@V?$basic_string@DU?$char_traits@D@std@@V?$allocator@D@2@@std@@PAVCItemData@CMetpParser@hgx@@U?$less@V?$basic_string@DU?$char_traits@D@std@@V?$allocator@D@2@@std@@@2@V?$allocator@U?$pair@$$CBV?$basic_string@DU?$char_traits@D@std@@V?$allocator@D@2@@std@@PAVCItemData@CMetpParser@hgx@@@std@@@2@$0A@@std@@@std@@QAE?AViterator@12@V312@@Z 1006cd27 f   MetpParserD:MetpParser.obj
 0001:0006bd50       __unwindfunclet$?find@?$_Tree@V?$_Tmap_traits@V?$basic_string@DU?$char_traits@D@std@@V?$allocator@D@2@@std@@PAVCItemData@CMetpParser@hgx@@U?$less@V?$basic_string@DU?$char_traits@D@std@@V?$allocator@D@2@@std@@@2@V?$allocator@U?$pair@$$CBV?$basic_string@DU?$char_traits@D@std@@V?$allocator@D@2@@std@@PAVCItemData@CMetpParser@hgx@@@std@@@2@$0A@@std@@@std@@QAE?AViterator@12@ABV?$basic_string@DU?$char_traits@D@std@@V?$allocator@D@2@@2@@Z$0 1006cd50 f   MetpParserD:MetpParser.obj
 0001:0006bd58       __unwindfunclet$?find@?$_Tree@V?$_Tmap_traits@V?$basic_string@DU?$char_traits@D@std@@V?$allocator@D@2@@std@@PAVCItemData@CMetpParser@hgx@@U?$less@V?$basic_string@DU?$char_traits@D@std@@V?$allocator@D@2@@std@@@2@V?$allocator@U?$pair@$$CBV?$basic_string@DU?$char_traits@D@std@@V?$allocator@D@2@@std@@PAVCItemData@CMetpParser@hgx@@@std@@@2@$0A@@std@@@std@@QAE?AViterator@12@ABV?$basic_string@DU?$char_traits@D@std@@V?$allocator@D@2@@2@@Z$1 1006cd58 f   MetpParserD:MetpParser.obj
 0001:0006bd7a       __unwindfunclet$?find@?$_Tree@V?$_Tmap_traits@V?$basic_string@DU?$char_traits@D@std@@V?$allocator@D@2@@std@@PAVCItemData@CMetpParser@hgx@@U?$less@V?$basic_string@DU?$char_traits@D@std@@V?$allocator@D@2@@std@@@2@V?$allocator@U?$pair@$$CBV?$basic_string@DU?$char_traits@D@std@@V?$allocator@D@2@@std@@PAVCItemData@CMetpParser@hgx@@@std@@@2@$0A@@std@@@std@@QAE?AViterator@12@ABV?$basic_string@DU?$char_traits@D@std@@V?$allocator@D@2@@2@@Z$2 1006cd7a f   MetpParserD:MetpParser.obj
 0001:0006bd9c       __unwindfunclet$?find@?$_Tree@V?$_Tmap_traits@V?$basic_string@DU?$char_traits@D@std@@V?$allocator@D@2@@std@@PAVCItemData@CMetpParser@hgx@@U?$less@V?$basic_string@DU?$char_traits@D@std@@V?$allocator@D@2@@std@@@2@V?$allocator@U?$pair@$$CBV?$basic_string@DU?$char_traits@D@std@@V?$allocator@D@2@@std@@PAVCItemData@CMetpParser@hgx@@@std@@@2@$0A@@std@@@std@@QAE?AViterator@12@ABV?$basic_string@DU?$char_traits@D@std@@V?$allocator@D@2@@2@@Z$3 1006cd9c f   MetpParserD:MetpParser.obj
 0001:0006bdbb       __ehhandler$?find@?$_Tree@V?$_Tmap_traits@V?$basic_string@DU?$char_traits@D@std@@V?$allocator@D@2@@std@@PAVCItemData@CMetpParser@hgx@@U?$less@V?$basic_string@DU?$char_traits@D@std@@V?$allocator@D@2@@std@@@2@V?$allocator@U?$pair@$$CBV?$basic_string@DU?$char_traits@D@std@@V?$allocator@D@2@@std@@PAVCItemData@CMetpParser@hgx@@@std@@@2@$0A@@std@@@std@@QAE?AViterator@12@ABV?$basic_string@DU?$char_traits@D@std@@V?$allocator@D@2@@2@@Z 1006cdbb f   MetpParserD:MetpParser.obj
 0001:0006bde0       __unwindfunclet$??Eiterator@?$_Tree@V?$_Tmap_traits@V?$basic_string@DU?$char_traits@D@std@@V?$allocator@D@2@@std@@PAVCItemData@CMetpParser@hgx@@U?$less@V?$basic_string@DU?$char_traits@D@std@@V?$allocator@D@2@@std@@@2@V?$allocator@U?$pair@$$CBV?$basic_string@DU?$char_traits@D@std@@V?$allocator@D@2@@std@@PAVCItemData@CMetpParser@hgx@@@std@@@2@$0A@@std@@@std@@QAE?AV012@H@Z$0 1006cde0 f   MetpParserD:MetpParser.obj
 0001:0006bde8       __unwindfunclet$??Eiterator@?$_Tree@V?$_Tmap_traits@V?$basic_string@DU?$char_traits@D@std@@V?$allocator@D@2@@std@@PAVCItemData@CMetpParser@hgx@@U?$less@V?$basic_string@DU?$char_traits@D@std@@V?$allocator@D@2@@std@@@2@V?$allocator@U?$pair@$$CBV?$basic_string@DU?$char_traits@D@std@@V?$allocator@D@2@@std@@PAVCItemData@CMetpParser@hgx@@@std@@@2@$0A@@std@@@std@@QAE?AV012@H@Z$1 1006cde8 f   MetpParserD:MetpParser.obj
 0001:0006be07       __ehhandler$??Eiterator@?$_Tree@V?$_Tmap_traits@V?$basic_string@DU?$char_traits@D@std@@V?$allocator@D@2@@std@@PAVCItemData@CMetpParser@hgx@@U?$less@V?$basic_string@DU?$char_traits@D@std@@V?$allocator@D@2@@std@@@2@V?$allocator@U?$pair@$$CBV?$basic_string@DU?$char_traits@D@std@@V?$allocator@D@2@@std@@PAVCItemData@CMetpParser@hgx@@@std@@@2@$0A@@std@@@std@@QAE?AV012@H@Z 1006ce07 f   MetpParserD:MetpParser.obj
 0001:0006be30       __unwindfunclet$??0?$basic_string@DU?$char_traits@D@std@@V?$allocator@D@2@@std@@QAE@ABV01@@Z$0 1006ce30 f   MetpParserD:MetpParser.obj
 0001:0006be38       __ehhandler$??0?$basic_string@DU?$char_traits@D@std@@V?$allocator@D@2@@std@@QAE@ABV01@@Z 1006ce38 f   MetpParserD:MetpParser.obj
 0001:0006be60       __unwindfunclet$??0?$_Tree@V?$_Tmap_traits@V?$basic_string@DU?$char_traits@D@std@@V?$allocator@D@2@@std@@PAVCItemData@CMetpParser@hgx@@U?$less@V?$basic_string@DU?$char_traits@D@std@@V?$allocator@D@2@@std@@@2@V?$allocator@U?$pair@$$CBV?$basic_string@DU?$char_traits@D@std@@V?$allocator@D@2@@std@@PAVCItemData@CMetpParser@hgx@@@std@@@2@$0A@@std@@@std@@QAE@ABU?$less@V?$basic_string@DU?$char_traits@D@std@@V?$allocator@D@2@@std@@@1@ABV?$allocator@U?$pair@$$CBV?$basic_string@DU?$char_traits@D@std@@V?$allocator@D@2@@std@@PAVCItemData@CMetpParser@hgx@@@std@@@1@@Z$0 1006ce60 f   MetpParserD:MetpParser.obj
 0001:0006be68       __ehhandler$??0?$_Tree@V?$_Tmap_traits@V?$basic_string@DU?$char_traits@D@std@@V?$allocator@D@2@@std@@PAVCItemData@CMetpParser@hgx@@U?$less@V?$basic_string@DU?$char_traits@D@std@@V?$allocator@D@2@@std@@@2@V?$allocator@U?$pair@$$CBV?$basic_string@DU?$char_traits@D@std@@V?$allocator@D@2@@std@@PAVCItemData@CMetpParser@hgx@@@std@@@2@$0A@@std@@@std@@QAE@ABU?$less@V?$basic_string@DU?$char_traits@D@std@@V?$allocator@D@2@@std@@@1@ABV?$allocator@U?$pair@$$CBV?$basic_string@DU?$char_traits@D@std@@V?$allocator@D@2@@std@@PAVCItemData@CMetpParser@hgx@@@std@@@1@@Z 1006ce68 f   MetpParserD:MetpParser.obj
 0001:0006be90       __unwindfunclet$?_Insert@?$_Tree@V?$_Tmap_traits@V?$basic_string@DU?$char_traits@D@std@@V?$allocator@D@2@@std@@PAVCItemData@CMetpParser@hgx@@U?$less@V?$basic_string@DU?$char_traits@D@std@@V?$allocator@D@2@@std@@@2@V?$allocator@U?$pair@$$CBV?$basic_string@DU?$char_traits@D@std@@V?$allocator@D@2@@std@@PAVCItemData@CMetpParser@hgx@@@std@@@2@$0A@@std@@@std@@IAE?AViterator@12@_NPAU_Node@?$_Tree_nod@V?$_Tmap_traits@V?$basic_string@DU?$char_traits@D@std@@V?$allocator@D@2@@std@@PAVCItemData@CMetpParser@hgx@@U?$less@V?$basic_string@DU?$char_traits@D@std@@V?$allocator@D@2@@std@@@2@V?$allocator@U?$pair@$$CBV?$basic_string@DU?$char_traits@D@std@@V?$allocator@D@2@@std@@PAVCItemData@CMetpParser@hgx@@@std@@@2@$0A@@std@@@2@ABU?$pair@$$CBV?$basic_string@DU?$char_traits@D@std@@V?$allocator@D@2@@std@@PAVCItemData@CMetpParser@hgx@@@2@@Z$0 1006ce90 f   MetpParserD:MetpParser.obj
 0001:0006be9b       __ehhandler$?_Insert@?$_Tree@V?$_Tmap_traits@V?$basic_string@DU?$char_traits@D@std@@V?$allocator@D@2@@std@@PAVCItemData@CMetpParser@hgx@@U?$less@V?$basic_string@DU?$char_traits@D@std@@V?$allocator@D@2@@std@@@2@V?$allocator@U?$pair@$$CBV?$basic_string@DU?$char_traits@D@std@@V?$allocator@D@2@@std@@PAVCItemData@CMetpParser@hgx@@@std@@@2@$0A@@std@@@std@@IAE?AViterator@12@_NPAU_Node@?$_Tree_nod@V?$_Tmap_traits@V?$basic_string@DU?$char_traits@D@std@@V?$allocator@D@2@@std@@PAVCItemData@CMetpParser@hgx@@U?$less@V?$basic_string@DU?$char_traits@D@std@@V?$allocator@D@2@@std@@@2@V?$allocator@U?$pair@$$CBV?$basic_string@DU?$char_traits@D@std@@V?$allocator@D@2@@std@@PAVCItemData@CMetpParser@hgx@@@std@@@2@$0A@@std@@@2@ABU?$pair@$$CBV?$basic_string@DU?$char_traits@D@std@@V?$allocator@D@2@@std@@PAVCItemData@CMetpParser@hgx@@@2@@Z 1006ce9b f   MetpParserD:MetpParser.obj
 0001:0006bec0       __unwindfunclet$??0logic_error@std@@QAE@ABV?$basic_string@DU?$char_traits@D@std@@V?$allocator@D@2@@1@@Z$0 1006cec0 f   MetpParserD:MetpParser.obj
 0001:0006bec8       __ehhandler$??0logic_error@std@@QAE@ABV?$basic_string@DU?$char_traits@D@std@@V?$allocator@D@2@@1@@Z 1006cec8 f   MetpParserD:MetpParser.obj
 0001:0006bef0       __unwindfunclet$??0logic_error@std@@QAE@ABV01@@Z$0 1006cef0 f   MetpParserD:MetpParser.obj
 0001:0006bef8       __ehhandler$??0logic_error@std@@QAE@ABV01@@Z 1006cef8 f   MetpParserD:MetpParser.obj
 0001:0006bf20       __unwindfunclet$?_Tidy@?$_Tree@V?$_Tmap_traits@V?$basic_string@DU?$char_traits@D@std@@V?$allocator@D@2@@std@@PAVCItemData@CMetpParser@hgx@@U?$less@V?$basic_string@DU?$char_traits@D@std@@V?$allocator@D@2@@std@@@2@V?$allocator@U?$pair@$$CBV?$basic_string@DU?$char_traits@D@std@@V?$allocator@D@2@@std@@PAVCItemData@CMetpParser@hgx@@@std@@@2@$0A@@std@@@std@@IAEXXZ$0 1006cf20 f   MetpParserD:MetpParser.obj
 0001:0006bf2b       __ehhandler$?_Tidy@?$_Tree@V?$_Tmap_traits@V?$basic_string@DU?$char_traits@D@std@@V?$allocator@D@2@@std@@PAVCItemData@CMetpParser@hgx@@U?$less@V?$basic_string@DU?$char_traits@D@std@@V?$allocator@D@2@@std@@@2@V?$allocator@U?$pair@$$CBV?$basic_string@DU?$char_traits@D@std@@V?$allocator@D@2@@std@@PAVCItemData@CMetpParser@hgx@@@std@@@2@$0A@@std@@@std@@IAEXXZ 1006cf2b f   MetpParserD:MetpParser.obj
 0001:0006bf50       __unwindfunclet$?erase@?$_Tree@V?$_Tmap_traits@V?$basic_string@DU?$char_traits@D@std@@V?$allocator@D@2@@std@@PAVCItemData@CMetpParser@hgx@@U?$less@V?$basic_string@DU?$char_traits@D@std@@V?$allocator@D@2@@std@@@2@V?$allocator@U?$pair@$$CBV?$basic_string@DU?$char_traits@D@std@@V?$allocator@D@2@@std@@PAVCItemData@CMetpParser@hgx@@@std@@@2@$0A@@std@@@std@@QAE?AViterator@12@V312@0@Z$0 1006cf50 f   MetpParserD:MetpParser.obj
 0001:0006bf58       __unwindfunclet$?erase@?$_Tree@V?$_Tmap_traits@V?$basic_string@DU?$char_traits@D@std@@V?$allocator@D@2@@std@@PAVCItemData@CMetpParser@hgx@@U?$less@V?$basic_string@DU?$char_traits@D@std@@V?$allocator@D@2@@std@@@2@V?$allocator@U?$pair@$$CBV?$basic_string@DU?$char_traits@D@std@@V?$allocator@D@2@@std@@PAVCItemData@CMetpParser@hgx@@@std@@@2@$0A@@std@@@std@@QAE?AViterator@12@V312@0@Z$1 1006cf58 f   MetpParserD:MetpParser.obj
 0001:0006bf60       __unwindfunclet$?erase@?$_Tree@V?$_Tmap_traits@V?$basic_string@DU?$char_traits@D@std@@V?$allocator@D@2@@std@@PAVCItemData@CMetpParser@hgx@@U?$less@V?$basic_string@DU?$char_traits@D@std@@V?$allocator@D@2@@std@@@2@V?$allocator@U?$pair@$$CBV?$basic_string@DU?$char_traits@D@std@@V?$allocator@D@2@@std@@PAVCItemData@CMetpParser@hgx@@@std@@@2@$0A@@std@@@std@@QAE?AViterator@12@V312@0@Z$2 1006cf60 f   MetpParserD:MetpParser.obj
 0001:0006bf82       __unwindfunclet$?erase@?$_Tree@V?$_Tmap_traits@V?$basic_string@DU?$char_traits@D@std@@V?$allocator@D@2@@std@@PAVCItemData@CMetpParser@hgx@@U?$less@V?$basic_string@DU?$char_traits@D@std@@V?$allocator@D@2@@std@@@2@V?$allocator@U?$pair@$$CBV?$basic_string@DU?$char_traits@D@std@@V?$allocator@D@2@@std@@PAVCItemData@CMetpParser@hgx@@@std@@@2@$0A@@std@@@std@@QAE?AViterator@12@V312@0@Z$3 1006cf82 f   MetpParserD:MetpParser.obj
 0001:0006bfa4       __unwindfunclet$?erase@?$_Tree@V?$_Tmap_traits@V?$basic_string@DU?$char_traits@D@std@@V?$allocator@D@2@@std@@PAVCItemData@CMetpParser@hgx@@U?$less@V?$basic_string@DU?$char_traits@D@std@@V?$allocator@D@2@@std@@@2@V?$allocator@U?$pair@$$CBV?$basic_string@DU?$char_traits@D@std@@V?$allocator@D@2@@std@@PAVCItemData@CMetpParser@hgx@@@std@@@2@$0A@@std@@@std@@QAE?AViterator@12@V312@0@Z$4 1006cfa4 f   MetpParserD:MetpParser.obj
 0001:0006bfc3       __ehhandler$?erase@?$_Tree@V?$_Tmap_traits@V?$basic_string@DU?$char_traits@D@std@@V?$allocator@D@2@@std@@PAVCItemData@CMetpParser@hgx@@U?$less@V?$basic_string@DU?$char_traits@D@std@@V?$allocator@D@2@@std@@@2@V?$allocator@U?$pair@$$CBV?$basic_string@DU?$char_traits@D@std@@V?$allocator@D@2@@std@@PAVCItemData@CMetpParser@hgx@@@std@@@2@$0A@@std@@@std@@QAE?AViterator@12@V312@0@Z 1006cfc3 f   MetpParserD:MetpParser.obj
 0001:0006bff0       __unwindfunclet$?_Buynode@?$_Tree@V?$_Tmap_traits@V?$basic_string@DU?$char_traits@D@std@@V?$allocator@D@2@@std@@PAVCItemData@CMetpParser@hgx@@U?$less@V?$basic_string@DU?$char_traits@D@std@@V?$allocator@D@2@@std@@@2@V?$allocator@U?$pair@$$CBV?$basic_string@DU?$char_traits@D@std@@V?$allocator@D@2@@std@@PAVCItemData@CMetpParser@hgx@@@std@@@2@$0A@@std@@@std@@IAEPAU_Node@?$_Tree_nod@V?$_Tmap_traits@V?$basic_string@DU?$char_traits@D@std@@V?$allocator@D@2@@std@@PAVCItemData@CMetpParser@hgx@@U?$less@V?$basic_string@DU?$char_traits@D@std@@V?$allocator@D@2@@std@@@2@V?$allocator@U?$pair@$$CBV?$basic_string@DU?$char_traits@D@std@@V?$allocator@D@2@@std@@PAVCItemData@CMetpParser@hgx@@@std@@@2@$0A@@std@@@2@PAU342@00ABU?$pair@$$CBV?$basic_string@DU?$char_traits@D@std@@V?$allocator@D@2@@std@@PAVCItemData@CMetpParser@hgx@@@2@D@Z$2 1006cff0 f   MetpParserD:MetpParser.obj
 0001:0006c004       __ehhandler$?_Buynode@?$_Tree@V?$_Tmap_traits@V?$basic_string@DU?$char_traits@D@std@@V?$allocator@D@2@@std@@PAVCItemData@CMetpParser@hgx@@U?$less@V?$basic_string@DU?$char_traits@D@std@@V?$allocator@D@2@@std@@@2@V?$allocator@U?$pair@$$CBV?$basic_string@DU?$char_traits@D@std@@V?$allocator@D@2@@std@@PAVCItemData@CMetpParser@hgx@@@std@@@2@$0A@@std@@@std@@IAEPAU_Node@?$_Tree_nod@V?$_Tmap_traits@V?$basic_string@DU?$char_traits@D@std@@V?$allocator@D@2@@std@@PAVCItemData@CMetpParser@hgx@@U?$less@V?$basic_string@DU?$char_traits@D@std@@V?$allocator@D@2@@std@@@2@V?$allocator@U?$pair@$$CBV?$basic_string@DU?$char_traits@D@std@@V?$allocator@D@2@@std@@PAVCItemData@CMetpParser@hgx@@@std@@@2@$0A@@std@@@2@PAU342@00ABU?$pair@$$CBV?$basic_string@DU?$char_traits@D@std@@V?$allocator@D@2@@std@@PAVCItemData@CMetpParser@hgx@@@2@D@Z 1006d004 f   MetpParserD:MetpParser.obj
 0001:0006c030       __unwindfunclet$??0const_iterator@?$_Tree@V?$_Tmap_traits@V?$basic_string@DU?$char_traits@D@std@@V?$allocator@D@2@@std@@PAVCItemData@CMetpParser@hgx@@U?$less@V?$basic_string@DU?$char_traits@D@std@@V?$allocator@D@2@@std@@@2@V?$allocator@U?$pair@$$CBV?$basic_string@DU?$char_traits@D@std@@V?$allocator@D@2@@std@@PAVCItemData@CMetpParser@hgx@@@std@@@2@$0A@@std@@@std@@QAE@PAU_Node@?$_Tree_nod@V?$_Tmap_traits@V?$basic_string@DU?$char_traits@D@std@@V?$allocator@D@2@@std@@PAVCItemData@CMetpParser@hgx@@U?$less@V?$basic_string@DU?$char_traits@D@std@@V?$allocator@D@2@@std@@@2@V?$allocator@U?$pair@$$CBV?$basic_string@DU?$char_traits@D@std@@V?$allocator@D@2@@std@@PAVCItemData@CMetpParser@hgx@@@std@@@2@$0A@@std@@@2@PBV12@@Z$0 1006d030 f   MetpParserD:MetpParser.obj
 0001:0006c038       __ehhandler$??0const_iterator@?$_Tree@V?$_Tmap_traits@V?$basic_string@DU?$char_traits@D@std@@V?$allocator@D@2@@std@@PAVCItemData@CMetpParser@hgx@@U?$less@V?$basic_string@DU?$char_traits@D@std@@V?$allocator@D@2@@std@@@2@V?$allocator@U?$pair@$$CBV?$basic_string@DU?$char_traits@D@std@@V?$allocator@D@2@@std@@PAVCItemData@CMetpParser@hgx@@@std@@@2@$0A@@std@@@std@@QAE@PAU_Node@?$_Tree_nod@V?$_Tmap_traits@V?$basic_string@DU?$char_traits@D@std@@V?$allocator@D@2@@std@@PAVCItemData@CMetpParser@hgx@@U?$less@V?$basic_string@DU?$char_traits@D@std@@V?$allocator@D@2@@std@@@2@V?$allocator@U?$pair@$$CBV?$basic_string@DU?$char_traits@D@std@@V?$allocator@D@2@@std@@PAVCItemData@CMetpParser@hgx@@@std@@@2@$0A@@std@@@2@PBV12@@Z 1006d038 f   MetpParserD:MetpParser.obj
 0001:0006c060       __ehhandler$?_Buynode@?$_Tree@V?$_Tmap_traits@V?$basic_string@DU?$char_traits@D@std@@V?$allocator@D@2@@std@@PAVCItemData@CMetpParser@hgx@@U?$less@V?$basic_string@DU?$char_traits@D@std@@V?$allocator@D@2@@std@@@2@V?$allocator@U?$pair@$$CBV?$basic_string@DU?$char_traits@D@std@@V?$allocator@D@2@@std@@PAVCItemData@CMetpParser@hgx@@@std@@@2@$0A@@std@@@std@@IAEPAU_Node@?$_Tree_nod@V?$_Tmap_traits@V?$basic_string@DU?$char_traits@D@std@@V?$allocator@D@2@@std@@PAVCItemData@CMetpParser@hgx@@U?$less@V?$basic_string@DU?$char_traits@D@std@@V?$allocator@D@2@@std@@@2@V?$allocator@U?$pair@$$CBV?$basic_string@DU?$char_traits@D@std@@V?$allocator@D@2@@std@@PAVCItemData@CMetpParser@hgx@@@std@@@2@$0A@@std@@@2@XZ 1006d060 f   MetpParserD:MetpParser.obj
 0001:0006c080       __unwindfunclet$??$for_each@Viterator@?$_Tree@V?$_Tmap_traits@V?$basic_string@DU?$char_traits@D@std@@V?$allocator@D@2@@std@@PAVCItemData@CMetpParser@hgx@@U?$less@V?$basic_string@DU?$char_traits@D@std@@V?$allocator@D@2@@std@@@2@V?$allocator@U?$pair@$$CBV?$basic_string@DU?$char_traits@D@std@@V?$allocator@D@2@@std@@PAVCItemData@CMetpParser@hgx@@@std@@@2@$0A@@std@@@std@@V?$cNodeDelete@U?$pair@V?$basic_string@DU?$char_traits@D@std@@V?$allocator@D@2@@std@@PAVCItemData@CMetpParser@hgx@@@std@@$00@@@std@@YG?AV?$cNodeDelete@U?$pair@V?$basic_string@DU?$char_traits@D@std@@V?$allocator@D@2@@std@@PAVCItemData@CMetpParser@hgx@@@std@@$00@@Viterator@?$_Tree@V?$_Tmap_traits@V?$basic_string@DU?$char_traits@D@std@@V?$allocator@D@2@@std@@PAVCItemData@CMetpParser@hgx@@U?$less@V?$basic_string@DU?$char_traits@D@std@@V?$allocator@D@2@@std@@@2@V?$allocator@U?$pair@$$CBV?$basic_string@DU?$char_traits@D@std@@V?$allocator@D@2@@std@@PAVCItemData@CMetpParser@hgx@@@std@@@2@$0A@@std@@@0@0V1@@Z$0 1006d080 f   MetpParserD:MetpParser.obj
 0001:0006c088       __unwindfunclet$??$for_each@Viterator@?$_Tree@V?$_Tmap_traits@V?$basic_string@DU?$char_traits@D@std@@V?$allocator@D@2@@std@@PAVCItemData@CMetpParser@hgx@@U?$less@V?$basic_string@DU?$char_traits@D@std@@V?$allocator@D@2@@std@@@2@V?$allocator@U?$pair@$$CBV?$basic_string@DU?$char_traits@D@std@@V?$allocator@D@2@@std@@PAVCItemData@CMetpParser@hgx@@@std@@@2@$0A@@std@@@std@@V?$cNodeDelete@U?$pair@V?$basic_string@DU?$char_traits@D@std@@V?$allocator@D@2@@std@@PAVCItemData@CMetpParser@hgx@@@std@@$00@@@std@@YG?AV?$cNodeDelete@U?$pair@V?$basic_string@DU?$char_traits@D@std@@V?$allocator@D@2@@std@@PAVCItemData@CMetpParser@hgx@@@std@@$00@@Viterator@?$_Tree@V?$_Tmap_traits@V?$basic_string@DU?$char_traits@D@std@@V?$allocator@D@2@@std@@PAVCItemData@CMetpParser@hgx@@U?$less@V?$basic_string@DU?$char_traits@D@std@@V?$allocator@D@2@@std@@@2@V?$allocator@U?$pair@$$CBV?$basic_string@DU?$char_traits@D@std@@V?$allocator@D@2@@std@@PAVCItemData@CMetpParser@hgx@@@std@@@2@$0A@@std@@@0@0V1@@Z$1 1006d088 f   MetpParserD:MetpParser.obj
 0001:0006c090       __unwindfunclet$??$for_each@Viterator@?$_Tree@V?$_Tmap_traits@V?$basic_string@DU?$char_traits@D@std@@V?$allocator@D@2@@std@@PAVCItemData@CMetpParser@hgx@@U?$less@V?$basic_string@DU?$char_traits@D@std@@V?$allocator@D@2@@std@@@2@V?$allocator@U?$pair@$$CBV?$basic_string@DU?$char_traits@D@std@@V?$allocator@D@2@@std@@PAVCItemData@CMetpParser@hgx@@@std@@@2@$0A@@std@@@std@@V?$cNodeDelete@U?$pair@V?$basic_string@DU?$char_traits@D@std@@V?$allocator@D@2@@std@@PAVCItemData@CMetpParser@hgx@@@std@@$00@@@std@@YG?AV?$cNodeDelete@U?$pair@V?$basic_string@DU?$char_traits@D@std@@V?$allocator@D@2@@std@@PAVCItemData@CMetpParser@hgx@@@std@@$00@@Viterator@?$_Tree@V?$_Tmap_traits@V?$basic_string@DU?$char_traits@D@std@@V?$allocator@D@2@@std@@PAVCItemData@CMetpParser@hgx@@U?$less@V?$basic_string@DU?$char_traits@D@std@@V?$allocator@D@2@@std@@@2@V?$allocator@U?$pair@$$CBV?$basic_string@DU?$char_traits@D@std@@V?$allocator@D@2@@std@@PAVCItemData@CMetpParser@hgx@@@std@@@2@$0A@@std@@@0@0V1@@Z$2 1006d090 f   MetpParserD:MetpParser.obj
 0001:0006c09b       __unwindfunclet$??$for_each@Viterator@?$_Tree@V?$_Tmap_traits@V?$basic_string@DU?$char_traits@D@std@@V?$allocator@D@2@@std@@PAVCItemData@CMetpParser@hgx@@U?$less@V?$basic_string@DU?$char_traits@D@std@@V?$allocator@D@2@@std@@@2@V?$allocator@U?$pair@$$CBV?$basic_string@DU?$char_traits@D@std@@V?$allocator@D@2@@std@@PAVCItemData@CMetpParser@hgx@@@std@@@2@$0A@@std@@@std@@V?$cNodeDelete@U?$pair@V?$basic_string@DU?$char_traits@D@std@@V?$allocator@D@2@@std@@PAVCItemData@CMetpParser@hgx@@@std@@$00@@@std@@YG?AV?$cNodeDelete@U?$pair@V?$basic_string@DU?$char_traits@D@std@@V?$allocator@D@2@@std@@PAVCItemData@CMetpParser@hgx@@@std@@$00@@Viterator@?$_Tree@V?$_Tmap_traits@V?$basic_string@DU?$char_traits@D@std@@V?$allocator@D@2@@std@@PAVCItemData@CMetpParser@hgx@@U?$less@V?$basic_string@DU?$char_traits@D@std@@V?$allocator@D@2@@std@@@2@V?$allocator@U?$pair@$$CBV?$basic_string@DU?$char_traits@D@std@@V?$allocator@D@2@@std@@PAVCItemData@CMetpParser@hgx@@@std@@@2@$0A@@std@@@0@0V1@@Z$4 1006d09b f   MetpParserD:MetpParser.obj
 0001:0006c0a3       __unwindfunclet$??$for_each@Viterator@?$_Tree@V?$_Tmap_traits@V?$basic_string@DU?$char_traits@D@std@@V?$allocator@D@2@@std@@PAVCItemData@CMetpParser@hgx@@U?$less@V?$basic_string@DU?$char_traits@D@std@@V?$allocator@D@2@@std@@@2@V?$allocator@U?$pair@$$CBV?$basic_string@DU?$char_traits@D@std@@V?$allocator@D@2@@std@@PAVCItemData@CMetpParser@hgx@@@std@@@2@$0A@@std@@@std@@V?$cNodeDelete@U?$pair@V?$basic_string@DU?$char_traits@D@std@@V?$allocator@D@2@@std@@PAVCItemData@CMetpParser@hgx@@@std@@$00@@@std@@YG?AV?$cNodeDelete@U?$pair@V?$basic_string@DU?$char_traits@D@std@@V?$allocator@D@2@@std@@PAVCItemData@CMetpParser@hgx@@@std@@$00@@Viterator@?$_Tree@V?$_Tmap_traits@V?$basic_string@DU?$char_traits@D@std@@V?$allocator@D@2@@std@@PAVCItemData@CMetpParser@hgx@@U?$less@V?$basic_string@DU?$char_traits@D@std@@V?$allocator@D@2@@std@@@2@V?$allocator@U?$pair@$$CBV?$basic_string@DU?$char_traits@D@std@@V?$allocator@D@2@@std@@PAVCItemData@CMetpParser@hgx@@@std@@@2@$0A@@std@@@0@0V1@@Z$5 1006d0a3 f   MetpParserD:MetpParser.obj
 0001:0006c0ab       __ehhandler$??$for_each@Viterator@?$_Tree@V?$_Tmap_traits@V?$basic_string@DU?$char_traits@D@std@@V?$allocator@D@2@@std@@PAVCItemData@CMetpParser@hgx@@U?$less@V?$basic_string@DU?$char_traits@D@std@@V?$allocator@D@2@@std@@@2@V?$allocator@U?$pair@$$CBV?$basic_string@DU?$char_traits@D@std@@V?$allocator@D@2@@std@@PAVCItemData@CMetpParser@hgx@@@std@@@2@$0A@@std@@@std@@V?$cNodeDelete@U?$pair@V?$basic_string@DU?$char_traits@D@std@@V?$allocator@D@2@@std@@PAVCItemData@CMetpParser@hgx@@@std@@$00@@@std@@YG?AV?$cNodeDelete@U?$pair@V?$basic_string@DU?$char_traits@D@std@@V?$allocator@D@2@@std@@PAVCItemData@CMetpParser@hgx@@@std@@$00@@Viterator@?$_Tree@V?$_Tmap_traits@V?$basic_string@DU?$char_traits@D@std@@V?$allocator@D@2@@std@@PAVCItemData@CMetpParser@hgx@@U?$less@V?$basic_string@DU?$char_traits@D@std@@V?$allocator@D@2@@std@@@2@V?$allocator@U?$pair@$$CBV?$basic_string@DU?$char_traits@D@std@@V?$allocator@D@2@@std@@PAVCItemData@CMetpParser@hgx@@@std@@@2@$0A@@std@@@0@0V1@@Z 1006d0ab f   MetpParserD:MetpParser.obj
 0001:0006c0d0       __unwindfunclet$??R?$cNodeDelete@U?$pair@V?$basic_string@DU?$char_traits@D@std@@V?$allocator@D@2@@std@@PAVCItemData@CMetpParser@hgx@@@std@@$00@@QAEXU?$pair@V?$basic_string@DU?$char_traits@D@std@@V?$allocator@D@2@@std@@PAVCItemData@CMetpParser@hgx@@@std@@@Z$0 1006d0d0 f   MetpParserD:MetpParser.obj
 0001:0006c0d8       __ehhandler$??R?$cNodeDelete@U?$pair@V?$basic_string@DU?$char_traits@D@std@@V?$allocator@D@2@@std@@PAVCItemData@CMetpParser@hgx@@@std@@$00@@QAEXU?$pair@V?$basic_string@DU?$char_traits@D@std@@V?$allocator@D@2@@std@@PAVCItemData@CMetpParser@hgx@@@std@@@Z 1006d0d8 f   MetpParserD:MetpParser.obj
 0001:0006c100       __unwindfunclet$?deleteNode@?$cNodeDelete@U?$pair@V?$basic_string@DU?$char_traits@D@std@@V?$allocator@D@2@@std@@PAVCItemData@CMetpParser@hgx@@@std@@$00@@QAEXU?$pair@V?$basic_string@DU?$char_traits@D@std@@V?$allocator@D@2@@std@@PAVCItemData@CMetpParser@hgx@@@std@@U?$tInt2Type@$00@@@Z$0 1006d100 f   MetpParserD:MetpParser.obj
 0001:0006c108       __ehhandler$?deleteNode@?$cNodeDelete@U?$pair@V?$basic_string@DU?$char_traits@D@std@@V?$allocator@D@2@@std@@PAVCItemData@CMetpParser@hgx@@@std@@$00@@QAEXU?$pair@V?$basic_string@DU?$char_traits@D@std@@V?$allocator@D@2@@std@@PAVCItemData@CMetpParser@hgx@@@std@@U?$tInt2Type@$00@@@Z 1006d108 f   MetpParserD:MetpParser.obj
 0001:0006c130       __unwindfunclet$??$_Debug_range@Viterator@?$_Tree@V?$_Tmap_traits@V?$basic_string@DU?$char_traits@D@std@@V?$allocator@D@2@@std@@PAVCItemData@CMetpParser@hgx@@U?$less@V?$basic_string@DU?$char_traits@D@std@@V?$allocator@D@2@@std@@@2@V?$allocator@U?$pair@$$CBV?$basic_string@DU?$char_traits@D@std@@V?$allocator@D@2@@std@@PAVCItemData@CMetpParser@hgx@@@std@@@2@$0A@@std@@@std@@@std@@YAXViterator@?$_Tree@V?$_Tmap_traits@V?$basic_string@DU?$char_traits@D@std@@V?$allocator@D@2@@std@@PAVCItemData@CMetpParser@hgx@@U?$less@V?$basic_string@DU?$char_traits@D@std@@V?$allocator@D@2@@std@@@2@V?$allocator@U?$pair@$$CBV?$basic_string@DU?$char_traits@D@std@@V?$allocator@D@2@@std@@PAVCItemData@CMetpParser@hgx@@@std@@@2@$0A@@std@@@0@0PB_WI@Z$0 1006d130 f   MetpParserD:MetpParser.obj
 0001:0006c138       __unwindfunclet$??$_Debug_range@Viterator@?$_Tree@V?$_Tmap_traits@V?$basic_string@DU?$char_traits@D@std@@V?$allocator@D@2@@std@@PAVCItemData@CMetpParser@hgx@@U?$less@V?$basic_string@DU?$char_traits@D@std@@V?$allocator@D@2@@std@@@2@V?$allocator@U?$pair@$$CBV?$basic_string@DU?$char_traits@D@std@@V?$allocator@D@2@@std@@PAVCItemData@CMetpParser@hgx@@@std@@@2@$0A@@std@@@std@@@std@@YAXViterator@?$_Tree@V?$_Tmap_traits@V?$basic_string@DU?$char_traits@D@std@@V?$allocator@D@2@@std@@PAVCItemData@CMetpParser@hgx@@U?$less@V?$basic_string@DU?$char_traits@D@std@@V?$allocator@D@2@@std@@@2@V?$allocator@U?$pair@$$CBV?$basic_string@DU?$char_traits@D@std@@V?$allocator@D@2@@std@@PAVCItemData@CMetpParser@hgx@@@std@@@2@$0A@@std@@@0@0PB_WI@Z$1 1006d138 f   MetpParserD:MetpParser.obj
 0001:0006c140       __unwindfunclet$??$_Debug_range@Viterator@?$_Tree@V?$_Tmap_traits@V?$basic_string@DU?$char_traits@D@std@@V?$allocator@D@2@@std@@PAVCItemData@CMetpParser@hgx@@U?$less@V?$basic_string@DU?$char_traits@D@std@@V?$allocator@D@2@@std@@@2@V?$allocator@U?$pair@$$CBV?$basic_string@DU?$char_traits@D@std@@V?$allocator@D@2@@std@@PAVCItemData@CMetpParser@hgx@@@std@@@2@$0A@@std@@@std@@@std@@YAXViterator@?$_Tree@V?$_Tmap_traits@V?$basic_string@DU?$char_traits@D@std@@V?$allocator@D@2@@std@@PAVCItemData@CMetpParser@hgx@@U?$less@V?$basic_string@DU?$char_traits@D@std@@V?$allocator@D@2@@std@@@2@V?$allocator@U?$pair@$$CBV?$basic_string@DU?$char_traits@D@std@@V?$allocator@D@2@@std@@PAVCItemData@CMetpParser@hgx@@@std@@@2@$0A@@std@@@0@0PB_WI@Z$2 1006d140 f   MetpParserD:MetpParser.obj
 0001:0006c14b       __ehhandler$??$_Debug_range@Viterator@?$_Tree@V?$_Tmap_traits@V?$basic_string@DU?$char_traits@D@std@@V?$allocator@D@2@@std@@PAVCItemData@CMetpParser@hgx@@U?$less@V?$basic_string@DU?$char_traits@D@std@@V?$allocator@D@2@@std@@@2@V?$allocator@U?$pair@$$CBV?$basic_string@DU?$char_traits@D@std@@V?$allocator@D@2@@std@@PAVCItemData@CMetpParser@hgx@@@std@@@2@$0A@@std@@@std@@@std@@YAXViterator@?$_Tree@V?$_Tmap_traits@V?$basic_string@DU?$char_traits@D@std@@V?$allocator@D@2@@std@@PAVCItemData@CMetpParser@hgx@@U?$less@V?$basic_string@DU?$char_traits@D@std@@V?$allocator@D@2@@std@@@2@V?$allocator@U?$pair@$$CBV?$basic_string@DU?$char_traits@D@std@@V?$allocator@D@2@@std@@PAVCItemData@CMetpParser@hgx@@@std@@@2@$0A@@std@@@0@0PB_WI@Z 1006d14b f   MetpParserD:MetpParser.obj
 0001:0006c170       __unwindfunclet$??$_Debug_range2@Viterator@?$_Tree@V?$_Tmap_traits@V?$basic_string@DU?$char_traits@D@std@@V?$allocator@D@2@@std@@PAVCItemData@CMetpParser@hgx@@U?$less@V?$basic_string@DU?$char_traits@D@std@@V?$allocator@D@2@@std@@@2@V?$allocator@U?$pair@$$CBV?$basic_string@DU?$char_traits@D@std@@V?$allocator@D@2@@std@@PAVCItemData@CMetpParser@hgx@@@std@@@2@$0A@@std@@@std@@@std@@YAXViterator@?$_Tree@V?$_Tmap_traits@V?$basic_string@DU?$char_traits@D@std@@V?$allocator@D@2@@std@@PAVCItemData@CMetpParser@hgx@@U?$less@V?$basic_string@DU?$char_traits@D@std@@V?$allocator@D@2@@std@@@2@V?$allocator@U?$pair@$$CBV?$basic_string@DU?$char_traits@D@std@@V?$allocator@D@2@@std@@PAVCItemData@CMetpParser@hgx@@@std@@@2@$0A@@std@@@0@0PB_WIUinput_iterator_tag@0@@Z$0 1006d170 f   MetpParserD:MetpParser.obj
 0001:0006c178       __ehhandler$??$_Debug_range2@Viterator@?$_Tree@V?$_Tmap_traits@V?$basic_string@DU?$char_traits@D@std@@V?$allocator@D@2@@std@@PAVCItemData@CMetpParser@hgx@@U?$less@V?$basic_string@DU?$char_traits@D@std@@V?$allocator@D@2@@std@@@2@V?$allocator@U?$pair@$$CBV?$basic_string@DU?$char_traits@D@std@@V?$allocator@D@2@@std@@PAVCItemData@CMetpParser@hgx@@@std@@@2@$0A@@std@@@std@@@std@@YAXViterator@?$_Tree@V?$_Tmap_traits@V?$basic_string@DU?$char_traits@D@std@@V?$allocator@D@2@@std@@PAVCItemData@CMetpParser@hgx@@U?$less@V?$basic_string@DU?$char_traits@D@std@@V?$allocator@D@2@@std@@@2@V?$allocator@U?$pair@$$CBV?$basic_string@DU?$char_traits@D@std@@V?$allocator@D@2@@std@@PAVCItemData@CMetpParser@hgx@@@std@@@2@$0A@@std@@@0@0PB_WIUinput_iterator_tag@0@@Z 1006d178 f   MetpParserD:MetpParser.obj
 0001:0006c1a0       __unwindfunclet$?AutoSetVersion@SEHError@@SAXXZ$0 1006d1a0 f   WbersClientLibD:SEHError.obj
 0001:0006c1ab       __ehhandler$?AutoSetVersion@SEHError@@SAXXZ 1006d1ab f   WbersClientLibD:SEHError.obj
 0001:0006c1e0       __unwindfunclet$?MyUnhandledExceptionFilter@@YGJPAU_EXCEPTION_POINTERS@@@Z$0 1006d1e0 f   WbersClientLibD:SEHError.obj
 0001:0006c1e8       __ehhandler$?MyUnhandledExceptionFilter@@YGJPAU_EXCEPTION_POINTERS@@@Z 1006d1e8 f   WbersClientLibD:SEHError.obj
 0001:0006c210       __unwindfunclet$?CheckErrorFile@SEHError@@CAXXZ$0 1006d210 f   WbersClientLibD:SEHError.obj
 0001:0006c21b       __unwindfunclet$?CheckErrorFile@SEHError@@CAXXZ$1 1006d21b f   WbersClientLibD:SEHError.obj
 0001:0006c226       __ehhandler$?CheckErrorFile@SEHError@@CAXXZ 1006d226 f   WbersClientLibD:SEHError.obj
 0001:0006c250       __unwindfunclet$?SendSurvivalReport@SEHError@@SAXABV?$basic_string@DU?$char_traits@D@std@@V?$allocator@D@2@@std@@@Z$0 1006d250 f   WbersClientLibD:SEHError.obj
 0001:0006c258       __unwindfunclet$?SendSurvivalReport@SEHError@@SAXABV?$basic_string@DU?$char_traits@D@std@@V?$allocator@D@2@@std@@@Z$1 1006d258 f   WbersClientLibD:SEHError.obj
 0001:0006c263       __unwindfunclet$?SendSurvivalReport@SEHError@@SAXABV?$basic_string@DU?$char_traits@D@std@@V?$allocator@D@2@@std@@@Z$2 1006d263 f   WbersClientLibD:SEHError.obj
 0001:0006c26e       __unwindfunclet$?SendSurvivalReport@SEHError@@SAXABV?$basic_string@DU?$char_traits@D@std@@V?$allocator@D@2@@std@@@Z$3 1006d26e f   WbersClientLibD:SEHError.obj
 0001:0006c279       __ehhandler$?SendSurvivalReport@SEHError@@SAXABV?$basic_string@DU?$char_traits@D@std@@V?$allocator@D@2@@std@@@Z 1006d279 f   WbersClientLibD:SEHError.obj
 0001:0006c2b0       __unwindfunclet$??0?$basic_string@DU?$char_traits@D@std@@V?$allocator@D@2@@std@@QAE@ABV01@II@Z$0 1006d2b0 f   WbersClientLibD:SEHError.obj
 0001:0006c2b8       __ehhandler$??0?$basic_string@DU?$char_traits@D@std@@V?$allocator@D@2@@std@@QAE@ABV01@II@Z 1006d2b8 f   WbersClientLibD:SEHError.obj
 0001:0006c2e0       __unwindfunclet$?_WebLogTF_free@Wbers@@SGKPAX@Z$4 1006d2e0 f   WbersClientLibD:Wbers.obj
 0001:0006c2eb       __ehhandler$?_WebLogTF_free@Wbers@@SGKPAX@Z 1006d2eb f   WbersClientLibD:Wbers.obj
 0001:0006c320       __unwindfunclet$?weblog_free@Wbers@@SA_NABV?$basic_string@DU?$char_traits@D@std@@V?$allocator@D@2@@std@@P6AXH@Z_N2@Z$0 1006d320 f   WbersClientLibD:Wbers.obj
 0001:0006c32e       __unwindfunclet$?weblog_free@Wbers@@SA_NABV?$basic_string@DU?$char_traits@D@std@@V?$allocator@D@2@@std@@P6AXH@Z_N2@Z$1 1006d32e f   WbersClientLibD:Wbers.obj
 0001:0006c350       __unwindfunclet$?weblog_free@Wbers@@SA_NABV?$basic_string@DU?$char_traits@D@std@@V?$allocator@D@2@@std@@P6AXH@Z_N2@Z$2 1006d350 f   WbersClientLibD:Wbers.obj
 0001:0006c358       __ehhandler$?weblog_free@Wbers@@SA_NABV?$basic_string@DU?$char_traits@D@std@@V?$allocator@D@2@@std@@P6AXH@Z_N2@Z 1006d358 f   WbersClientLibD:Wbers.obj
 0001:0006c380       __unwindfunclet$??0_ThreadContext@@QAE@ABV?$basic_string@DU?$char_traits@D@std@@V?$allocator@D@2@@std@@0P6AXH@Z_N@Z$0 1006d380 f   WbersClientLibD:Wbers.obj
 0001:0006c38e       __unwindfunclet$??0_ThreadContext@@QAE@ABV?$basic_string@DU?$char_traits@D@std@@V?$allocator@D@2@@std@@0P6AXH@Z_N@Z$1 1006d38e f   WbersClientLibD:Wbers.obj
 0001:0006c39c       __ehhandler$??0_ThreadContext@@QAE@ABV?$basic_string@DU?$char_traits@D@std@@V?$allocator@D@2@@std@@0P6AXH@Z_N@Z 1006d39c f   WbersClientLibD:Wbers.obj
 0001:0006c3c0       __unwindfunclet$?weblog@Wbers@@SA_NABV?$basic_string@DU?$char_traits@D@std@@V?$allocator@D@2@@std@@0P6AXH@Z_N@Z$0 1006d3c0 f   WbersClientLibD:Wbers.obj
 0001:0006c3ce       __ehhandler$?weblog@Wbers@@SA_NABV?$basic_string@DU?$char_traits@D@std@@V?$allocator@D@2@@std@@0P6AXH@Z_N@Z 1006d3ce f   WbersClientLibD:Wbers.obj
 0001:0006c400       __unwindfunclet$??0LogBuilder@@QAE@ABV?$basic_string@DU?$char_traits@D@std@@V?$allocator@D@2@@std@@0@Z$0 1006d400 f   WbersClientLibD:LogBuilder.obj
 0001:0006c40b       __ehhandler$??0LogBuilder@@QAE@ABV?$basic_string@DU?$char_traits@D@std@@V?$allocator@D@2@@std@@0@Z 1006d40b f   WbersClientLibD:LogBuilder.obj
 0001:0006c430       __unwindfunclet$?InetPost@@YAKPBD00G@Z$0 1006d430 f   WbersClientLibD:InetPost.obj
 0001:0006c43b       __unwindfunclet$?InetPost@@YAKPBD00G@Z$1 1006d43b f   WbersClientLibD:InetPost.obj
 0001:0006c443       __unwindfunclet$?InetPost@@YAKPBD00G@Z$2 1006d443 f   WbersClientLibD:InetPost.obj
 0001:0006c44b       __unwindfunclet$?InetPost@@YAKPBD00G@Z$3 1006d44b f   WbersClientLibD:InetPost.obj
 0001:0006c456       __unwindfunclet$?InetPost@@YAKPBD00G@Z$4 1006d456 f   WbersClientLibD:InetPost.obj
 0001:0006c461       __unwindfunclet$?InetPost@@YAKPBD00G@Z$5 1006d461 f   WbersClientLibD:InetPost.obj
 0001:0006c46c       __unwindfunclet$?InetPost@@YAKPBD00G@Z$6 1006d46c f   WbersClientLibD:InetPost.obj
 0001:0006c477       __unwindfunclet$?InetPost@@YAKPBD00G@Z$7 1006d477 f   WbersClientLibD:InetPost.obj
 0001:0006c482       __unwindfunclet$?InetPost@@YAKPBD00G@Z$8 1006d482 f   WbersClientLibD:InetPost.obj
 0001:0006c48d       __unwindfunclet$?InetPost@@YAKPBD00G@Z$9 1006d48d f   WbersClientLibD:InetPost.obj
 0001:0006c498       __ehhandler$?InetPost@@YAKPBD00G@Z 1006d498 f   WbersClientLibD:InetPost.obj
 0001:0006c4c0       __unwindfunclet$?GenerateMultipartBoundary@@YA?AV?$basic_string@DU?$char_traits@D@std@@V?$allocator@D@2@@std@@XZ$0 1006d4c0 f   WbersClientLibD:InetPost.obj
 0001:0006c4c8       __unwindfunclet$?GenerateMultipartBoundary@@YA?AV?$basic_string@DU?$char_traits@D@std@@V?$allocator@D@2@@std@@XZ$1 1006d4c8 f   WbersClientLibD:InetPost.obj
 0001:0006c4e7       __ehhandler$?GenerateMultipartBoundary@@YA?AV?$basic_string@DU?$char_traits@D@std@@V?$allocator@D@2@@std@@XZ 1006d4e7 f   WbersClientLibD:InetPost.obj
 0001:0006c510       __unwindfunclet$?GenerateRequestBody@@YA?AV?$basic_string@DU?$char_traits@D@std@@V?$allocator@D@2@@std@@ABV12@0@Z$0 1006d510 f   WbersClientLibD:InetPost.obj
 0001:0006c518       __unwindfunclet$?GenerateRequestBody@@YA?AV?$basic_string@DU?$char_traits@D@std@@V?$allocator@D@2@@std@@ABV12@0@Z$1 1006d518 f   WbersClientLibD:InetPost.obj
 0001:0006c520       __unwindfunclet$?GenerateRequestBody@@YA?AV?$basic_string@DU?$char_traits@D@std@@V?$allocator@D@2@@std@@ABV12@0@Z$2 1006d520 f   WbersClientLibD:InetPost.obj
 0001:0006c52b       __unwindfunclet$?GenerateRequestBody@@YA?AV?$basic_string@DU?$char_traits@D@std@@V?$allocator@D@2@@std@@ABV12@0@Z$3 1006d52b f   WbersClientLibD:InetPost.obj
 0001:0006c536       __unwindfunclet$?GenerateRequestBody@@YA?AV?$basic_string@DU?$char_traits@D@std@@V?$allocator@D@2@@std@@ABV12@0@Z$4 1006d536 f   WbersClientLibD:InetPost.obj
 0001:0006c541       __unwindfunclet$?GenerateRequestBody@@YA?AV?$basic_string@DU?$char_traits@D@std@@V?$allocator@D@2@@std@@ABV12@0@Z$5 1006d541 f   WbersClientLibD:InetPost.obj
 0001:0006c54c       __unwindfunclet$?GenerateRequestBody@@YA?AV?$basic_string@DU?$char_traits@D@std@@V?$allocator@D@2@@std@@ABV12@0@Z$6 1006d54c f   WbersClientLibD:InetPost.obj
 0001:0006c557       __unwindfunclet$?GenerateRequestBody@@YA?AV?$basic_string@DU?$char_traits@D@std@@V?$allocator@D@2@@std@@ABV12@0@Z$7 1006d557 f   WbersClientLibD:InetPost.obj
 0001:0006c562       __unwindfunclet$?GenerateRequestBody@@YA?AV?$basic_string@DU?$char_traits@D@std@@V?$allocator@D@2@@std@@ABV12@0@Z$8 1006d562 f   WbersClientLibD:InetPost.obj
 0001:0006c56d       __unwindfunclet$?GenerateRequestBody@@YA?AV?$basic_string@DU?$char_traits@D@std@@V?$allocator@D@2@@std@@ABV12@0@Z$9 1006d56d f   WbersClientLibD:InetPost.obj
 0001:0006c578       __unwindfunclet$?GenerateRequestBody@@YA?AV?$basic_string@DU?$char_traits@D@std@@V?$allocator@D@2@@std@@ABV12@0@Z$10 1006d578 f   WbersClientLibD:InetPost.obj
 0001:0006c583       __unwindfunclet$?GenerateRequestBody@@YA?AV?$basic_string@DU?$char_traits@D@std@@V?$allocator@D@2@@std@@ABV12@0@Z$11 1006d583 f   WbersClientLibD:InetPost.obj
 0001:0006c5a2       __ehhandler$?GenerateRequestBody@@YA?AV?$basic_string@DU?$char_traits@D@std@@V?$allocator@D@2@@std@@ABV12@0@Z 1006d5a2 f   WbersClientLibD:InetPost.obj
 0001:0006c5d0       __unwindfunclet$?GenerateRequestTail@@YA?AV?$basic_string@DU?$char_traits@D@std@@V?$allocator@D@2@@std@@ABV12@@Z$0 1006d5d0 f   WbersClientLibD:InetPost.obj
 0001:0006c5d8       __unwindfunclet$?GenerateRequestTail@@YA?AV?$basic_string@DU?$char_traits@D@std@@V?$allocator@D@2@@std@@ABV12@@Z$1 1006d5d8 f   WbersClientLibD:InetPost.obj
 0001:0006c5f7       __ehhandler$?GenerateRequestTail@@YA?AV?$basic_string@DU?$char_traits@D@std@@V?$allocator@D@2@@std@@ABV12@@Z 1006d5f7 f   WbersClientLibD:InetPost.obj
 0001:0006c620       __unwindfunclet$??0?$basic_string@DU?$char_traits@D@std@@V?$allocator@D@2@@std@@QAE@ID@Z$0 1006d620 f   WbersClientLibD:InetPost.obj
 0001:0006c628       __ehhandler$??0?$basic_string@DU?$char_traits@D@std@@V?$allocator@D@2@@std@@QAE@ID@Z 1006d628 f   WbersClientLibD:InetPost.obj
 0001:0006c650       __unwindfunclet$??$?HDU?$char_traits@D@std@@V?$allocator@D@1@@std@@YA?AV?$basic_string@DU?$char_traits@D@std@@V?$allocator@D@2@@0@PBDABV10@@Z$0 1006d650 f   WbersClientLibD:InetPost.obj
 0001:0006c65b       __unwindfunclet$??$?HDU?$char_traits@D@std@@V?$allocator@D@1@@std@@YA?AV?$basic_string@DU?$char_traits@D@std@@V?$allocator@D@2@@0@PBDABV10@@Z$1 1006d65b f   WbersClientLibD:InetPost.obj
 0001:0006c67a       __ehhandler$??$?HDU?$char_traits@D@std@@V?$allocator@D@1@@std@@YA?AV?$basic_string@DU?$char_traits@D@std@@V?$allocator@D@2@@0@PBDABV10@@Z 1006d67a f   WbersClientLibD:InetPost.obj
 0001:0006c6a0       __unwindfunclet$??$?HDU?$char_traits@D@std@@V?$allocator@D@1@@std@@YA?AV?$basic_string@DU?$char_traits@D@std@@V?$allocator@D@2@@0@ABV10@PBD@Z$0 1006d6a0 f   WbersClientLibD:InetPost.obj
 0001:0006c6ab       __unwindfunclet$??$?HDU?$char_traits@D@std@@V?$allocator@D@1@@std@@YA?AV?$basic_string@DU?$char_traits@D@std@@V?$allocator@D@2@@0@ABV10@PBD@Z$1 1006d6ab f   WbersClientLibD:InetPost.obj
 0001:0006c6ca       __ehhandler$??$?HDU?$char_traits@D@std@@V?$allocator@D@1@@std@@YA?AV?$basic_string@DU?$char_traits@D@std@@V?$allocator@D@2@@0@ABV10@PBD@Z 1006d6ca f   WbersClientLibD:InetPost.obj
 0001:0006c6f0       __unwindfunclet$??$?HDU?$char_traits@D@std@@V?$allocator@D@1@@std@@YA?AV?$basic_string@DU?$char_traits@D@std@@V?$allocator@D@2@@0@ABV10@0@Z$0 1006d6f0 f   WbersClientLibD:InetPost.obj
 0001:0006c6fb       __unwindfunclet$??$?HDU?$char_traits@D@std@@V?$allocator@D@1@@std@@YA?AV?$basic_string@DU?$char_traits@D@std@@V?$allocator@D@2@@0@ABV10@0@Z$1 1006d6fb f   WbersClientLibD:InetPost.obj
 0001:0006c71a       __ehhandler$??$?HDU?$char_traits@D@std@@V?$allocator@D@1@@std@@YA?AV?$basic_string@DU?$char_traits@D@std@@V?$allocator@D@2@@0@ABV10@0@Z 1006d71a f   WbersClientLibD:InetPost.obj
 0001:0006c740       __unwindfunclet$?strtoxl@@YAKPAUlocaleinfo_struct@@PBDPAPBDHH@Z$0 1006d740 f   LIBCMTD:strtol.obj
 0001:0006c748       __ehhandler$?strtoxl@@YAKPAUlocaleinfo_struct@@PBDPAPBDHH@Z 1006d748 f   LIBCMTD:strtol.obj
 0001:0006c770       __ehhandler$?CallUnexpected@@YAXPBU_s_ESTypeList@@@Z 1006d770 f   LIBCMTD:frame.obj
 0001:0006c790       __unwindfunclet$?getSystemCP@@YAHH@Z$0 1006d790 f   LIBCMTD:mbctype.obj
 0001:0006c798       __ehhandler$?getSystemCP@@YAHH@Z 1006d798 f   LIBCMTD:mbctype.obj
 0001:0006c7c0       __unwindfunclet$?strtoxq@@YA_KPAUlocaleinfo_struct@@PBDPAPBDHH@Z$0 1006d7c0 f   LIBCMTD:strtoq.obj
 0001:0006c7c8       __ehhandler$?strtoxq@@YA_KPAUlocaleinfo_struct@@PBDPAPBDHH@Z 1006d7c8 f   LIBCMTD:strtoq.obj
 0001:0006c7f0       __unwindfunclet$?x_ismbbtype_l@@YAHPAUlocaleinfo_struct@@IHH@Z$0 1006d7f0 f   LIBCMTD:ismbbyte.obj
 0001:0006c7f8       __ehhandler$?x_ismbbtype_l@@YAHPAUlocaleinfo_struct@@IHH@Z 1006d7f8 f   LIBCMTD:ismbbyte.obj
 0001:0006c820       __unwindfunclet$?wcstoxl@@YAKPAUlocaleinfo_struct@@PB_WPAPB_WHH@Z$0 1006d820 f   LIBCMTD:wcstol.obj
 0001:0006c828       __ehhandler$?wcstoxl@@YAKPAUlocaleinfo_struct@@PB_WPAPB_WHH@Z 1006d828 f   LIBCMTD:wcstol.obj
 0001:0006c850       __unwindfunclet$?_Xlen@_String_base@std@@SAXXZ$0 1006d850 f   libcpmtd:string.obj
 0001:0006c858       __ehhandler$?_Xlen@_String_base@std@@SAXXZ 1006d858 f   libcpmtd:string.obj
 0001:0006c880       __unwindfunclet$?_Xran@_String_base@std@@SAXXZ$0 1006d880 f   libcpmtd:string.obj
 0001:0006c888       __ehhandler$?_Xran@_String_base@std@@SAXXZ 1006d888 f   libcpmtd:string.obj
 0001:0006c8b0       __unwindfunclet$?_Xinvarg@_String_base@std@@SAXXZ$0 1006d8b0 f   libcpmtd:string.obj
 0001:0006c8b8       __ehhandler$?_Xinvarg@_String_base@std@@SAXXZ 1006d8b8 f   libcpmtd:string.obj
 0001:0006c8e0       ??__Edefault_se_filename@@YAXXZ 1006d8e0 f   WbersClientLibD:SEHError.obj
 0001:0006c930       ??__E?s_version@SEHError@@0V?$basic_string@DU?$char_traits@D@std@@V?$allocator@D@2@@std@@A@@YAXXZ 1006d930 f   WbersClientLibD:SEHError.obj
 0001:0006c980       ??__E?s_subjectName@SEHError@@0V?$basic_string@DU?$char_traits@D@std@@V?$allocator@D@2@@std@@A@@YAXXZ 1006d980 f   WbersClientLibD:SEHError.obj
 0001:0006c9d0       ??__E?s_dumpFilename@SEHError@@2V?$basic_string@DU?$char_traits@D@std@@V?$allocator@D@2@@std@@A@@YAXXZ 1006d9d0 f   WbersClientLibD:SEHError.obj
 0001:0006ca20       ??__E?s_userid@SEHError@@0V?$basic_string@DU?$char_traits@D@std@@V?$allocator@D@2@@std@@A@@YAXXZ 1006da20 f   WbersClientLibD:SEHError.obj
 0001:0006ca70       ??__E?s_gameid@SEHError@@0V?$basic_string@DU?$char_traits@D@std@@V?$allocator@D@2@@std@@A@@YAXXZ 1006da70 f   WbersClientLibD:SEHError.obj
 0001:0006cac0       ??__E?start_time@Wbers@@2KA@@YAXXZ 1006dac0 f   WbersClientLibD:Wbers.obj
 0001:0006cb10       ??__E?s_serverIp@Wbers@@2V?$basic_string@DU?$char_traits@D@std@@V?$allocator@D@2@@std@@A@@YAXXZ 1006db10 f   WbersClientLibD:Wbers.obj
 0001:0006cb60       ??__E?s_serverFile@Wbers@@2V?$basic_string@DU?$char_traits@D@std@@V?$allocator@D@2@@std@@A@@YAXXZ 1006db60 f   WbersClientLibD:Wbers.obj
 0001:0006cbb0       ??__E?s_projectName@Wbers@@2V?$basic_string@DU?$char_traits@D@std@@V?$allocator@D@2@@std@@A@@YAXXZ 1006dbb0 f   WbersClientLibD:Wbers.obj
 0001:0006cc00       ??__Eg_cs@@YAXXZ           1006dc00 f   WbersClientLibD:Wbers.obj
 0001:0006cc50       ??__Einitlocks@std@@YAXXZ  1006dc50 f   libcpmtd:xlock.obj
 0001:0006cc70       ??__Fdefault_se_filename@@YAXXZ 1006dc70 f   WbersClientLibD:SEHError.obj
 0001:0006ccb0       ??__F?s_version@SEHError@@0V?$basic_string@DU?$char_traits@D@std@@V?$allocator@D@2@@std@@A@@YAXXZ 1006dcb0 f   WbersClientLibD:SEHError.obj
 0001:0006ccf0       ??__F?s_subjectName@SEHError@@0V?$basic_string@DU?$char_traits@D@std@@V?$allocator@D@2@@std@@A@@YAXXZ 1006dcf0 f   WbersClientLibD:SEHError.obj
 0001:0006cd30       ??__F?s_dumpFilename@SEHError@@2V?$basic_string@DU?$char_traits@D@std@@V?$allocator@D@2@@std@@A@@YAXXZ 1006dd30 f   WbersClientLibD:SEHError.obj
 0001:0006cd70       ??__F?s_userid@SEHError@@0V?$basic_string@DU?$char_traits@D@std@@V?$allocator@D@2@@std@@A@@YAXXZ 1006dd70 f   WbersClientLibD:SEHError.obj
 0001:0006cdb0       ??__F?s_gameid@SEHError@@0V?$basic_string@DU?$char_traits@D@std@@V?$allocator@D@2@@std@@A@@YAXXZ 1006ddb0 f   WbersClientLibD:SEHError.obj
 0001:0006cdf0       ??__F?s_serverIp@Wbers@@2V?$basic_string@DU?$char_traits@D@std@@V?$allocator@D@2@@std@@A@@YAXXZ 1006ddf0 f   WbersClientLibD:Wbers.obj
 0001:0006ce30       ??__F?s_serverFile@Wbers@@2V?$basic_string@DU?$char_traits@D@std@@V?$allocator@D@2@@std@@A@@YAXXZ 1006de30 f   WbersClientLibD:Wbers.obj
 0001:0006ce70       ??__F?s_projectName@Wbers@@2V?$basic_string@DU?$char_traits@D@std@@V?$allocator@D@2@@std@@A@@YAXXZ 1006de70 f   WbersClientLibD:Wbers.obj
 0001:0006ceb0       ??__Fg_cs@@YAXXZ           1006deb0 f   WbersClientLibD:Wbers.obj
 0001:0006cef0       ??__Fnomem@?5???2@YAPAXI@Z@YAXXZ 1006def0 f   LIBCMTD:new.obj
 0001:0006cf00       ??__Fnomem@?4???2@YAPAXIABU_DebugHeapTag_t@std@@PADH@Z@YAXXZ 1006df00 f   libcpmtd:xdebug.obj
 0001:0006cf10       ??__Finitlocks@std@@YAXXZ  1006df10 f   libcpmtd:xlock.obj
 0003:00000160       inflate_fast_use_mmx       10086160 f   MetpParserD:inffas32.obj
